(dp1
(V'' XXX-NNS :domain/VP .
p2
V:root/ROOT~order
p3
(V:domain~order
p4
tp5
Vorder
p6
tp7
I1
s(V:op1/S XXX-CC :op2/S .
p8
V:root/ROOT~and
p9
(V:op1~activity-06
p10
V:op2~extinct
p11
tp12
Vand
p13
tp14
I1
s(V:condition/SBAR , then you are XXX-RB :arg1-of/NP . ''
p15
V:root/ROOT~wise
p16
(V:arg1-of~true-01
p17
V:condition~succeed-01
p18
V:domain~you
p19
tp20
Vwise
p21
tp22
I1
s(V'' XXX-IN :duration-of/S :duration-of/VP . ''
p23
V:root/ROOT~pass-03
p24
(V:arg1~temporal-quantity
p25
V:duration-of~talk-01
p26
V:duration-of~talk-01
p27
tp28
Vpass-03
p29
tp30
I1
s(VXXX-CC so :arg0/NP :op2/VP ... :arg2/S .
p31
V:root/ROOT~and
p32
(V:op2~love-01
p33
tp34
Vand
p35
tp36
I1
s(VXXX-CC :arg0/NP :arg2/VP .
p37
V:root/ROOT~contrast-01
p38
(V:arg2~reply-01
p39
tp40
Vcontrast-01
p41
tp42
I1
s(V:arg0/LS XXX-VBN , '' :arg1/VP :arg1/NP . ''
p43
V:root/ROOT~answer-01
p44
(V:arg0~i
p45
V:arg1~eat-01
p46
tp47
Vanswer-01
p48
tp49
I1
s(VXXX-NN :mod/NP .
p50
V:root/ROOT~chapter
p51
(V:mod~11
p52
tp53
Vchapter
p54
tp55
I1
s(V'' a XXX-NN , ''
p56
V:root/ROOT~sheep
p57
S'empty'
p58
Vsheep
p59
tp60
I1
s(VXXX-NN :mod/NP .
p61
V:root/ROOT~chapter
p62
(V:mod~25
p63
tp64
Vchapter
p65
tp66
I1
s(V'' :arg1/NP am :polarity/RB XXX-VBN . ''
p67
V:root/ROOT~tame-01
p68
(V:arg1~i
p69
V:polarity~-
p70
tp71
Vtame-01
p72
tp73
I1
s(V:arg0/NP XXX-VBD :arg1-of/NP :arg2/PP .
p74
V:root/ROOT~take-01
p75
(V:arg0~i
p76
V:arg1~picture
p77
V:arg2~pocket
p78
tp79
Vtake-01
p80
tp81
I1
s(V'' and what :arg1/SQ :arg1/. '' :arg0/NP XXX-VBD .
p82
V:root/MULTI-SENTENCE~ask-01
p83
(V:arg0~he
p84
V:arg1~do-02
p85
tp86
Vask-01
p87
tp88
I1
s(VXXX-VB :arg1/PP .
p89
V:root/ROOT~look-01
p90
(V:arg0~you
p91
V:arg1~planet
p92
tp93
Vlook-01
p94
tp95
I1
s(V'' :arg1/S , '' XXX-VBD :arg0/NP .
p96
V:root/ROOT~say-01
p97
(V:arg0~fox
p98
V:arg1~possible-01
p99
tp100
Vsay-01
p101
tp102
I1
s(V:arg1/NP would be :degree/RB XXX-VBN .
p103
V:root/ROOT~complicate-01
p104
(V:arg1~that
p105
V:degree~too
p106
tp107
Vcomplicate-01
p108
tp109
I1
s(V'' i am :arg1/ADJP , '' :arg0/NP XXX-VBN , :arg1-of/SBAR .
p110
V:root/ROOT~repeat-01
p111
(V:arg0~prince
p112
V:arg1~responsible-03
p113
V:purpose~remember-01
p114
V:purpose~remember-01
p115
tp116
Vrepeat-01
p117
tp118
I1
s(V:op1/S , XXX-CC :op2/S .
p119
V:root/ROOT~and
p120
(V:op1~make-02
p121
V:op2~look-01
p122
tp123
Vand
p124
tp125
I1
s(V'' :arg1-of/NP :arg2/ADVP , '' :arg0/NP XXX-VBD :manner/ADVP , :concession/IN :time/WHADVP :time/S he :concession/VP .
p126
V:root/ROOT~respond-01
p127
(V:arg0~prince
p128
V:arg2~morning
p129
V:concession~see-01
p130
V:concession~see-01
p131
V:manner~polite-01
p132
tp133
Vrespond-01
p134
tp135
I1
s(V:arg1/NP XXX-VBP :arg2/ADJP .
p136
V:root/ROOT~become-01
p137
(V:arg1~you
p138
V:arg2~responsible-03
p139
tp140
Vbecome-01
p141
tp142
I1
s(VXXX-CC :arg0/NP :arg2/VP .
p143
V:root/ROOT~contrast-01
p144
(V:arg2~interrupt-01
p145
tp146
Vcontrast-01
p147
tp148
I2
s(VXXX-CD XXX-NNS .
p149
V:root/ROOT~temporal-quantity
p150
g58
Vtemporal-quantity
p151
tp152
I2
s(V'' :arg1/S , '' :arg0/NP XXX-VBD :arg2/PP , :time/PP .
p153
V:root/ROOT~say-01
p154
(V:arg0~she
p155
V:arg1~silly
p156
V:arg2~he
p157
V:time~at-last
p158
tp159
Vsay-01
p160
tp161
I1
s(V'' :arg0/NP have been XXX-VBG :arg1/NP :duration/PP .
p162
V:root/ROOT~grow-03
p163
(V:arg0~flower
p164
V:arg1~thorn
p165
V:duration~multiple
p166
tp167
Vgrow-03
p168
tp169
I1
s(V'' :arg0/NP has XXX-VBN :arg2/NP :arg1/ADJP :mod/ADVP ! ''
p170
V:root/ROOT~do-02
p171
(V:arg0~it
p172
V:arg1~good-04
p173
V:arg2~you
p174
V:mod~at-all
p175
tp176
Vdo-02
p177
tp178
I1
s(V:arg1-of/JJ XXX-NN .
p179
V:root/ROOT~morning
p180
(V:arg1-of~good-02
p181
tp182
Vmorning
p183
tp184
I1
s(V:arg0/NP are XXX-JJ :arg1/SBAR ? ''
p185
V:root/ROOT~sure-02
p186
(V:arg0~you
p187
V:arg1~suffer-01
p188
tp189
Vsure-02
p190
tp191
I1
s(VXXX-CC :time/ADVP :arg0/NP :op1/VP : '' :op2/PRN .
p192
V:root/ROOT~and
p193
(V:op1~add-01
p194
tp195
Vand
p196
tp197
I1
s(V:arg0/NP are XXX-JJ :arg1/PP ''
p198
V:root/ROOT~responsible-03
p199
(V:arg0~you
p200
V:arg1~rose
p201
tp202
Vresponsible-03
p203
tp204
I1
s(V'' it is :mod/RB XXX-IN :arg2/S .
p205
V:root/ROOT~resemble-01
p206
(V:arg1~it
p207
V:arg2~flower
p208
V:mod~just
p209
tp210
Vresemble-01
p211
tp212
I1
s(V'' :arg1/S , '' XXX-VBD :arg0/NP .
p213
V:root/ROOT~say-01
p214
(V:arg0~prince
p215
V:arg1~know-01
p216
tp217
Vsay-01
p218
tp219
I1
s(VXXX-CC :arg0/NP :op1/VP .
p220
V:root/ROOT~and
p221
(V:op1~go-02
p222
tp223
Vand
p224
tp225
I1
s(V:arg1/NP XXX-VBD :location/ADVP :location/RB :op1/NP .
p226
V:root/ROOT~sit-down-02
p227
(V:arg1~i
p228
V:location~beside
p229
V:location~beside
p230
tp231
Vsit-down-02
p232
tp233
I1
s(V:arg0/NP XXX-VBD :arg0/ADVP :arg1-of/IN :arg2/S .
p234
V:root/ROOT~feel-01
p235
(V:arg0~prince
p236
V:arg1~obligate-01
p237
V:time~at-once
p238
tp239
Vfeel-01
p240
tp241
I1
s(VXXX-RB the :arg0/NN :arg1/VP ...
p242
V:root/ROOT~possible-01
p243
(V:arg1~eat-01
p244
tp245
Vpossible-01
p246
tp247
I1
s(V:arg0/NP will XXX-VB to :arg1/NN :accompanier/PP .
p248
V:root/ROOT~want-01
p249
(V:arg0~you
p250
V:arg1~laugh-01
p251
tp252
Vwant-01
p253
tp254
I1
s(V:domain/NP is :domain/DT :arg1-of/JJ XXX-NN .
p255
V:root/ROOT~occupation
p256
(V:arg1-of~beautiful-02
p257
V:domain~that
p258
V:domain~that
p259
tp260
Voccupation
p261
tp262
I1
s(V'' :arg0/NP XXX-MD :polarity/RB :arg1/VP . ''
p263
V:root/ROOT~possible-01
p264
(V:arg1~tell-01
p265
V:mod~either
p266
V:polarity~-
p267
tp268
Vpossible-01
p269
tp270
I1
s(VXXX-CC :arg0/NP :op2/VP .
p271
V:root/ROOT~and
p272
(V:op2~put-out-09
p273
tp274
Vand
p275
tp276
I2
s(V:location-of/S - :arg0/S .
p277
V:root/ROOT~and
p278
(V:op1~away
p279
V:op2~fear-01
p280
tp281
Vand
p282
tp283
I1
s(V'' yes , :mod/ADVP XXX-NNS that :arg0-of/VP . ''
p284
V:root/ROOT~flower
p285
(V:arg0-of~have-03
p286
V:mod~even
p287
tp288
Vflower
p289
tp290
I1
s(V'' :arg0/NP :polarity/VBP :polarity/RB XXX-VB :arg1/NP , ''
p291
V:root/ROOT~find-01
p292
(V:arg0~they
p293
V:arg1~it
p294
V:polarity~-
p295
V:polarity~-
p296
tp297
Vfind-01
p298
tp299
I1
s(V:arg0/NP had :frequency/ADVP XXX-VBN :arg1/NP .
p300
V:root/ROOT~see-01
p301
(V:arg0~flower
p302
V:arg1~pass-02
p303
V:frequency~1
p304
V:frequency~1
p305
tp306
Vsee-01
p307
tp308
I1
s(VXXX-CC , besides , :arg3/S ... ''
p309
V:root/ROOT~and
p310
(V:op1~make-01
p311
tp312
Vand
p313
tp314
I1
s(V'' :arg1/S , '' XXX-VBD :arg0/NP :arg1-of/IN of :arg0/NP . ''
p315
V:root/ROOT~say-01
p316
(V:arg0~fox
p317
V:arg1~do-02
p318
tp319
Vsay-01
p320
tp321
I1
s(V'' :arg0/NP shall :polarity/RB XXX-VB :arg1/NP , ''
p322
V:root/ROOT~leave-15
p323
(V:arg0~i
p324
V:arg1~you
p325
V:polarity~-
p326
tp327
Vleave-15
p328
tp329
I1
s(V'' :arg1/S , '' XXX-VBD :arg0/NP . ''
p330
V:root/ROOT~say-01
p331
(V:arg0~prince
p332
V:arg1~know-02
p333
tp334
Vsay-01
p335
tp336
I1
s(V:arg0/NP XXX-VBD :arg1/S .
p337
V:root/ROOT~find-out-03
p338
(V:arg0~he
p339
V:arg1~be-located-at-91
p340
tp341
Vfind-out-03
p342
tp343
I1
s(V:arg0/NP XXX-VBD :degree/RB :degree/RB :polarity/SBAR .
p344
V:root/ROOT~know-01
p345
(V:arg0~i
p346
V:arg1~possible-01
p347
V:degree~well
p348
V:degree~well
p349
tp350
Vknow-01
p351
tp352
I1
s(V:time/ADVP :arg1/NP am XXX-JJ .
p353
V:root/ROOT~happy-01
p354
(V:arg1~i
p355
V:time~then
p356
tp357
Vhappy-01
p358
tp359
I1
s(V'' there is a XXX-NN ...
p360
V:root/ROOT~flower
p361
g58
Vflower
p362
tp363
I1
s(V:arg1/NP was :degree/ADVP XXX-VBN :arg0-of/IN :arg1/S .
p364
V:root/ROOT~occupy-01
p365
(V:arg0-of~cause-01
p366
V:arg1~man
p367
V:degree~much
p368
tp369
Voccupy-01
p370
tp371
I1
s(V:arg0/NP made a XXX-NN , :arg0-of/SBAR .
p372
V:root/ROOT~gesture-01
p373
(V:arg0-of~take-in-23
p374
V:arg0~king
p375
tp376
Vgesture-01
p377
tp378
I1
s(VXXX-CC :domain/NP is :mod/ADVP :arg2/ADJP .
p379
V:root/ROOT~contrast-01
p380
(V:arg2~small
p381
tp382
Vcontrast-01
p383
tp384
I1
s(V:arg0/NP should be :arg0/JJ , for XXX-NN , :arg1/S .
p385
V:root/ROOT~exemplify-01
p386
(V:arg0~possible-01
p387
tp388
Vexemplify-01
p389
tp390
I1
s(V'' :arg1/NP are :polarity/RB :degree/RB XXX-JJ .
p391
V:root/ROOT~powerful-02
p392
(V:arg1~you
p393
V:degree~very
p394
tp395
Vpowerful-02
p396
tp397
I1
s(V'' what are :arg0/NP XXX-VBG :arg1/S :arg1/. ''
p398
V:root/ROOT~try-01
p399
(V:arg0~you
p400
V:arg1~say-01
p401
tp402
Vtry-01
p403
tp404
I2
s(V'' the XXX-NN ? ''
p405
V:root/ROOT~screen
p406
g58
Vscreen
p407
tp408
I1
s(VXXX-NN :mod/NP .
p409
V:root/ROOT~chapter
p410
(V:mod~7
p411
tp412
Vchapter
p413
tp414
I1
s(V:arg2/NP was :quant/ADVP :arg1/ADJP , for it was becoming :arg0/ADJP XXX-IN :arg1/S .
p415
V:root/ROOT~cause-01
p416
(V:arg0~clear-06
p417
V:arg1~worry-01
p418
tp419
Vcause-01
p420
tp421
I1
s(V'' :arg2/S , '' :arg0/NP :op1/VP , XXX-CC :manner/ADVP :op2/VP .
p422
V:root/ROOT~and
p423
(V:op1~answer-01
p424
V:op2~gather-01
p425
tp426
Vand
p427
tp428
I1
s(V:time/NP-TMP :arg0/NP :polarity/VBD :polarity/RB XXX-VB :arg1/S .
p429
V:root/ROOT~see-01
p430
(V:arg0~i
p431
V:arg1~set-out-07
p432
V:polarity~-
p433
V:polarity~-
p434
V:time~date-entity
p435
V:time~date-entity
p436
tp437
Vsee-01
p438
tp439
I1
s(V:arg0/NP :snt1/VBD the XXX-NN :mod/ADVP :location/IN :snt1/NP :time/S ; :arg1-of/S .
p440
V:root/ROOT~multi-sentence
p441
(V:snt1~reach-01
p442
V:snt1~reach-01
p443
V:snt2~face
p444
tp445
Vmulti-sentence
p446
tp447
I1
s(V:degree/NP will be a :mod/ADJP XXX-NN :arg1/SBAR ''
p448
V:root/ROOT~trick-01
p449
(V:arg0~i
p450
V:arg1~you
p451
V:mod~shabby
p452
tp453
Vtrick-01
p454
tp455
I1
s(V'' :arg1-of/ADVP , '' :arg0/NP XXX-VBD :arg2/PP .
p456
V:root/ROOT~say-01
p457
(V:arg0~prince
p458
V:arg1~morning
p459
V:arg2~he
p460
tp461
Vsay-01
p462
tp463
I1
s(V'' :arg1/S , '' XXX-VBD :arg0/NP .
p464
V:root/ROOT~say-01
p465
(V:arg0~fox
p466
V:arg1~forget-01
p467
tp468
Vsay-01
p469
tp470
I1
s(V'' :arg1-of/ADVP , '' XXX-VBD :arg0/NP .
p471
V:root/ROOT~say-01
p472
(V:arg0~flower-01
p473
V:arg1~morning
p474
tp475
Vsay-01
p476
tp477
I1
s(V:arg1/S - - XXX-CC :arg2/S ?
p478
V:root/ROOT~contrast-01
p479
(V:arg1~answer-01
p480
V:arg2~flush-03
p481
tp482
Vcontrast-01
p483
tp484
I1
s(V'' :arg0/NP shall XXX-VB as :arg1/IN :arg2/S .
p485
V:root/ROOT~look-02
p486
(V:arg0~i
p487
V:arg1~have-manner-91
p488
tp489
Vlook-02
p490
tp491
I1
s(V'' XXX-IN :arg0/NP :condition-of/VP .
p492
V:root/ROOT~cause-01
p493
(V:arg1~lie-08
p494
tp495
Vcause-01
p496
tp497
I1
s(V:domain/NP was :degree/JJ a XXX-JJ :arg0/NN ...
p498
V:root/ROOT~pride-01
p499
(V:arg0~flower
p500
V:degree~such
p501
tp502
Vpride-01
p503
tp504
I1
s(V'' :time/RB :arg1/PRP will XXX-VB :direction/PRT :direction/IN :unit/NP - :example/PRN :time/IN :location/NP .
p505
V:root/ROOT~sit-down-02
p506
(V:arg1~you
p507
V:direction~down
p508
V:direction~down
p509
V:example~that
p510
V:location~relative-position
p511
V:time~first
p512
V:time~first
p513
tp514
Vsit-down-02
p515
tp516
I1
s(V:arg0/LS XXX-VB :arg1/NP :time/PP .
p517
V:root/ROOT~hear-01
p518
(V:arg0~i
p519
V:arg1~he
p520
V:time~date-entity
p521
tp522
Vhear-01
p523
tp524
I1
s(VXXX-NN :mod/NP .
p525
V:root/ROOT~chapter
p526
(V:mod~12
p527
tp528
Vchapter
p529
tp530
I1
s(VXXX-CC :arg0/NP :op1/VP - :arg1-of/S .
p531
V:root/ROOT~and
p532
(V:op1~have-03
p533
tp534
Vand
p535
tp536
I1
s(V:domain/NP was XXX-JJ .
p537
V:root/ROOT~tiny
p538
(V:domain~planet
p539
tp540
Vtiny
p541
tp542
I1
s(V:arg0-of/IN :arg1/NP , :arg0/NP are XXX-NNS .
p543
V:root/ROOT~guide-01
p544
(V:arg0~star
p545
V:arg1~some
p546
tp547
Vguide-01
p548
tp549
I1
s(V'' :arg1-of/ADVP , '' :arg0/NP XXX-VBD .
p550
V:root/ROOT~say-01
p551
(V:arg0~he
p552
V:arg1~morning
p553
tp554
Vsay-01
p555
tp556
I1
s(V:arg0/NP XXX-VBP :arg2/NP ... ''
p557
V:root/ROOT~confuse-01
p558
(V:arg0~you
p559
V:arg2~everything
p560
tp561
Vconfuse-01
p562
tp563
I1
s(V:op1/S , :arg1/CC it is of :arg1/NP to :op2/NP , XXX-WDT :arg0/S .
p564
V:root/ROOT~cause-01
p565
(V:arg0~own-01
p566
V:arg1~use-01
p567
tp568
Vcause-01
p569
tp570
I1
s(V'' :arg1/S , '' XXX-VBD :arg0/NP .
p571
V:root/ROOT~say-01
p572
(V:arg0~snake
p573
V:arg1~solve-01
p574
tp575
Vsay-01
p576
tp577
I1
s(VXXX-CC :arg0/NP :op2/VP .
p578
V:root/ROOT~and
p579
(V:op2~hear-01
p580
tp581
Vand
p582
tp583
I1
s(V'' XXX-RB ! ''
p584
V:root/ROOT~ah
p585
g58
Vah
p586
tp587
I1
s(V:ord/NP was XXX-VBN :arg0/PP .
p588
V:root/ROOT~inhabit-01
p589
(V:arg0~king
p590
V:arg1~thing
p591
tp592
Vinhabit-01
p593
tp594
I1
s(VXXX-VB :arg1/S
p595
V:root/ROOT~try-01
p596
(V:arg0~you
p597
V:arg1~happy-01
p598
tp599
Vtry-01
p600
tp601
I1
s(V:arg1/NP XXX-MD :polarity/RB :arg1/VP .
p602
V:root/ROOT~possible-01
p603
(V:arg1~move-01
p604
V:polarity~-
p605
tp606
Vpossible-01
p607
tp608
I1
s(V:time/ADVP :mod/DT :time/JJ :arg0/FW was XXX-VBG to myself : '' :arg1/S . ''
p609
V:root/ROOT~say-01
p610
(V:arg0~i
p611
V:arg1~knock-out-03
p612
V:arg2~coref
p613
V:time~instant
p614
V:time~instant
p615
tp616
Vsay-01
p617
tp618
I1
s(V'' :arg1/NP has XXX-VBN out . ''
p619
V:root/ROOT~go-out-18
p620
(V:arg1~cigarette
p621
tp622
Vgo-out-18
p623
tp624
I1
s(V:location/SBAR :arg1-of/VB :consist-of/IN an :mod/JJ :consist-of/NN XXX-NN .
p625
V:root/ROOT~wall
p626
(V:arg1-of~ruin-01
p627
V:consist-of~stone
p628
V:consist-of~stone
p629
V:location~beside
p630
V:location~beside
p631
V:mod~old
p632
tp633
Vwall
p634
tp635
I1
s(VXXX-CC :time/ADVP :op2/SBAR
p636
V:root/ROOT~and
p637
(V:op2~and
p638
V:time~then
p639
tp640
Vand
p641
tp642
I1
s(V:arg0/NP :manner/ADVP XXX-VBD :arg1/SBAR .
p643
V:root/ROOT~realize-01
p644
(V:arg0~businessman
p645
V:arg1~hopeful-03
p646
V:manner~sudden
p647
tp648
Vrealize-01
p649
tp650
I1
s(V'' :arg0/NP XXX-VBZ :purpose/S ? ''
p651
V:root/ROOT~go-02
p652
(V:arg0~one
p653
V:purpose~see-01
p654
tp655
Vgo-02
p656
tp657
I1
s(V:arg1/NP will be XXX-VBG :arg2/PP :location/ADVP .
p658
V:root/ROOT~wait-01
p659
(V:arg1~i
p660
V:arg2~you
p661
V:location~here
p662
tp663
Vwait-01
p664
tp665
I1
s(V'' :domain/NP is a XXX-NN :arg0-of/SBAR . ''
p666
V:root/ROOT~scholar
p667
(V:arg0-of~know-01
p668
V:domain~geographer
p669
tp670
Vscholar
p671
tp672
I1
s(V'' as for me , '' XXX-VBD :arg0/NP :destination/PP :arg1/NP-TMP :arg1/S . ''
p673
V:root/ROOT~say-01
p674
(V:arg0~prince
p675
V:arg1~walk-01
p676
V:arg2~coref
p677
tp678
Vsay-01
p679
tp680
I1
s(VXXX-CC :frequency/NP
p681
V:root/ROOT~and
p682
(V:op2~sense-01
p683
tp684
Vand
p685
tp686
I1
s(V:arg1/S , XXX-CC :op2/S .
p687
V:root/ROOT~and
p688
(V:op1~pass-03
p689
V:op2~listen-01
p690
tp691
Vand
p692
tp693
I1
s(V'' :time/FRAG :arg1/NP :time/ADVP makes :arg3/NP , XXX-CC :op2/S .
p694
V:root/ROOT~and
p695
(V:op1~turn-01
p696
V:op2~have-03
p697
V:time~then
p698
tp699
Vand
p700
tp701
I1
s(V:arg0/NP XXX-VBN :arg1/NP :instrument/IN :subevent-of/NP .
p702
V:root/ROOT~raise-01
p703
(V:arg0~man
p704
V:arg1~hat
p705
V:mod~again
p706
V:subevent-of~salute-01
p707
tp708
Vraise-01
p709
tp710
I1
s(V:domain/NP is XXX-JJ .
p711
V:root/ROOT~difficult
p712
(V:domain~it
p713
tp714
Vdifficult
p715
tp716
I1
s(V'' :arg0/NP shall :polarity/RB XXX-VB :arg1/NP . ''
p717
V:root/ROOT~leave-15
p718
(V:arg0~i
p719
V:arg1~you
p720
V:polarity~-
p721
tp722
Vleave-15
p723
tp724
I2
s(Vthen :arg2/ADJP XXX-VBZ :arg1/S two - thousand , seven - hundred - thirty - one . ''
p725
V:root/ROOT~equal-01
p726
(V:arg1~501622731
p727
V:arg2~that
p728
tp729
Vequal-01
p730
tp731
I1
s(V:location/ADVP , :time/ADVP , is a :mod/JJ XXX-NN .
p732
V:root/ROOT~mystery
p733
(V:location~here
p734
V:mod~great
p735
V:time~then
p736
tp737
Vmystery
p738
tp739
I1
s(V:arg0/NP are objects of XXX-NN .
p740
V:root/ROOT~curious-01
p741
(V:arg0~yawn-01
p742
V:arg1~i
p743
tp744
Vcurious-01
p745
tp746
I1
s(V:arg0/NP XXX-VBP that :domain/NP ''
p747
V:root/ROOT~believe-01
p748
(V:arg0~they
p749
V:arg1~weapon
p750
tp751
Vbelieve-01
p752
tp753
I1
s(V:arg1/NP XXX-VBD :direction/ADVP .
p754
V:root/ROOT~come-01
p755
(V:arg1~prince
p756
V:direction~back
p757
V:time~day
p758
tp759
Vcome-01
p760
tp761
I1
s(V'' :duration/PP :arg1-of/VBP been XXX-VBN :arg1-of/NP-TMP .
p762
V:root/ROOT~disturb-01
p763
(V:arg1-of~have-frequency-91
p764
V:arg1-of~have-frequency-91
p765
V:arg1~i
p766
V:time~inhabit-01
p767
tp768
Vdisturb-01
p769
tp770
I1
s(V:arg1-of/JJ XXX-NN . ''
p771
V:root/ROOT~evening
p772
(V:arg1-of~good-02
p773
tp774
Vevening
p775
tp776
I2
s(V'' :arg1/S , '' XXX-VBD :arg0/NP .
p777
V:root/ROOT~say-01
p778
(V:arg0~prince
p779
V:arg1~lucky
p780
tp781
Vsay-01
p782
tp783
I1
s(V:arg0/NP XXX-VBD :arg1/NP :manner/PP .
p784
V:root/ROOT~adjust-01
p785
(V:arg0~she
p786
V:arg1~petal
p787
V:manner~one-by-one
p788
tp789
Vadjust-01
p790
tp791
I1
s(V:arg0/NP XXX-VBZ :arg1/NP
p792
V:root/ROOT~have-03
p793
(V:arg0~she
p794
V:arg1~thorn
p795
V:purpose~protect-01
p796
tp797
Vhave-03
p798
tp799
I1
s(V:arg1/SBAR XXX-VBZ ... ''
p800
V:root/ROOT~need-01
p801
(V:arg0~he
p802
V:arg1~sunshine
p803
V:mod~all
p804
tp805
Vneed-01
p806
tp807
I1
s(V'' it would have been :arg1/ADJP :arg1/S , '' XXX-VBD :arg0/NP .
p808
V:root/ROOT~say-01
p809
(V:arg0~fox
p810
V:arg1~good-02
p811
tp812
Vsay-01
p813
tp814
I1
s(VXXX-CC , :arg1-of/IN :arg0/S , :arg0/NP :arg1/VP .
p815
V:root/ROOT~have-concession-91
p816
(V:arg1~make-02
p817
tp818
Vhave-concession-91
p819
tp820
I1
s(V'' XXX-RB .
p821
V:root/ROOT~exact
p822
g58
Vexact
p823
tp824
I1
s(V:arg0/NP shall XXX-VB :arg2/NP :degree/SBAR !
p825
V:root/ROOT~show-01
p826
(V:arg0~i
p827
V:arg1~happy-01
p828
V:arg2~you
p829
tp830
Vshow-01
p831
tp832
I1
s(V'' :op1/S ; :domain/NP is :op2/NP , '' :arg0/NP XXX-VBN .
p833
V:root/ROOT~answer-01
p834
(V:arg0~snake
p835
V:arg2~and
p836
tp837
Vanswer-01
p838
tp839
I1
s(V'' :domain/S , '' :arg0/NP XXX-VBD :arg1-of/ADVP , :arg0-of/S .
p840
V:root/ROOT~say-01
p841
(V:arg0~he
p842
V:arg1-of~simple-02
p843
V:arg1~extraordinary
p844
tp845
Vsay-01
p846
tp847
I1
s(VXXX-CC there is :location/NP :location/RB :location/WHADVP :arg1/S , and :arg0-of/RB :arg1/S .
p848
V:root/ROOT~contrast-01
p849
(V:arg2~possible-01
p850
tp851
Vcontrast-01
p852
tp853
I1
s(V:arg0/NP will XXX-VB :direction/RP :arg1/NP
p854
V:root/ROOT~pour-01
p855
(V:arg0~star
p856
V:arg1~water
p857
V:direction~out
p858
V:purpose~drink-01
p859
tp860
Vpour-01
p861
tp862
I1
s(V:arg0/NP XXX-VBD :arg1/SBAR .
p863
V:root/ROOT~believe-01
p864
(V:arg0~he
p865
V:arg1~want-01
p866
tp867
Vbelieve-01
p868
tp869
I1
s(Vand it XXX-VBZ :arg0/S . ''
p870
V:root/ROOT~tire-01
p871
(V:arg0~walk-01
p872
V:arg1~coref
p873
tp874
Vtire-01
p875
tp876
I1
s(V:domain/NP was :arg0-of/DT XXX-NN :mod/PP .
p877
V:root/ROOT~flower
p878
(V:arg0-of~have-03
p879
V:domain~it
p880
V:mod~account
p881
tp882
Vflower
p883
tp884
I1
s(V:degree/NP was :mod/ADVP :manner/PP that :arg0/NP XXX-VBD :arg1/S .
p885
V:root/ROOT~wish-01
p886
(V:arg0~she
p887
V:arg1~appear-01
p888
tp889
Vwish-01
p890
tp891
I1
s(Vbut :arg0/NP :polarity/VBD :polarity/RB XXX-VB :arg2/NP .
p892
V:root/ROOT~hear-01
p893
(V:arg0~man
p894
V:arg2~he
p895
V:polarity~-
p896
V:polarity~-
p897
tp898
Vhear-01
p899
tp900
I1
s(Vfor :arg0/NP :polarity/VBD :polarity/RB XXX-VB :arg1/S .
p901
V:root/ROOT~want-01
p902
(V:arg0~she
p903
V:arg1~see-01
p904
V:polarity~-
p905
V:polarity~-
p906
tp907
Vwant-01
p908
tp909
I1
s(V:time/ADVP would XXX-VB :arg1/NP .
p910
V:root/ROOT~come-03
p911
(V:arg1~turn-01
p912
V:time~first
p913
tp914
Vcome-03
p915
tp916
I1
s(V:arg0/NP had :time/ADVP :op2/VBN :quant/ADVP XXX-CC :mod/RB :arg1/RB !
p917
V:root/ROOT~and
p918
(V:op1~travel-01
p919
V:op2~travel-01
p920
V:time~already
p921
tp922
Vand
p923
tp924
I1
s(VXXX-TO :arg0/NP , :arg1/S ... ''
p925
V:root/ROOT~opine-01
p926
(V:arg0~you
p927
V:arg1~unique
p928
tp929
Vopine-01
p930
tp931
I1
s(V:arg0/NP had XXX-VBN :poss/NP :arg1/SBAR .
p932
V:root/ROOT~tell-01
p933
(V:arg0~flower
p934
V:arg1~unique
p935
V:arg2~coref
p936
tp937
Vtell-01
p938
tp939
I1
s(V:arg0/NP had been :degree/RB XXX-JJ :arg1/PP !
p940
V:root/ROOT~pride-01
p941
(V:arg0~i
p942
V:arg1~baobab
p943
V:degree~so
p944
tp945
Vpride-01
p946
tp947
I1
s(Vis :domain/NP :polarity/RB XXX-JJ ?
p948
V:root/ROOT~important
p949
(V:domain~war-01
p950
V:domain~war-01
p951
V:polarity~-
p952
tp953
Vimportant
p954
tp955
I1
s(V:arg0/NP XXX-VBD himself :consist-of/IN :arg2/NP , :manner/IN :arg2/NP .
p956
V:root/ROOT~twine-01
p957
(V:arg0~he
p958
V:arg1~coref
p959
V:arg2~ankle
p960
V:manner~resemble-01
p961
tp962
Vtwine-01
p963
tp964
I1
s(V:mod/ADVP :arg0/NP XXX-VBD :arg1/NP .
p965
V:root/ROOT~disturb-01
p966
(V:arg0~prince
p967
V:arg1~think-01
p968
V:mod~again
p969
tp970
Vdisturb-01
p971
tp972
I1
s(VXXX-RB :domain/NP :arg1/VP :domain/.
p973
V:root/ROOT~cause-01
p974
(V:arg1~day
p975
tp976
Vcause-01
p977
tp978
I1
s(VXXX-CC :arg1/NP :arg2/VP .
p979
V:root/ROOT~contrast-01
p980
(V:arg2~worry-01
p981
tp982
Vcontrast-01
p983
tp984
I2
s(VXXX-CC , :arg0/PP , :arg0/NP :op1/VP .
p985
V:root/ROOT~contrast-01
p986
(V:arg2~and
p987
tp988
Vcontrast-01
p989
tp990
I1
s(VXXX-CC :domain/NP :arg2/VP . ''
p991
V:root/ROOT~contrast-01
p992
(V:arg2~man
p993
tp994
Vcontrast-01
p995
tp996
I1
s(V'' :arg1/ADVP , '' :arg0/NP XXX-VBD .
p997
V:root/ROOT~say-01
p998
(V:arg0~he
p999
V:arg1~goodbye
p1000
tp1001
Vsay-01
p1002
tp1003
I1
s(VXXX-CC i :op2/VP - - :arg0/S ... ''
p1004
V:root/ROOT~and
p1005
(V:arg1-of~cause-01
p1006
V:op2~oblige-02
p1007
tp1008
Vand
p1009
tp1010
I1
s(VXXX-CC :arg0/NP :op2/VP .
p1011
V:root/ROOT~and
p1012
(V:op2~know-01
p1013
tp1014
Vand
p1015
tp1016
I1
s(V:mod/DT the XXX-NNS :domain/VP .
p1017
V:root/ROOT~star
p1018
(V:domain~well
p1019
V:domain~well
p1020
V:mod~all
p1021
tp1022
Vstar
p1023
tp1024
I1
s(V:arg0/NP runs the XXX-NN :arg2/PP ...
p1025
V:root/ROOT~risk-01
p1026
(V:arg0~one
p1027
V:arg2~weep-01
p1028
V:condition~let-01
p1029
V:condition~let-01
p1030
tp1031
Vrisk-01
p1032
tp1033
I1
s(VXXX-CC :domain/NP :arg2/VP .
p1034
V:root/ROOT~contrast-01
p1035
(V:arg2~silent
p1036
tp1037
Vcontrast-01
p1038
tp1039
I1
s(V'' :arg1-of/WHADVP :arg1/SQ :arg0/. '' XXX-VBD :arg0/NP .
p1040
V:root/MULTI-SENTENCE~ask-01
p1041
(V:arg0~prince
p1042
V:arg1~sell-01
p1043
tp1044
Vask-01
p1045
tp1046
I1
s(VXXX-VB :arg1/S . ''
p1047
V:root/ROOT~allow-01
p1048
(V:arg0~you
p1049
V:arg1~go-on-15
p1050
tp1051
Vallow-01
p1052
tp1053
I1
s(V:arg0/NP XXX-VBD .
p1054
V:root/ROOT~say-01
p1055
(V:arg0~i
p1056
tp1057
Vsay-01
p1058
tp1059
I5
s(V:arg1/NP were XXX-VBN :poss/IN :arg0/S .
p1060
V:root/ROOT~choke-up-04
p1061
(V:arg0~sob-01
p1062
V:arg1~word
p1063
tp1064
Vchoke-up-04
p1065
tp1066
I1
s(V:arg0/NP :polarity/VBP :polarity/RB XXX-VB :arg1/NP .
p1067
V:root/ROOT~believe-01
p1068
(V:arg0~i
p1069
V:arg1~anything
p1070
V:polarity~-
p1071
V:polarity~-
p1072
tp1073
Vbelieve-01
p1074
tp1075
I1
s(V:arg0/NP XXX-VBD :arg1/NP , :op1/NP :time/RB .
p1076
V:root/ROOT~see-01
p1077
(V:arg0~i
p1078
V:arg1~they
p1079
V:time~before
p1080
tp1081
Vsee-01
p1082
tp1083
I1
s(V:location/PP :arg0/NP XXX-VBD :arg1/NP ; :time/S ... ''
p1084
V:root/ROOT~have-03
p1085
(V:arg0~i
p1086
V:arg1~flower
p1087
V:location~planet
p1088
tp1089
Vhave-03
p1090
tp1091
I1
s(V:domain/NP was :degree/RB XXX-JJ .
p1092
V:root/ROOT~strange
p1093
(V:degree~very
p1094
V:domain~planet
p1095
tp1096
Vstrange
p1097
tp1098
I1
s(V:mod/ADVP XXX-DT .
p1099
V:root/ROOT~that
p1100
(V:mod~just
p1101
tp1102
Vthat
p1103
tp1104
I1
s(Vso :arg0/NP XXX-VBD out :arg1/NP , :mod/ADVP .
p1105
V:root/ROOT~clean-out-03
p1106
(V:arg0~he
p1107
V:arg1~volcano
p1108
V:mod~too
p1109
tp1110
Vclean-out-03
p1111
tp1112
I1
s(V'' XXX-NN :topic/VP ! ''
p1113
V:root/ROOT~minister
p1114
(V:topic~justice
p1115
tp1116
Vminister
p1117
tp1118
I1
s(VXXX-RB that is :arg1/IN :arg0/S . ''
p1119
V:root/ROOT~possible-01
p1120
(V:arg1~cause-01
p1121
tp1122
Vpossible-01
p1123
tp1124
I1
s(V'' XXX-CC :domain/ADVP :arg2/VP ! ''
p1125
V:root/ROOT~contrast-01
p1126
(V:arg2~man
p1127
tp1128
Vcontrast-01
p1129
tp1130
I1
s(V'' :arg1/S , '' XXX-VBD :arg0/NP .
p1131
V:root/ROOT~say-01
p1132
(V:arg0~switchman
p1133
V:arg1~pursue-01
p1134
tp1135
Vsay-01
p1136
tp1137
I1
s(V'' :arg1/CC :arg2/WHNP :arg1/SQ ? '' XXX-VBN :arg0/NP , :time/ADVP he :op1/VP .
p1138
V:root/MULTI-SENTENCE~repeat-01
p1139
(V:arg0~prince
p1140
V:arg1~contrast-01
p1141
tp1142
Vrepeat-01
p1143
tp1144
I1
s(V:arg0/NP will XXX-VB :arg1/SBAR , :location/PP .
p1145
V:root/ROOT~see-01
p1146
(V:arg0~you
p1147
V:arg1~begin-01
p1148
tp1149
Vsee-01
p1150
tp1151
I1
s(Vlet :arg0/NP XXX-VB :arg1/PP ''
p1152
V:root/ROOT~look-01
p1153
(V:arg0~we
p1154
V:arg1~well
p1155
tp1156
Vlook-01
p1157
tp1158
I1
s(V:arg1/NP was :degree/NP XXX-VBN .
p1159
V:root/ROOT~discourage-01
p1160
(V:arg1~he
p1161
V:degree~little
p1162
tp1163
Vdiscourage-01
p1164
tp1165
I1
s(Vfor XXX-NN , :condition/IN :arg1/S , :arg0/NP :arg0/VP . ''
p1166
V:root/ROOT~exemplify-01
p1167
(V:arg0~require-01
p1168
tp1169
Vexemplify-01
p1170
tp1171
I1
s(V:arg0/NP shall XXX-VB :arg1/NP .
p1172
V:root/ROOT~know-04
p1173
(V:arg0~i
p1174
V:arg1~sound-02
p1175
tp1176
Vknow-04
p1177
tp1178
I1
s(Vwhat XXX-VBD :arg1/NP :arg0/.
p1179
V:root/ROOT~bring-01
p1180
(V:arg0~amr-unknown
p1181
V:arg1~sense-01
p1182
V:arg2~i
p1183
V:time~then
p1184
tp1185
Vbring-01
p1186
tp1187
I1
s(V'' :mod/NP :op2/LS - - :arg0/NP XXX-NN :frequency/VP - - ''
p1188
V:root/ROOT~order-01
p1189
(V:arg0~i
p1190
V:arg1~you
p1191
V:arg2~and
p1192
V:mod~then
p1193
tp1194
Vorder-01
p1195
tp1196
I1
s(V:arg1/NP was :time/ADVP XXX-JJ :arg0/PP .
p1197
V:root/ROOT~white-03
p1198
(V:arg1-of~cause-01
p1199
V:arg1~prince
p1200
V:time~now
p1201
tp1202
Vwhite-03
p1203
tp1204
I1
s(V:arg1/NP XXX-VBD :manner/ADJP :duration/PP .
p1205
V:root/ROOT~remain-01
p1206
(V:arg1~he
p1207
V:duration~instant
p1208
V:manner~move-01
p1209
tp1210
Vremain-01
p1211
tp1212
I1
s(V'' :arg1/S , '' XXX-VBD :arg0/NP .
p1213
V:root/ROOT~say-01
p1214
(V:arg0~businessman
p1215
V:arg1~enough
p1216
tp1217
Vsay-01
p1218
tp1219
I1
s(V:arg1-of/S ; XXX-CC :op2/S ... ''
p1220
V:root/ROOT~and
p1221
(V:op1~resemble-01
p1222
V:op2~true-01
p1223
tp1224
Vand
p1225
tp1226
I1
s(Vdo :polarity/RB XXX-VB :purpose/S .
p1227
V:root/ROOT~come-01
p1228
(V:arg1~you
p1229
V:polarity~-
p1230
V:purpose~see-01
p1231
tp1232
Vcome-01
p1233
tp1234
I1
s(V'' it makes it XXX-JJ :arg1/SBAR , :condition/SBAR . ''
p1235
V:root/ROOT~possible-01
p1236
(V:arg1~buy-01
p1237
V:condition~discover-01
p1238
tp1239
Vpossible-01
p1240
tp1241
I1
s(VXXX-NN :mod/NP .
p1242
V:root/ROOT~chapter
p1243
(V:mod~14
p1244
tp1245
Vchapter
p1246
tp1247
I1
s(V:condition/SBAR , :arg1/NP take XXX-RP :op1/NP : it is yours .
p1248
V:root/ROOT~and
p1249
(V:condition~get-01
p1250
V:op1~patent-01
p1251
V:op2~belong-01
p1252
tp1253
Vand
p1254
tp1255
I1
s(V'' XXX-TO :arg0/NP , :domain/NP are :mod/ADVP :mod/ADJP .
p1256
V:root/ROOT~opine-01
p1257
(V:arg0~i
p1258
V:arg1~boy
p1259
tp1260
Vopine-01
p1261
tp1262
I1
s(V:arg0/NP :polarity/VBD :polarity/RB XXX-VB :arg1/SBAR .
p1263
V:root/ROOT~know-01
p1264
(V:arg0~he
p1265
V:arg1~simplify-01
p1266
V:polarity~-
p1267
V:polarity~-
p1268
tp1269
Vknow-01
p1270
tp1271
I1
s(V'' XXX-VBZ :arg0/NP :arg1/NP ? ''
p1272
V:root/ROOT~have-03
p1273
(V:arg0~it
p1274
V:arg1~mountain
p1275
tp1276
Vhave-03
p1277
tp1278
I1
s(V:arg0/NP :time/ADVP XXX-VBN :arg1/S .
p1279
V:root/ROOT~learn-01
p1280
(V:arg0~i
p1281
V:arg1~know-02
p1282
V:time~soon
p1283
tp1284
Vlearn-01
p1285
tp1286
I1
s(V:arg0/NP :op1/VP , :op2/VP , XXX-CC :op3/VP .
p1287
V:root/ROOT~and
p1288
(V:op1~laugh-01
p1289
V:op2~touch-01
p1290
V:op3~set-08
p1291
tp1292
Vand
p1293
tp1294
I1
s(V'' :polite/VB XXX-NN :arg0/NP ... ''
p1295
V:root/ROOT~excuse-01
p1296
(V:arg0~you
p1297
V:arg1~i
p1298
V:polite~+
p1299
tp1300
Vexcuse-01
p1301
tp1302
I1
s(V'' :arg1-of/ADVP , '' XXX-VBD :arg0/NP :manner/ADVP .
p1303
V:root/ROOT~say-01
p1304
(V:arg0~prince
p1305
V:arg1~evening
p1306
V:manner~courteous
p1307
tp1308
Vsay-01
p1309
tp1310
I1
s(Voh , XXX-UH !
p1311
V:root/ROOT~yes
p1312
g58
Vyes
p1313
tp1314
I1
s(VXXX-CC :arg0/NP :op2/VP .
p1315
V:root/ROOT~and
p1316
(V:op2~light-04
p1317
tp1318
Vand
p1319
tp1320
I2
s(V:op1/CD :arg1/CC :op2/CD XXX-VBP :arg2/NP .
p1321
V:root/ROOT~equal-01
p1322
(V:arg1~sum-of
p1323
V:arg2~12
p1324
tp1325
Vequal-01
p1326
tp1327
I1
s(V:arg0/NP is XXX-WRB :arg0/S .
p1328
V:root/ROOT~cause-01
p1329
(V:arg0~that
p1330
V:arg1~trouble-01
p1331
tp1332
Vcause-01
p1333
tp1334
I1
s(V'' :arg0/NP XXX-VBP there are :op1/CD :quant/CC :op2/CD :arg1/PP :arg1/PP .
p1335
V:root/ROOT~think-01
p1336
(V:arg0~i
p1337
V:arg1~exist-01
p1338
tp1339
Vthink-01
p1340
tp1341
I1
s(V:arg0/NP will XXX-VB :time/ADVP :domain/IN :arg1/S .
p1342
V:root/ROOT~understand-01
p1343
(V:arg0~you
p1344
V:arg1~unique
p1345
V:time~now
p1346
tp1347
Vunderstand-01
p1348
tp1349
I1
s(V'' :arg1/S , '' XXX-VBD :arg0/NP .
p1350
V:root/ROOT~say-01
p1351
(V:arg0~prince
p1352
V:arg1~go-02
p1353
tp1354
Vsay-01
p1355
tp1356
I1
s(V:arg0/NP XXX-VBD .
p1357
V:root/ROOT~demand-01
p1358
(V:arg0~i
p1359
tp1360
Vdemand-01
p1361
tp1362
I2
s(V:arg0/NP XXX-VBD to myself .
p1363
V:root/ROOT~say-01
p1364
(V:arg0~i
p1365
V:arg2~coref
p1366
tp1367
Vsay-01
p1368
tp1369
I1
s(V'' XXX-CC :arg1/NP .
p1370
V:root/ROOT~contrast-01
p1371
(V:arg2~obligate-01
p1372
tp1373
Vcontrast-01
p1374
tp1375
I1
s(VXXX-IN it :arg0/VP .
p1376
V:root/ROOT~cause-01
p1377
(V:arg0~possible-01
p1378
tp1379
Vcause-01
p1380
tp1381
I1
s(VXXX-CC , :time/IN :op1/NP , :arg2/S : '' :arg1/S :arg2/. ''
p1382
V:root/ROOT~contrast-01
p1383
(V:arg2~add-01
p1384
tp1385
Vcontrast-01
p1386
tp1387
I1
s(V:arg0/NP XXX-VBD :ord/TO :arg1/NP .
p1388
V:root/ROOT~belong-01
p1389
(V:arg0~planet
p1390
V:arg1~businessman
p1391
tp1392
Vbelong-01
p1393
tp1394
I1
s(VXXX-CC :arg0/NP :op2/VP ''
p1395
V:root/ROOT~and
p1396
(V:op2~love-02
p1397
tp1398
Vand
p1399
tp1400
I1
s(VXXX-CC :arg1/NP :polarity/VP .
p1401
V:root/ROOT~contrast-01
p1402
(V:arg1~satisfy-01
p1403
tp1404
Vcontrast-01
p1405
tp1406
I1
s(VXXX-CC :condition/IN :arg0/S , it :arg2/VP .
p1407
V:root/ROOT~contrast-01
p1408
(V:arg2~shine-01
p1409
tp1410
Vcontrast-01
p1411
tp1412
I1
s(V:arg1/NP was XXX-VBG :arg2/IN :location-of/NP .
p1413
V:root/ROOT~stand-01
p1414
(V:arg1~he
p1415
V:arg2~before
p1416
tp1417
Vstand-01
p1418
tp1419
I1
s(VXXX-CC :arg1/NP :arg2/VP : '' it is :arg1/ADJP :arg1/SBAR . ''
p1420
V:root/ROOT~contrast-01
p1421
(V:arg2~come-01
p1422
tp1423
Vcontrast-01
p1424
tp1425
I1
s(VXXX-CC :arg0/NP :arg2/VP .
p1426
V:root/ROOT~contrast-01
p1427
(V:arg2~answer-01
p1428
tp1429
Vcontrast-01
p1430
tp1431
I1
s(V'' XXX-NNS ? ''
p1432
V:root/ROOT~fly
p1433
g58
Vfly
p1434
tp1435
I1
s(VXXX-CC :arg0/NP :poss/VP .
p1436
V:root/ROOT~and
p1437
(V:op2~look-01
p1438
tp1439
Vand
p1440
tp1441
I1
s(V:arg1/NP XXX-MD :arg1/VP .
p1442
V:root/ROOT~possible-01
p1443
(V:arg1~pile-01
p1444
tp1445
Vpossible-01
p1446
tp1447
I1
s(V'' :arg2/IN :mod/NP , '' :arg0/NP XXX-VBN .
p1448
V:root/ROOT~answer-01
p1449
(V:arg0~king
p1450
V:arg2~over
p1451
tp1452
Vanswer-01
p1453
tp1454
I1
s(V:op1/S , XXX-CC :op2/S .
p1455
V:root/ROOT~and
p1456
(V:op1~question-01
p1457
V:op2~note-02
p1458
tp1459
Vand
p1460
tp1461
I1
s(V:domain/NP was :poss/PRP$ :ord/JJ XXX-NN :mod/PP .
p1462
V:root/ROOT~moment
p1463
(V:domain~that
p1464
V:mod~regret-01
p1465
V:ord~ordinal-entity
p1466
V:poss~he
p1467
tp1468
Vmoment
p1469
tp1470
I1
s(VXXX-CC :time/ADVP would :arg0/NP :polarity/VP .
p1471
V:root/ROOT~and
p1472
(V:op2~mistake-02
p1473
tp1474
Vand
p1475
tp1476
I1
s(V:arg0/NP XXX-VBD :arg1/NP .
p1477
V:root/ROOT~tolerate-01
p1478
(V:arg0~he
p1479
V:arg1~disobey-01
p1480
V:polarity~-
p1481
tp1482
Vtolerate-01
p1483
tp1484
I1
s(V:domain/NP XXX-MD , you :mod/VP .
p1485
V:root/ROOT~possible-01
p1486
(V:arg1~baobab
p1487
tp1488
Vpossible-01
p1489
tp1490
I1
s(V'' XXX-CC :time/ADVP :arg1/NP :time/VP :arg1-of/PRN :arg1/S .
p1491
V:root/ROOT~and
p1492
(V:op2~content-01
p1493
tp1494
Vand
p1495
tp1496
I1
s(V:arg1/S , '' XXX-VBD :arg0/NP .
p1497
V:root/ROOT~say-01
p1498
(V:arg0~snake
p1499
V:arg1~large
p1500
tp1501
Vsay-01
p1502
tp1503
I1
s(V:arg0/NP was XXX-VBG :arg1/NP :location/PP ...
p1504
V:root/ROOT~hide-01
p1505
(V:arg0~home
p1506
V:arg1~secret
p1507
V:location~deep-02
p1508
tp1509
Vhide-01
p1510
tp1511
I1
s(VXXX-CC :op2/SBAR .
p1512
V:root/ROOT~and
p1513
(V:op2~make-02
p1514
tp1515
Vand
p1516
tp1517
I1
s(V:mod/NP :arg0-of/ADJP XXX-NNS . ''
p1518
V:root/ROOT~object
p1519
(V:arg0-of~glitter-01
p1520
V:mod~little
p1521
tp1522
Vobject
p1523
tp1524
I1
s(V'' :arg1/NP :arg0/ADVP XXX-VBP ... ''
p1525
V:root/ROOT~do-02
p1526
(V:arg0~you
p1527
V:arg1~anything
p1528
tp1529
Vdo-02
p1530
tp1531
I1
s(VXXX-IN :arg0/NP :arg1/VP .
p1532
V:root/ROOT~cause-01
p1533
(V:arg1~tame-01
p1534
tp1535
Vcause-01
p1536
tp1537
I1
s(V'' :arg1/S , '' XXX-VBD :arg0/NP .
p1538
V:root/ROOT~say-01
p1539
(V:arg0~geographer
p1540
V:arg1~same-01
p1541
tp1542
Vsay-01
p1543
tp1544
I1
s(V:arg1/NP was XXX-VBN .
p1545
V:root/ROOT~tire-01
p1546
(V:arg1~he
p1547
tp1548
Vtire-01
p1549
tp1550
I1
s(V:arg2-of/ADVP , :arg1/NP :time/ADVP XXX-VBZ :path/NP . ''
p1551
V:root/ROOT~pass-03
p1552
(V:arg1~nobody
p1553
V:arg2-of~fortunate-01
p1554
V:path~way
p1555
V:time~ever
p1556
V:time~ever
p1557
tp1558
Vpass-03
p1559
tp1560
I1
s(VXXX-NN :mod/NP .
p1561
V:root/ROOT~chapter
p1562
(V:mod~27
p1563
tp1564
Vchapter
p1565
tp1566
I1
s(VXXX-CC :time/ADVP :arg1/NP :op2/VP ...
p1567
V:root/ROOT~and
p1568
(V:op2~change-01
p1569
tp1570
Vand
p1571
tp1572
I1
s(V'' :arg0/NP shall XXX-VB :arg1/NP .
p1573
V:root/ROOT~have-03
p1574
(V:arg0~you
p1575
V:arg1~sunset
p1576
tp1577
Vhave-03
p1578
tp1579
I1
s(V'' i , '' XXX-VBD :arg0/NP .
p1580
V:root/ROOT~reply-01
p1581
(V:arg0~prince
p1582
V:arg1~like-01
p1583
tp1584
Vreply-01
p1585
tp1586
I1
s(VXXX-TO :op1/VP , no one :arg1/VP ; :arg1/S .
p1587
V:root/ROOT~and
p1588
(V:op1~sure-02
p1589
V:op2~possible-01
p1590
tp1591
Vand
p1592
tp1593
I1
s(V:time/S ... '' XXX-VBD :arg0/NP , :time/NP :arg1-of/ADJP .
p1594
V:root/ROOT~murmur-01
p1595
(V:arg0~prince
p1596
V:arg1~possible-01
p1597
tp1598
Vmurmur-01
p1599
tp1600
I1
s(V:time/S , :arg0/NP XXX-VBP :mod/RB :arg1/VP .
p1601
V:root/ROOT~need-01
p1602
(V:arg0~you
p1603
V:arg1~walk-01
p1604
V:purpose~be-located-at-91
p1605
tp1606
Vneed-01
p1607
tp1608
I1
s(V'' XXX-IN :arg1/NP am :time/IN :arg0/S ''
p1609
V:root/ROOT~cause-01
p1610
(V:arg0~die-01
p1611
tp1612
Vcause-01
p1613
tp1614
I1
s(V'' :arg1-of/NP XXX-NN . ''
p1615
V:root/ROOT~morning
p1616
(V:arg1-of~good-02
p1617
tp1618
Vmorning
p1619
tp1620
I2
s(V'' that XXX-VBZ :arg1/IN :arg2/S .
p1621
V:root/ROOT~mean-01
p1622
(V:arg1~that
p1623
V:arg2~write-01
p1624
tp1625
Vmean-01
p1626
tp1627
I1
s(V:poss/PRP$ XXX-NN :mod/VP .
p1628
V:root/ROOT~star
p1629
(V:arg1-of~include-91
p1630
V:beneficiary~you
p1631
V:poss~i
p1632
V:quant~1
p1633
tp1634
Vstar
p1635
tp1636
I1
s(Vthe XXX-NN :arg4-of/SBAR :arg1-of/VP .
p1637
V:root/ROOT~well
p1638
(V:arg1-of~resemble-01
p1639
V:arg4-of~come-01
p1640
tp1641
Vwell
p1642
tp1643
I1
s(V:arg0/NP XXX-MD :polarity/RB :arg1/VP .
p1644
V:root/ROOT~possible-01
p1645
(V:arg1~say-01
p1646
V:polarity~-
p1647
tp1648
Vpossible-01
p1649
tp1650
I1
s(V'' :arg1/SBAR XXX-VBD :arg0/NP , '' is that :location/RB :arg0/SBAR ... ''
p1651
V:root/ROOT~say-01
p1652
(V:arg0~prince
p1653
V:arg1~make-02
p1654
tp1655
Vsay-01
p1656
tp1657
I1
s(V'' :domain/NP is :domain/DT :mod/NN XXX-NN :arg1-of/SBAR . ''
p1658
V:root/ROOT~hat
p1659
(V:arg1-of~wear-01
p1660
V:domain~that
p1661
V:domain~that
p1662
V:mod~queer
p1663
tp1664
Vhat
p1665
tp1666
I1
s(V'' :arg1/NP :location/RB , '' :arg0/NP XXX-VBD , '' :location/IN :op1/NP . ''
p1667
V:root/ROOT~say-01
p1668
(V:arg0~voice
p1669
V:arg1~i
p1670
tp1671
Vsay-01
p1672
tp1673
I1
s(V'' XXX-CC :arg1/WHNP :arg0/SQ :arg1/. ''
p1674
V:root/ROOT~and
p1675
(V:op2~cause-01
p1676
tp1677
Vand
p1678
tp1679
I2
s(V:snt1/NP XXX-RB :snt1/VP ; :snt2/S .
p1680
V:root/ROOT~multi-sentence
p1681
(V:snt1~hesitate-01
p1682
V:snt1~hesitate-01
p1683
V:snt2~get-05
p1684
tp1685
Vmulti-sentence
p1686
tp1687
I1
s(V'' XXX-CC :arg1/S :arg0/. ''
p1688
V:root/ROOT~contrast-01
p1689
(V:arg2~cause-01
p1690
tp1691
Vcontrast-01
p1692
tp1693
I1
s(VXXX-NN :mod/NP .
p1694
V:root/ROOT~chapter
p1695
(V:mod~8
p1696
tp1697
Vchapter
p1698
tp1699
I1
s(V'' :arg0/S XXX-CC :arg1/S ; and :op2/S ... ''
p1700
V:root/ROOT~and
p1701
(V:op1~cause-01
p1702
V:op2~cry-02
p1703
tp1704
Vand
p1705
tp1706
I1
s(V:op1/S ; XXX-CC :op2/S ...
p1707
V:root/ROOT~and
p1708
(V:op1~hold-01
p1709
V:op2~seem-01
p1710
tp1711
Vand
p1712
tp1713
I1
s(V'' :arg1/S , '' :arg0/NP XXX-VBD :arg2/PP .
p1714
V:root/ROOT~say-01
p1715
(V:arg0~flower-01
p1716
V:arg1~love-01
p1717
V:arg2~he
p1718
tp1719
Vsay-01
p1720
tp1721
I1
s(V:arg0/NP :op1/VP , XXX-CC :arg1/VP .
p1722
V:root/ROOT~and
p1723
(V:op1~sputter-01
p1724
V:op2~seem-01
p1725
tp1726
Vand
p1727
tp1728
I1
s(VXXX-CC :time-of/ADVP :time/NP :time-of/PP - '' :op2/S . ''
p1729
V:root/ROOT~and
p1730
(V:op1~say-01
p1731
tp1732
Vand
p1733
tp1734
I1
s(VXXX-CC :time/PP :domain/NP :arg2/VP .
p1735
V:root/ROOT~contrast-01
p1736
(V:arg2~seem-01
p1737
tp1738
Vcontrast-01
p1739
tp1740
I1
s(V'' XXX-CC what :op2/SQ :arg1/. ''
p1741
V:root/ROOT~and
p1742
(V:op2~do-02
p1743
tp1744
Vand
p1745
tp1746
I1
s(V:arg1/NP had XXX-VBN .
p1747
V:root/ROOT~fall-04
p1748
(V:arg1~night
p1749
tp1750
Vfall-04
p1751
tp1752
I1
s(V:manner/ADVP , :conj-as-if/PP , :arg0/NP XXX-VBD : '' :polarity/S ? ''
p1753
V:root/ROOT~demand-01
p1754
(V:arg0~he
p1755
V:arg1~eat-01
p1756
V:arg2-of~lead-up-05
p1757
V:conj-as-if~bear-02
p1758
V:manner~abrupt
p1759
V:manner~abrupt
p1760
tp1761
Vdemand-01
p1762
tp1763
I1
s(VXXX-NN :mod/NP .
p1764
V:root/ROOT~chapter
p1765
(V:mod~9
p1766
tp1767
Vchapter
p1768
tp1769
I1
s(V'' :arg1-of/WHADVP is XXX-IN :arg0/. ''
p1770
V:root/ROOT~that
p1771
(V:arg1-of~cause-01
p1772
tp1773
Vthat
p1774
tp1775
I1
s(V'' what has XXX-VBN :arg1/NP :arg2/ADVP :arg0/. ''
p1776
V:root/ROOT~bring-01
p1777
(V:arg0~amr-unknown
p1778
V:arg1~you
p1779
V:arg2~here
p1780
tp1781
Vbring-01
p1782
tp1783
I1
s(V'' XXX-IN :arg0/FW :arg1/VP . ''
p1784
V:root/ROOT~cause-01
p1785
(V:arg1~set-out-07
p1786
tp1787
Vcause-01
p1788
tp1789
I1
s(V:arg0/NP XXX-VBD :arg1/NP :direction/IN :op1/NP .
p1790
V:root/ROOT~continue-01
p1791
(V:arg0~i
p1792
V:arg1~walk-01
p1793
tp1794
Vcontinue-01
p1795
tp1796
I1
s(V:arg1/NP are :mod/ADVP :mod/ADVP XXX-VBN ... ''
p1797
V:root/ROOT~arrange-01
p1798
(V:arg1~petal
p1799
V:mod~still
p1800
V:polarity~-
p1801
tp1802
Varrange-01
p1803
tp1804
I1
s(Vit would be :arg1/PRP$ XXX-NN . ''
p1805
V:root/ROOT~fault-01
p1806
(V:arg1~i
p1807
tp1808
Vfault-01
p1809
tp1810
I1
s(V'' :arg1/ADVP , '' :arg0/NP XXX-VBD :mod/ADVP .
p1811
V:root/ROOT~say-01
p1812
(V:arg0~he
p1813
V:arg1~goodbye
p1814
V:mod~again
p1815
tp1816
Vsay-01
p1817
tp1818
I1
s(V:op1/S , XXX-CC :op2/S : '' :concession/PRN , :concession/RB if :arg1/S .
p1819
V:root/ROOT~and
p1820
(V:op1~follow-02
p1821
V:op2~answer-01
p1822
tp1823
Vand
p1824
tp1825
I1
s(V:arg0/NP XXX-VB :arg1/NP .
p1826
V:root/ROOT~have-03
p1827
(V:arg0~i
p1828
V:arg1~sheep
p1829
tp1830
Vhave-03
p1831
tp1832
I1
s(V:arg0/NP XXX-NNS :arg1/NP-TMP .
p1833
V:root/ROOT~blow-01
p1834
(V:arg0~wind
p1835
V:arg1~they
p1836
V:direction~away
p1837
tp1838
Vblow-01
p1839
tp1840
I1
s(V:arg1/NP am :degree/ADVP XXX-RB .
p1841
V:root/ROOT~awake-03
p1842
(V:arg1~i
p1843
V:degree~scarce
p1844
tp1845
Vawake-03
p1846
tp1847
I1
s(V:arg2/NP-TMP :arg1/NP XXX-VBP :op1/S :arg2/CC :op2/VP ! ''
p1848
V:root/ROOT~obligate-01
p1849
(V:arg1~i
p1850
V:arg2~and
p1851
V:frequency~rate-entity-91
p1852
V:frequency~rate-entity-91
p1853
tp1854
Vobligate-01
p1855
tp1856
I1
s(V'' :arg0/NP XXX-VBZ :arg1/NP . ''
p1857
V:root/ROOT~have-03
p1858
(V:arg0~it
p1859
V:arg1~reputation
p1860
tp1861
Vhave-03
p1862
tp1863
I1
s(V'' :arg1/INTJ , '' XXX-VBD :arg0/NP , '' :concession/CC :arg1/S .
p1864
V:root/ROOT~say-01
p1865
(V:arg0~prince
p1866
V:arg1~yes
p1867
tp1868
Vsay-01
p1869
tp1870
I1
s(V:arg1/NP XXX-VBD down .
p1871
V:root/ROOT~sit-down-02
p1872
(V:arg1~he
p1873
tp1874
Vsit-down-02
p1875
tp1876
I1
s(V'' :arg1/ADVP , '' XXX-VBD :arg0/NP .
p1877
V:root/ROOT~say-01
p1878
(V:arg0~king
p1879
V:arg1~no
p1880
tp1881
Vsay-01
p1882
tp1883
I1
s(V'' :arg0/NP XXX-VBP ... it is :degree/RB :arg1/RB .
p1884
V:root/ROOT~understand-01
p1885
(V:arg0~you
p1886
V:arg1~far
p1887
tp1888
Vunderstand-01
p1889
tp1890
I1
s(V'' :arg2/NP , '' :arg0/NP XXX-VBD to him , '' i :arg1/VP ''
p1891
V:root/ROOT~say-01
p1892
(V:arg0~he
p1893
V:arg1~beg-01
p1894
V:arg2~person
p1895
tp1896
Vsay-01
p1897
tp1898
I1
s(Vthere was :polarity/RB :mod/RB :mod/DT XXX-NN , :arg1-of/IN :arg0/FRAG .
p1899
V:root/ROOT~sound-02
p1900
(V:arg1-of~cause-01
p1901
V:mod~any
p1902
V:polarity~-
p1903
tp1904
Vsound-02
p1905
tp1906
I1
s(VXXX-NN :mod/NP .
p1907
V:root/ROOT~chapter
p1908
(V:mod~21
p1909
tp1910
Vchapter
p1911
tp1912
I1
s(V:arg0/NP XXX-MD :mod/ADVP :arg1/VP . ''
p1913
V:root/ROOT~recommend-01
p1914
(V:arg1~fill-01
p1915
tp1916
Vrecommend-01
p1917
tp1918
I1
s(VXXX-CC :arg1/NP :op1/VP .
p1919
V:root/ROOT~and
p1920
(V:op1~embarrass-01
p1921
tp1922
Vand
p1923
tp1924
I1
s(V'' XXX-CC :arg1/NP .
p1925
V:root/ROOT~contrast-01
p1926
(V:arg2~resemble-01
p1927
tp1928
Vcontrast-01
p1929
tp1930
I1
s(VXXX-CC :arg0/NP :op2/VP ...
p1931
V:root/ROOT~and
p1932
(V:op2~see-01
p1933
tp1934
Vand
p1935
tp1936
I1
s(V:arg0/LS XXX-VB :arg1/NP . ''
p1937
V:root/ROOT~have-03
p1938
(V:arg0~i
p1939
V:arg1~claw
p1940
tp1941
Vhave-03
p1942
tp1943
I1
s(VXXX-IN :mod/ADVP :arg1/NP :arg0/VP .
p1944
V:root/ROOT~cause-01
p1945
(V:arg0~mean-01
p1946
tp1947
Vcause-01
p1948
tp1949
I1
s(V:op1/S , XXX-CC :op2/S .
p1950
V:root/ROOT~and
p1951
(V:op1~appear-01
p1952
V:op2~fade-01
p1953
tp1954
Vand
p1955
tp1956
I1
s(Vand :arg0/NP XXX-VBD again :arg1/S .
p1957
V:root/ROOT~begin-01
p1958
(V:arg0~he
p1959
V:arg1~clap-01
p1960
V:mod~again
p1961
tp1962
Vbegin-01
p1963
tp1964
I1
s(V:arg0/NP have :polarity/RB been :degree/RB XXX-JJ in :arg1/WHNP :arg1-of/S .
p1965
V:root/ROOT~honest-01
p1966
(V:arg0~i
p1967
V:arg1~thing
p1968
V:degree~altogether
p1969
tp1970
Vhonest-01
p1971
tp1972
I1
s(VXXX-CC he is :polarity/RB :op1/NP - - :domain/NP :op2/VP :arg2/. ''
p1973
V:root/ROOT~contrast-01
p1974
(V:arg2~and
p1975
tp1976
Vcontrast-01
p1977
tp1978
I1
s(V:arg0/NP , :mod/ADVP , shall XXX-VB :arg1/PP .
p1979
V:root/ROOT~look-01
p1980
(V:arg0~i
p1981
V:arg1~star
p1982
tp1983
Vlook-01
p1984
tp1985
I1
s(V'' XXX-DT . ''
p1986
V:root/ROOT~no
p1987
g58
Vno
p1988
tp1989
I2
s(V:time/NP will be :poss/PRP$ XXX-NN . ''
p1990
V:root/ROOT~anniversary
p1991
(V:poss~it
p1992
V:time~tomorrow
p1993
tp1994
Vanniversary
p1995
tp1996
I1
s(VXXX-CC , :arg2/SBAR , '' :arg0/NP :polarity/ADVP :arg1/VP ! ''
p1997
V:root/ROOT~contrast-01
p1998
(V:arg2~say-01
p1999
tp2000
Vcontrast-01
p2001
tp2002
I1
s(Vso :arg1/NP :arg1-of/VBD :time/ADVP XXX-VBN :arg2/S .
p2003
V:root/ROOT~come-04
p2004
(V:arg1-of~cause-01
p2005
V:arg1~prince
p2006
V:arg2~doubt-01
p2007
V:concession~will
p2008
V:concession~will
p2009
V:time~soon
p2010
V:time~soon
p2011
tp2012
Vcome-04
p2013
tp2014
I1
s(V:instrument/PP , :arg0/NP XXX-VBP :arg1/NP - :arg1/NP . ''
p2015
V:root/ROOT~save-03
p2016
(V:arg0~you
p2017
V:arg1~rate-entity-91
p2018
V:instrument~pill
p2019
tp2020
Vsave-03
p2021
tp2022
I1
s(VXXX-CC :condition/IN :arg1-of/NP :condition/VP . ''
p2023
V:root/ROOT~and
p2024
(V:op2~order-02
p2025
tp2026
Vand
p2027
tp2028
I1
s(Vit XXX-VBD :arg2/PP :arg1/SBAR .
p2029
V:root/ROOT~seem-01
p2030
(V:arg1~carry-01
p2031
V:arg2~i
p2032
tp2033
Vseem-01
p2034
tp2035
I1
s(V:arg0/NP XXX-VBD :arg1/NP :location/PP .
p2036
V:root/ROOT~toss-01
p2037
(V:arg0~he
p2038
V:arg1~curl
p2039
V:location~breeze
p2040
tp2041
Vtoss-01
p2042
tp2043
I1
s(V'' :domain/NP is :degree/RB XXX-JJ :compared-to/PP . ''
p2044
V:root/ROOT~heavy
p2045
(V:compared-to~you
p2046
V:degree~too
p2047
V:domain~it
p2048
tp2049
Vheavy
p2050
tp2051
I1
s(V:arg0/NP XXX-VBD :arg2/PP : '' :arg1/S .
p2052
V:root/ROOT~say-01
p2053
(V:arg0~i
p2054
V:arg1~endanger-01
p2055
V:arg2~he
p2056
tp2057
Vsay-01
p2058
tp2059
I1
s(VXXX-NN :mod/NP .
p2060
V:root/ROOT~chapter
p2061
(V:mod~22
p2062
tp2063
Vchapter
p2064
tp2065
I1
s(V:arg0/NP XXX-VBD :arg1/PP
p2066
V:root/ROOT~say-01
p2067
(V:arg0~i
p2068
V:arg1~frighten-01
p2069
V:arg2~he
p2070
tp2071
Vsay-01
p2072
tp2073
I1
s(V:degree/WRB XXX-JJ :arg1/NP are ! ''
p2074
V:root/ROOT~beautiful-02
p2075
(V:arg1~you
p2076
V:degree~so
p2077
tp2078
Vbeautiful-02
p2079
tp2080
I1
s(V'' yes , :arg1/NP is XXX-JJ , ''
p2081
V:root/ROOT~true-01
p2082
(V:arg1~that
p2083
tp2084
Vtrue-01
p2085
tp2086
I1
s(V:beneficiary/PP , :arg1/NP was XXX-IN :arg2/NP .
p2087
V:root/ROOT~resemble-01
p2088
(V:arg1~it
p2089
V:arg2~spring
p2090
V:beneficiary~i
p2091
tp2092
Vresemble-01
p2093
tp2094
I1
s(V:arg0/NP XXX-VBD .
p2095
V:root/ROOT~reply-01
p2096
(V:arg0~i
p2097
tp2098
Vreply-01
p2099
tp2100
I1
s(V'' :polarity/S , '' XXX-VBD :arg0/NP .
p2101
V:root/ROOT~say-01
p2102
(V:arg0~geographer
p2103
V:arg1~record-01
p2104
tp2105
Vsay-01
p2106
tp2107
I1
s(V:time/PP :arg0/NP put :arg1/NP :time/IN :arg1-of/JJ XXX-NN .
p2108
V:root/ROOT~order-03
p2109
(V:arg0~he
p2110
V:arg1-of~perfect-02
p2111
V:arg1~planet
p2112
V:time~date-entity
p2113
V:time~date-entity
p2114
tp2115
Vorder-03
p2116
tp2117
I1
s(VXXX-RB !
p2118
V:root/ROOT~ah
p2119
g58
Vah
p2120
tp2121
I1
s(V'' it was :arg1-of/ADJP to XXX-VB .
p2122
V:root/ROOT~come-01
p2123
(V:arg1-of~wrong-02
p2124
V:arg1~you
p2125
tp2126
Vcome-01
p2127
tp2128
I1
s(V'' :arg1-of/VBN :arg1/NP XXX-VBZ :mod/ADVP :arg2/PP .
p2129
V:root/ROOT~rest-02
p2130
(V:arg1~authority
p2131
V:arg2~reason-01
p2132
V:mod~first-of-all
p2133
tp2134
Vrest-02
p2135
tp2136
I1
s(V'' XXX-VB :arg2/NP :quant/NP
p2137
V:root/ROOT~give-01
p2138
(V:arg0~you
p2139
V:arg1~thing
p2140
V:arg2~i
p2141
V:purpose~drink-01
p2142
tp2143
Vgive-01
p2144
tp2145
I1
s(V:arg0/NP XXX-VBD :arg1/NP .
p2146
V:root/ROOT~have-03
p2147
(V:arg0~he
p2148
V:arg1~air
p2149
tp2150
Vhave-03
p2151
tp2152
I1
s(V:arg0/NP has :polarity/ADVP XXX-VBN :arg1/NP .
p2153
V:root/ROOT~smell-01
p2154
(V:arg0~he
p2155
V:arg1~flower
p2156
V:polarity~-
p2157
V:time~ever
p2158
tp2159
Vsmell-01
p2160
tp2161
I1
s(VXXX-CC :arg1/NP :arg1/VP .
p2162
V:root/ROOT~have-concession-91
p2163
(V:arg1~reassure-01
p2164
tp2165
Vhave-concession-91
p2166
tp2167
I1
s(V:domain/NP is the :mod/RB XXX-CD :arg1-of/SBAR . ''
p2168
V:root/ROOT~one
p2169
(V:arg1-of~have-03
p2170
V:domain~he
p2171
V:mod~only
p2172
tp2173
Vone
p2174
tp2175
I1
s(V:arg0/NP XXX-VBD :op1/NP . ''
p2176
V:root/ROOT~have-03
p2177
(V:arg0~i
p2178
V:arg1~and
p2179
tp2180
Vhave-03
p2181
tp2182
I1
s(V'' i am :polarity/RB :arg2/NP , '' :arg0/NP XXX-VBD , :manner/ADVP .
p2183
V:root/ROOT~reply-01
p2184
(V:arg0~flower
p2185
V:arg2~weed
p2186
V:manner~sweet-03
p2187
tp2188
Vreply-01
p2189
tp2190
I1
s(V'' :arg1/S , '' :arg0/NP XXX-VBD .
p2191
V:root/ROOT~say-01
p2192
(V:arg0~fox
p2193
V:arg1~possible-01
p2194
tp2195
Vsay-01
p2196
tp2197
I1
s(VXXX-IN :mod/NP :domain/NP are :mod/ADJP :arg1/PP .
p2198
V:root/ROOT~opine-01
p2199
(V:arg0~person
p2200
V:arg1~light
p2201
tp2202
Vopine-01
p2203
tp2204
I1
s(V:arg0/NP XXX-VBP :arg1/SBAR .
p2205
V:root/ROOT~believe-01
p2206
(V:arg0~i
p2207
V:arg1~take-01
p2208
tp2209
Vbelieve-01
p2210
tp2211
I1
s(V:arg0/NP XXX-MD :arg1/S .
p2212
V:root/ROOT~recommend-01
p2213
(V:arg1~guess-01
p2214
tp2215
Vrecommend-01
p2216
tp2217
I1
s(V:op1/S ; XXX-CC :op2/S .
p2218
V:root/ROOT~and
p2219
(V:op1~possess-01
p2220
V:op2~convenient
p2221
tp2222
Vand
p2223
tp2224
I1
s(V:arg0/NP XXX-VBD :arg1/NP :arg4/PP .
p2225
V:root/ROOT~raise-01
p2226
(V:arg0~i
p2227
V:arg1~bucket
p2228
V:arg4~lip
p2229
tp2230
Vraise-01
p2231
tp2232
I1
s(V'' ' to XXX-VB :arg1/NP ? ''
p2233
V:root/ROOT~establish-01
p2234
(V:arg1~tie-01
p2235
tp2236
Vestablish-01
p2237
tp2238
I1
s(V:arg0/NP :polarity/VBD :polarity/RB XXX-VB :arg1/WHNP :arg1-of/S .
p2239
V:root/ROOT~know-01
p2240
(V:arg0~i
p2241
V:arg1~thing
p2242
V:polarity~-
p2243
V:polarity~-
p2244
tp2245
Vknow-01
p2246
tp2247
I1
s(V'' :arg1/NP XXX-VBZ , ' which :arg1-of/VP . ' ''
p2248
V:root/ROOT~mean-01
p2249
(V:arg1~it
p2250
V:arg2~thing
p2251
tp2252
Vmean-01
p2253
tp2254
I1
s(VXXX-CC , :manner/PP , :arg0/NP :op2/VP .
p2255
V:root/ROOT~and
p2256
(V:op2~look-01
p2257
tp2258
Vand
p2259
tp2260
I1
s(V'' :arg1/ADVP , '' XXX-VBD :arg0/NP .
p2261
V:root/ROOT~say-01
p2262
(V:arg0~snake
p2263
V:arg1~date-entity
p2264
tp2265
Vsay-01
p2266
tp2267
I1
s(V'' :domain/NP is :degree/RB XXX-JJ :domain/.
p2268
V:root/ROOT~funny
p2269
(V:degree~very
p2270
V:domain~that
p2271
V:domain~that
p2272
tp2273
Vfunny
p2274
tp2275
I1
s(V'' XXX-CC :domain/ADVP :arg2/VP ! ''
p2276
V:root/ROOT~contrast-01
p2277
(V:arg2~geographer
p2278
tp2279
Vcontrast-01
p2280
tp2281
I1
s(VXXX-CC :arg0/NP :op2/VP .
p2282
V:root/ROOT~and
p2283
(V:op2~need-01
p2284
tp2285
Vand
p2286
tp2287
I1
s(V'' XXX-CC :arg0/NP .
p2288
V:root/ROOT~contrast-01
p2289
(V:arg2~have-03
p2290
tp2291
Vcontrast-01
p2292
tp2293
I1
s(VXXX-CC :arg0/NP :arg1/VP !
p2294
V:root/ROOT~contrast-01
p2295
(V:arg2~possible-01
p2296
tp2297
Vcontrast-01
p2298
tp2299
I1
s(V:time/PP :arg0/NP was :arg1-of/ADJP XXX-VBG :arg1/S .
p2300
V:root/ROOT~try-01
p2301
(V:arg0~i
p2302
V:arg1~unscrew-01
p2303
V:time~moment
p2304
tp2305
Vtry-01
p2306
tp2307
I1
s(V'' :arg1/S - '' :arg0/NP XXX-VBD :arg2/PP .
p2308
V:root/ROOT~say-01
p2309
(V:arg0~prince
p2310
V:arg1~fox
p2311
V:arg2~i
p2312
tp2313
Vsay-01
p2314
tp2315
I1
s(VXXX-CC , :op1/S , :arg0/NP :op2/VP .
p2316
V:root/ROOT~and
p2317
(V:op2~sharpen-01
p2318
tp2319
Vand
p2320
tp2321
I1
s(V'' :domain/S , '' :arg0/NP XXX-VBD .
p2322
V:root/ROOT~say-01
p2323
(V:arg0~snake
p2324
V:arg1~lonely
p2325
tp2326
Vsay-01
p2327
tp2328
I1
s(VXXX-VB :direction/PRT :time/NP ... ''
p2329
V:root/ROOT~come-01
p2330
(V:arg1~you
p2331
V:direction~back
p2332
V:time~date-entity
p2333
tp2334
Vcome-01
p2335
tp2336
I1
s(V:frequency/PP :arg0/NP will XXX-VB :arg1/NP :arg3/PP .
p2337
V:root/ROOT~condemn-01
p2338
(V:arg0~you
p2339
V:arg1~he
p2340
V:arg3~die-01
p2341
V:frequency~time-to-time
p2342
tp2343
Vcondemn-01
p2344
tp2345
I1
s(V:arg1/NP was :manner/ADVP XXX-VBN :arg3/PP .
p2346
V:root/ROOT~stir-02
p2347
(V:arg1~geographer
p2348
V:arg3~excite-01
p2349
V:manner~sudden
p2350
tp2351
Vstir-02
p2352
tp2353
I1
s(VXXX-WP :mod/S :arg1-of/VP ... ''
p2354
V:root/ROOT~see-01
p2355
(V:arg1-of~possible-01
p2356
V:arg1~thing
p2357
tp2358
Vsee-01
p2359
tp2360
I1
s(V'' XXX-RB , ''
p2361
V:root/ROOT~ah
p2362
g58
Vah
p2363
tp2364
I2
s(V'' there :time/ADVP - - XXX-WDT :mod/VP ... ''
p2365
V:root/ROOT~that
p2366
(V:mod~all
p2367
V:time~now
p2368
tp2369
Vthat
p2370
tp2371
I1
s(V:arg0/NP :polarity/VBZ :polarity/RB XXX-VB :arg1/NP .
p2372
V:root/ROOT~leave-11
p2373
(V:arg0~he
p2374
V:arg1~desk
p2375
V:polarity~-
p2376
V:polarity~-
p2377
tp2378
Vleave-11
p2379
tp2380
I1
s(V:op1/S , XXX-CC :op2/S .
p2381
V:root/ROOT~and
p2382
(V:op1~fall-04
p2383
V:op2~begin-01
p2384
V:time~trudge-01
p2385
tp2386
Vand
p2387
tp2388
I1
s(V'' :arg1/S , '' :arg0/NP XXX-VBD .
p2389
V:root/ROOT~say-01
p2390
(V:arg0~he
p2391
V:arg1~resemble-01
p2392
tp2393
Vsay-01
p2394
tp2395
I1
s(V'' :arg1/S ... :op2/S .
p2396
V:root/ROOT~and
p2397
(V:op1~bad-05
p2398
V:op2~good-04
p2399
tp2400
Vand
p2401
tp2402
I1
s(V:arg1/NP was XXX-VBN :manner/IN :arg0/NP .
p2403
V:root/ROOT~astonish-01
p2404
(V:arg0~understand-01
p2405
V:arg1~i
p2406
tp2407
Vastonish-01
p2408
tp2409
I1
s(VXXX-CC :arg2-of/NP :op1/VP .
p2410
V:root/ROOT~and
p2411
(V:op1~last-01
p2412
tp2413
Vand
p2414
tp2415
I1
s(Vthe XXX-NNS . ''
p2416
V:root/ROOT~star
p2417
g58
Vstar
p2418
tp2419
I1
s(V'' :arg0/NP have :polarity/RB yet :polarity/VBN a :arg1-of/JJ XXX-NN :arg1/PP .
p2420
V:root/ROOT~tour-01
p2421
(V:arg0~i
p2422
V:arg1-of~complete-02
p2423
V:arg1~kingdom
p2424
V:polarity~-
p2425
V:polarity~-
p2426
tp2427
Vtour-01
p2428
tp2429
I1
s(V:arg1/CC :arg1-of/IN :arg0/S , :arg0/NP XXX-VBD :mod/RP :arg1/NP :arg0/NP :op1/VP ... :op2/S
p2430
V:root/ROOT~pluck-01
p2431
(V:arg0-of~cause-01
p2432
V:arg0~he
p2433
V:arg1-of~cause-01
p2434
V:arg1~courage
p2435
V:mod~up
p2436
tp2437
Vpluck-01
p2438
tp2439
I1
s(V:poss/IN :topic/NP , :arg0/NP XXX-VBD :arg1/NP .
p2440
V:root/ROOT~have-03
p2441
(V:arg0~prince
p2442
V:arg1~idea
p2443
tp2444
Vhave-03
p2445
tp2446
I1
s(VXXX-CC :arg0/NP :op2/VP .
p2447
V:root/ROOT~and
p2448
(V:op2~use-01
p2449
tp2450
Vand
p2451
tp2452
I1
s(V:arg0/NP am XXX-JJ :arg2/PP .
p2453
V:root/ROOT~responsible-03
p2454
(V:arg0~i
p2455
V:arg2~she
p2456
tp2457
Vresponsible-03
p2458
tp2459
I1
s(V:op1/S ; XXX-CC :op2/S .
p2460
V:root/ROOT~and
p2461
(V:op1~remember-01
p2462
V:op2~want-01
p2463
tp2464
Vand
p2465
tp2466
I1
s(V:domain/NP is :degree/RB XXX-JJ :domain/.
p2467
V:root/ROOT~naive
p2468
(V:degree~so
p2469
V:domain~she
p2470
V:domain~she
p2471
tp2472
Vnaive
p2473
tp2474
I1
s(V:arg1/NP is XXX-IN :arg2/NP .
p2475
V:root/ROOT~resemble-01
p2476
(V:arg1~it
p2477
V:arg2~that
p2478
tp2479
Vresemble-01
p2480
tp2481
I1
s(V'' :arg1/S , '' XXX-VBD :arg1/NP .
p2482
V:root/ROOT~say-01
p2483
(V:arg0~person
p2484
V:arg1~lucky
p2485
tp2486
Vsay-01
p2487
tp2488
I1
s(V:arg0/NP :polarity/VBP :polarity/RB XXX-VB myself :arg2/PP .
p2489
V:root/ROOT~amuse-01
p2490
(V:arg0~i
p2491
V:arg1~coref
p2492
V:arg2~balderdash
p2493
V:polarity~-
p2494
V:polarity~-
p2495
tp2496
Vamuse-01
p2497
tp2498
I1
s(V:arg0/NP XXX-VBD .
p2499
V:root/ROOT~yawn-01
p2500
(V:arg0~prince
p2501
tp2502
Vyawn-01
p2503
tp2504
I1
s(V'' XXX-CC :arg1/NP :op2/VP , :arg2/NP :op2/VP ''
p2505
V:root/ROOT~contrast-01
p2506
(V:arg2~and
p2507
tp2508
Vcontrast-01
p2509
tp2510
I1
s(V:arg1/PP , i am XXX-VBN :arg0/PP .
p2511
V:root/ROOT~concern-01
p2512
(V:arg0~matter
p2513
V:arg1~i
p2514
tp2515
Vconcern-01
p2516
tp2517
I1
s(V:arg0/S XXX-VBD :arg1/NP ?
p2518
V:root/ROOT~eat-01
p2519
(V:arg0~sheep
p2520
V:arg1~flower
p2521
tp2522
Veat-01
p2523
tp2524
I1
s(V'' :arg0/NP XXX-VB :arg1/NP .
p2525
V:root/ROOT~follow-02
p2526
(V:arg0~i
p2527
V:arg1~profession
p2528
tp2529
Vfollow-02
p2530
tp2531
I1
s(Vfor what :arg0/NP :mod/ADVP XXX-VBD upon was :arg1/SBAR .
p2532
V:root/ROOT~insist-01
p2533
(V:arg0~king
p2534
V:arg1~respect-01
p2535
V:mod~fundamental
p2536
tp2537
Vinsist-01
p2538
tp2539
I1
s(V'' :domain/NP is the :mod/ADJP XXX-NN :compared-to/PP .
p2540
V:root/ROOT~thing
p2541
(V:domain~that
p2542
V:mod~difficult
p2543
tp2544
Vthing
p2545
tp2546
I1
s(V'' no , XXX-DT no :quant/.
p2547
V:root/ROOT~no
p2548
(V:quant~3
p2549
tp2550
Vno
p2551
tp2552
I1
s(VXXX-CC :arg1/NP :op2/VP .
p2553
V:root/ROOT~and
p2554
(V:op2~true-01
p2555
tp2556
Vand
p2557
tp2558
I1
s(V:domain/NP were the :quant/CD XXX-NNS , :arg1-of/SBAR .
p2559
V:root/ROOT~volcano
p2560
(V:arg1-of~come-04
p2561
V:domain~mountain
p2562
V:quant~3
p2563
tp2564
Vvolcano
p2565
tp2566
I1
s(V:arg0/LS XXX-VBD :arg2/PP :arg1/VP ... ''
p2567
V:root/ROOT~say-01
p2568
(V:arg0~i
p2569
V:arg1~fear-01
p2570
V:arg2~he
p2571
tp2572
Vsay-01
p2573
tp2574
I1
s(V'' :arg1/S , '' XXX-VBD :arg0/NP .
p2575
V:root/ROOT~say-01
p2576
(V:arg0~prince
p2577
V:arg1~hurry-01
p2578
tp2579
Vsay-01
p2580
tp2581
I1
s(VXXX-CC , :condition/SBAR :op2/VP .
p2582
V:root/ROOT~and
p2583
(V:op2~hurry-01
p2584
tp2585
Vand
p2586
tp2587
I1
s(Vand :condition/IN :op2/NP - who will :condition/VB XXX-IN :arg1/NP :arg0/.
p2588
V:root/ROOT~call-on-05
p2589
(V:arg0~amr-unknown
p2590
V:arg1~i
p2591
V:condition~call-on-05
p2592
V:condition~call-on-05
p2593
tp2594
Vcall-on-05
p2595
tp2596
I1
s(V:arg0-of/S , :arg2/CC :op2/S . ''
p2597
V:root/ROOT~obligate-01
p2598
(V:arg2~and
p2599
tp2600
Vobligate-01
p2601
tp2602
I1
s(V:arg0/NP XXX-VBD :mod/ADVP .
p2603
V:root/ROOT~laugh-01
p2604
(V:arg0~he
p2605
V:mod~again
p2606
tp2607
Vlaugh-01
p2608
tp2609
I1
s(V'' a XXX-NN ! ''
p2610
V:root/ROOT~mushroom
p2611
g58
Vmushroom
p2612
tp2613
I1
s(V'' :arg1/ADVP , '' :arg0/NP XXX-VBD :arg2/PP .
p2614
V:root/ROOT~say-01
p2615
(V:arg0~he
p2616
V:arg1~goodbye
p2617
V:arg2~flower
p2618
tp2619
Vsay-01
p2620
tp2621
I1
s(VXXX-CC :arg0/NP :arg2/VP .
p2622
V:root/ROOT~contrast-01
p2623
(V:arg2~know-01
p2624
tp2625
Vcontrast-01
p2626
tp2627
I2
s(VXXX-NN :mod/NP .
p2628
V:root/ROOT~chapter
p2629
(V:mod~15
p2630
tp2631
Vchapter
p2632
tp2633
I1
s(V'' :arg0/NP , '' XXX-VBD :domain/NP , '' are :arg1/NP , :arg1-of/IN :arg2/NP , are :degree/RBS :arg0-of/VBN :arg0-of/IN :arg1/NP .
p2634
V:root/ROOT~say-01
p2635
(V:arg0~geographer
p2636
V:arg1~book
p2637
tp2638
Vsay-01
p2639
tp2640
I1
s(V:location/IN :quant/NP :arg0/NP shall be XXX-VBG .
p2641
V:root/ROOT~laugh-01
p2642
(V:arg0~i
p2643
V:location~star
p2644
V:location~star
p2645
tp2646
Vlaugh-01
p2647
tp2648
I1
s(V:arg0/NP XXX-VBP :arg1/PP . ''
p2649
V:root/ROOT~write-01
p2650
(V:arg0~we
p2651
V:arg1~thing
p2652
tp2653
Vwrite-01
p2654
tp2655
I1
s(V:op1/INTJ , :op2/VP XXX-.
p2656
V:root/ROOT~and
p2657
(V:op1~oh
p2658
V:op2~look-01
p2659
tp2660
Vand
p2661
tp2662
I1
s(V'' :arg1/S , '' XXX-VBD :arg0/NP .
p2663
V:root/ROOT~say-01
p2664
(V:arg0~fox
p2665
V:arg1~fox
p2666
tp2667
Vsay-01
p2668
tp2669
I1
s(V:arg0/NP made a XXX-NN :arg1/PP .
p2670
V:root/ROOT~gesture-01
p2671
(V:arg0~i
p2672
V:arg1~weary-01
p2673
tp2674
Vgesture-01
p2675
tp2676
I1
s(V'' :arg0/NP shall :arg1/VB :arg2/NP , '' :arg0/NP XXX-VBN .
p2677
V:root/ROOT~answer-01
p2678
(V:arg0~king
p2679
V:arg2~have-condition-91
p2680
tp2681
Vanswer-01
p2682
tp2683
I1
s(V'' what is it that :arg0/NP are XXX-VBG for :arg1/. ''
p2684
V:root/ROOT~look-01
p2685
(V:arg0~you
p2686
V:arg1~amr-unknown
p2687
tp2688
Vlook-01
p2689
tp2690
I1
s(V'' :op1/S , '' :arg0/NP XXX-VBD to himself , '' :condition/SBAR .
p2691
V:root/ROOT~say-01
p2692
(V:arg0~he
p2693
V:arg1~and
p2694
V:arg2~coref
p2695
tp2696
Vsay-01
p2697
tp2698
I1
s(V'' good morning - :arg1-of/ADJP :arg1/NP-TMP , '' XXX-VBD :arg0/SBAR .
p2699
V:root/ROOT~answer-01
p2700
(V:arg0~echo-01
p2701
V:arg1~morning
p2702
tp2703
Vanswer-01
p2704
tp2705
I1
s(V:arg0/NP XXX-JJ :quant/CD :arg1/NNS , :arg0/SBAR :frequency/IN :arg3/NP -lrb- :arg3/SBAR ; :arg0/NP :polarity/ADVP :arg0/VP -rrb- .
p2706
V:root/ROOT~own-01
p2707
(V:arg0~i
p2708
V:arg1~volcano
p2709
tp2710
Vown-01
p2711
tp2712
I1
s(V:arg4/NP-TMP :arg0/NP XXX-VBP :arg2/PP .
p2713
V:root/ROOT~dance-01
p2714
(V:arg0~they
p2715
V:arg2~girl
p2716
V:frequency~rate-entity-91
p2717
tp2718
Vdance-01
p2719
tp2720
I1
s(V'' :mod/JJ XXX-NN , ''
p2721
V:root/ROOT~man
p2722
(V:mod~little
p2723
tp2724
Vman
p2725
tp2726
I2
s(V:arg0/NP XXX-MD :arg1/VP
p2727
V:root/ROOT~possible-01
p2728
(V:arg1~bite-01
p2729
tp2730
Vpossible-01
p2731
tp2732
I1
s(VXXX-CC :arg1/NP :op2/VP .
p2733
V:root/ROOT~and
p2734
(V:op2~overcome-01
p2735
tp2736
Vand
p2737
tp2738
I1
s(V:polarity/S ... XXX-CC :time/ADVP :time/NP-TMP :arg0/NP .
p2739
V:root/ROOT~and
p2740
(V:op1~body
p2741
V:op2~love-01
p2742
tp2743
Vand
p2744
tp2745
I1
s(VXXX-CC :mod/PP :domain/NP :arg2/VP .
p2746
V:root/ROOT~contrast-01
p2747
(V:arg2~important
p2748
tp2749
Vcontrast-01
p2750
tp2751
I1
s(V'' :domain/NP is the XXX-NN !
p2752
V:root/ROOT~tragedy
p2753
(V:domain~that
p2754
tp2755
Vtragedy
p2756
tp2757
I1
s(V'' :arg0/NP XXX-VBP :arg2/NP - - it is :mod/ADVP :arg0/PP .
p2758
V:root/ROOT~tell-01
p2759
(V:arg0~i
p2760
V:arg1~cause-01
p2761
V:arg2~you
p2762
tp2763
Vtell-01
p2764
tp2765
I1
s(Vit was :time/ADVP that :arg1/NP XXX-VBD .
p2766
V:root/ROOT~appear-01
p2767
(V:arg1~fox
p2768
V:time~then
p2769
tp2770
Vappear-01
p2771
tp2772
I1
s(VXXX-CC :domain/NP is :polarity/RB :arg2/ADJP .
p2773
V:root/ROOT~contrast-01
p2774
(V:arg2~absurd
p2775
tp2776
Vcontrast-01
p2777
tp2778
I1
s(VXXX-CC :arg1/NP :op2/VP !
p2779
V:root/ROOT~and
p2780
(V:op2~weak-02
p2781
tp2782
Vand
p2783
tp2784
I1
s(V'' i have :polarity/NP :arg1/ADJP , '' :arg0/NP XXX-VBD :arg1/TO :arg2/NP .
p2785
V:root/ROOT~say-01
p2786
(V:arg0~he
p2787
V:arg1~remain-01
p2788
V:arg2~king
p2789
tp2790
Vsay-01
p2791
tp2792
I1
s(VXXX-CC :condition/SBAR , :arg0/NP :arg2/VP ...
p2793
V:root/ROOT~contrast-01
p2794
(V:arg2~know-01
p2795
tp2796
Vcontrast-01
p2797
tp2798
I1
s(V'' :arg1/S , '' XXX-VBD :arg0-of/NP .
p2799
V:root/ROOT~reply-01
p2800
(V:arg0~person
p2801
V:arg2~cause-01
p2802
tp2803
Vreply-01
p2804
tp2805
I1
s(V'' is :domain/IN XXX-DT that :arg1-of/VP ? ''
p2806
V:root/ROOT~all
p2807
(V:arg1-of~need-01
p2808
V:domain~that
p2809
tp2810
Vall
p2811
tp2812
I1
s(VXXX-CC :domain/NP :arg2/VP ''
p2813
V:root/ROOT~contrast-01
p2814
(V:arg2~young
p2815
tp2816
Vcontrast-01
p2817
tp2818
I1
s(V'' XXX-UH ! ''
p2819
V:root/ROOT~oh
p2820
g58
Voh
p2821
tp2822
I2
s(V:arg0/NP XXX-MD :arg1/VP ...
p2823
V:root/ROOT~possible-01
p2824
(V:arg1~say-01
p2825
tp2826
Vpossible-01
p2827
tp2828
I1
s(V:arg0/NP shall XXX-VB :arg2/NP .
p2829
V:root/ROOT~command-02
p2830
(V:arg0~i
p2831
V:arg2~it
p2832
tp2833
Vcommand-02
p2834
tp2835
I1
s(V:time/ADVP :arg0/NP XXX-VBD , :mod/ADVP : '' :arg1/S ...
p2836
V:root/ROOT~say-01
p2837
(V:arg0~he
p2838
V:arg1~flower
p2839
V:mod~again
p2840
V:time~then
p2841
tp2842
Vsay-01
p2843
tp2844
I1
s(V:mod/INTJ , XXX-DT .
p2845
V:root/ROOT~no
p2846
(V:mod~oh
p2847
tp2848
Vno
p2849
tp2850
I2
s(VXXX-CC :arg0/NP :op2/VP .
p2851
V:root/ROOT~and
p2852
(V:op2~give-01
p2853
tp2854
Vand
p2855
tp2856
I1
s(V'' what does that XXX-NN - :arg1/VP :arg2/. ''
p2857
V:root/ROOT~mean-01
p2858
(V:arg1~ephemeral
p2859
V:arg2~amr-unknown
p2860
tp2861
Vmean-01
p2862
tp2863
I2
s(V'' :time/RB :arg0/PRP XXX-MD :arg1/VP - - ''
p2864
V:root/ROOT~possible-01
p2865
(V:arg1~go-02
p2866
V:time~now
p2867
tp2868
Vpossible-01
p2869
tp2870
I1
s(VXXX-CC :arg1/NP :arg2/VP .
p2871
V:root/ROOT~contrast-01
p2872
(V:arg2~come-01
p2873
tp2874
Vcontrast-01
p2875
tp2876
I1
s(VXXX-CC :arg0/NP :arg2/VP : '' you know , :arg1/S .
p2877
V:root/ROOT~contrast-01
p2878
(V:arg2~effort-01
p2879
tp2880
Vcontrast-01
p2881
tp2882
I1
s(V:arg0/NP XXX-VBD :arg1/NP .
p2883
V:root/ROOT~clap-01
p2884
(V:arg0~prince
p2885
V:arg1~hand
p2886
tp2887
Vclap-01
p2888
tp2889
I1
s(V'' :arg1/S , '' :arg0/NP XXX-VBD :arg2/PP .
p2890
V:root/ROOT~say-01
p2891
(V:arg0~gentleman
p2892
V:arg1~geographer
p2893
V:arg2~he
p2894
tp2895
Vsay-01
p2896
tp2897
I1
s(VXXX-CC :location/NP was :op1/NP :location/ADVP , :arg2/CC :arg1/S ...
p2898
V:root/ROOT~contrast-01
p2899
(V:arg2~and
p2900
tp2901
Vcontrast-01
p2902
tp2903
I1
s(V:domain/NP was :arg0-of/NP who XXX-VBD :arg1/NP .
p2904
V:root/ROOT~sell-01
p2905
(V:arg0~person
p2906
V:arg1~pill
p2907
tp2908
Vsell-01
p2909
tp2910
I1
s(V:arg0/NP had XXX-VB :arg1/NP :arg1/VP .
p2911
V:root/ROOT~let-01
p2912
(V:arg0~i
p2913
V:arg1~drop-01
p2914
tp2915
Vlet-01
p2916
tp2917
I1
s(Vthere is :polarity/NN XXX-JJ :polarity/IN :arg0/NP ... ''
p2918
V:root/ROOT~sad-02
p2919
(V:arg0~shell
p2920
V:polarity~-
p2921
V:polarity~-
p2922
tp2923
Vsad-02
p2924
tp2925
I1
s(V:arg1/NP :polarity/VBZ :polarity/RB XXX-VB . ''
p2926
V:root/ROOT~change-01
p2927
(V:arg1~it
p2928
V:polarity~-
p2929
V:polarity~-
p2930
tp2931
Vchange-01
p2932
tp2933
I1
s(VXXX-TO :arg0/NP , :domain/NP :arg1/VP .
p2934
V:root/ROOT~opine-01
p2935
(V:arg0~i
p2936
V:arg1~unique
p2937
tp2938
Vopine-01
p2939
tp2940
I1
s(VXXX-CC :arg0/NP :polarity/VP .
p2941
V:root/ROOT~contrast-01
p2942
(V:arg2~answer-01
p2943
tp2944
Vcontrast-01
p2945
tp2946
I1
s(V'' :domain/NP :op1/VP , XXX-CC :op2/VP , '' :domain/NP :mod/VP ''
p2947
V:root/ROOT~and
p2948
(V:op1~remark-01
p2949
V:op2~add-01
p2950
tp2951
Vand
p2952
tp2953
I1
s(V'' i am :polarity/RB :degree/ADVP :arg1/ADJP , '' :arg0/NP XXX-VBD on , '' :arg1/CC :arg2/S .
p2954
V:root/ROOT~go-on-25
p2955
(V:arg0~she
p2956
V:arg1~contrast-01
p2957
tp2958
Vgo-on-25
p2959
tp2960
I1
s(V'' if i ordered a general , '' :arg0/NP would XXX-VB , :condition-of/PP , '' :arg1/SBAR , and :condition-of/S .
p2961
V:root/ROOT~say-01
p2962
(V:arg0-of~exemplify-01
p2963
V:arg0-of~exemplify-01
p2964
V:arg0~he
p2965
V:arg1~order-01
p2966
tp2967
Vsay-01
p2968
tp2969
I1
s(V:arg1/NP is :polarity/PRT XXX-JJ :arg2/SBAR ''
p2970
V:root/ROOT~worth-02
p2971
(V:arg1~it
p2972
V:arg2~trouble-01
p2973
V:polarity~-
p2974
tp2975
Vworth-02
p2976
tp2977
I1
s(V'' :arg1/S , '' XXX-VBD :arg0/NP .
p2978
V:root/ROOT~say-01
p2979
(V:arg0~fox
p2980
V:arg1~neglect-01
p2981
tp2982
Vsay-01
p2983
tp2984
I1
s(Vthat is to XXX-VB - - :polarity/NP .
p2985
V:root/ROOT~say-01
p2986
(V:arg1~entire
p2987
tp2988
Vsay-01
p2989
tp2990
I1
s(V:arg1/S , XXX-CC :arg2/S .
p2991
V:root/ROOT~contrast-01
p2992
(V:arg1~same-01
p2993
V:arg2~draw-01
p2994
tp2995
Vcontrast-01
p2996
tp2997
I1
s(VXXX-CC :arg0/NP :op2/VP .
p2998
V:root/ROOT~and
p2999
(V:op2~feel-02
p3000
tp3001
Vand
p3002
tp3003
I1
s(V'' :arg0/NP have XXX-NNS :arg1-of/SBAR , ''
p3004
V:root/ROOT~plan-01
p3005
(V:arg0~you
p3006
V:arg1~thing
p3007
tp3008
Vplan-01
p3009
tp3010
I1
s(VXXX-CC :op1/S : '' :domain/S .
p3011
V:root/ROOT~and
p3012
(V:op1~answer-01
p3013
tp3014
Vand
p3015
tp3016
I1
s(V'' :arg1/S , '' XXX-VBD :arg0/NP .
p3017
V:root/ROOT~say-01
p3018
(V:arg0~geographer
p3019
V:arg1~know-01
p3020
tp3021
Vsay-01
p3022
tp3023
I1
s(V:location/ADVP , :arg0-of/S , was one of :arg2-of/DT :arg1-of/JJ XXX-NNS :arg1-of/WHNP :arg2-of/S .
p3024
V:root/ROOT~snake
p3025
(V:arg0-of~face-01
p3026
V:arg1-of~yellow-02
p3027
V:arg1-of~yellow-02
p3028
V:arg2-of~take-10
p3029
V:arg2-of~take-10
p3030
V:location~before
p3031
V:location~before
p3032
tp3033
Vsnake
p3034
tp3035
I1
s(VXXX-RB , :arg0/NP :mod/ADVP :arg1/VP .
p3036
V:root/ROOT~have-concession-91
p3037
(V:arg1~have-03
p3038
tp3039
Vhave-concession-91
p3040
tp3041
I1
s(VXXX-IN :arg0/S .
p3042
V:root/ROOT~cause-01
p3043
(V:arg0~rose
p3044
tp3045
Vcause-01
p3046
tp3047
I1
s(VXXX-CC :arg1/NP was :polarity/RB :arg2/IN :arg0/S .
p3048
V:root/ROOT~contrast-01
p3049
(V:arg2~cause-01
p3050
tp3051
Vcontrast-01
p3052
tp3053
I1
s(V'' :domain/S , '' :arg0/NP XXX-VBD , '' :arg0/NP :arg0/VP . ''
p3054
V:root/ROOT~say-01
p3055
(V:arg0~he
p3056
V:arg1~all-right
p3057
tp3058
Vsay-01
p3059
tp3060
I1
s(V'' XXX-UH !
p3061
V:root/ROOT~oh
p3062
g58
Voh
p3063
tp3064
I1
s(VXXX-CC :arg0/NP :arg2/VP .
p3065
V:root/ROOT~contrast-01
p3066
(V:arg2~cast-01
p3067
tp3068
Vcontrast-01
p3069
tp3070
I1
s(V'' :arg2/S , '' :arg0/NP XXX-VBD :arg1/S .
p3071
V:root/ROOT~hasten-01
p3072
(V:arg0~king
p3073
V:arg1~assure-01
p3074
tp3075
Vhasten-01
p3076
tp3077
I1
s(Vthere is :polarity/DT XXX-NN :poss/PP :beneficiary/PP ''
p3078
V:root/ROOT~room
p3079
(V:beneficiary~person
p3080
V:polarity~-
p3081
V:poss~it
p3082
tp3083
Vroom
p3084
tp3085
I1
s(V'' what does that XXX-NN - :arg1/VP :arg2/. ''
p3086
V:root/ROOT~mean-01
p3087
(V:arg1~tame-01
p3088
V:arg2~amr-unknown
p3089
tp3090
Vmean-01
p3091
tp3092
I1
s(V:arg1/NP would be XXX-VBN :arg1-of/IN :arg2/NP .
p3093
V:root/ROOT~regulate-01
p3094
(V:arg1~move-01
p3095
tp3096
Vregulate-01
p3097
tp3098
I1
s(V:arg1/NP XXX-VBZ :arg2/NP , here :location/SBAR ! ''
p3099
V:root/ROOT~last-01
p3100
(V:arg1~temporal-quantity
p3101
V:arg2~temporal-quantity
p3102
V:location~live-01
p3103
V:mod~only
p3104
tp3105
Vlast-01
p3106
tp3107
I1
s(V:arg0/NP XXX-VBD :arg1/NP :arg1-of/S ...
p3108
V:root/ROOT~feel-01
p3109
(V:arg0~i
p3110
V:arg1~heart
p3111
tp3112
Vfeel-01
p3113
tp3114
I1
s(V'' :location/IN :quant/CD of :arg0/NP XXX-MD :arg1-of/VP .
p3115
V:root/ROOT~live-01
p3116
(V:arg0~i
p3117
V:location~star
p3118
tp3119
Vlive-01
p3120
tp3121
I1
s(V'' :op1/S , '' :arg0/NP XXX-VBD :arg2-of/PP , '' :arg1/CC :op2/S .
p3122
V:root/ROOT~say-01
p3123
(V:arg0~prince
p3124
V:arg1~and
p3125
V:arg2~coref
p3126
tp3127
Vsay-01
p3128
tp3129
I1
s(V:arg0/NP was XXX-JJ , there :mod/VP .
p3130
V:root/ROOT~fear-01
p3131
(V:arg0~he
p3132
V:mod~certain
p3133
tp3134
Vfear-01
p3135
tp3136
I1
s(V:arg0/NP XXX-VBD :arg1/NP :manner/PP .
p3137
V:root/ROOT~choose-01
p3138
(V:arg0~she
p3139
V:arg1~color
p3140
V:manner~care-04
p3141
tp3142
Vchoose-01
p3143
tp3144
I1
s(V'' :arg1/S - - :arg0/S , '' :arg0/NP XXX-VBD .
p3145
V:root/ROOT~say-01
p3146
(V:arg0~snake
p3147
V:arg1~pity-01
p3148
tp3149
Vsay-01
p3150
tp3151
I1
s(Vis :arg0/NP :polarity/RB of :arg1/NP :compared-to/IN XXX-DT :arg1-of/JJ :arg1-of/NN - :part/VBN :compared-to/NP ?
p3152
V:root/ROOT~have-03
p3153
(V:arg0~this
p3154
V:arg1~consequence
p3155
V:polarity~-
p3156
tp3157
Vhave-03
p3158
tp3159
I1
s(V:arg0/NP XXX-VBD .
p3160
V:root/ROOT~smile-01
p3161
(V:arg0~prince
p3162
tp3163
Vsmile-01
p3164
tp3165
I1
s(V'' :arg0/NP XXX-MD :polarity/RB :arg1/VP .
p3166
V:root/ROOT~possible-01
p3167
(V:arg1~help-02
p3168
V:polarity~-
p3169
tp3170
Vpossible-01
p3171
tp3172
I1
s(V:arg1/NP XXX-VBD :manner/S : '' :arg0/S ? ''
p3173
V:root/ROOT~come-01
p3174
(V:arg1~word-01
p3175
V:arg4~memory
p3176
V:arg4~memory
p3177
V:manner~reel-03
p3178
tp3179
Vcome-01
p3180
tp3181
I1
s(V'' :arg1-of/ADVP , '' :arg0/NP XXX-VBD :manner/ADVP .
p3182
V:root/ROOT~say-01
p3183
(V:arg0~he
p3184
V:arg1~morning
p3185
V:manner~courtesy
p3186
tp3187
Vsay-01
p3188
tp3189
I1
s(V'' :arg0/NP , '' XXX-VBD :arg0/NP :manner/NP , :arg1/PP :polarity/VP :polarity/RB :arg1-of/S .
p3190
V:root/ROOT~say-01
p3191
(V:arg0~prince
p3192
V:arg1~have-concession-91
p3193
tp3194
Vsay-01
p3195
tp3196
I1
s(VXXX-IN :arg0/NP , :domain/NP :arg1/VP .
p3197
V:root/ROOT~opine-01
p3198
(V:arg0~scholar
p3199
V:arg1~problem
p3200
tp3201
Vopine-01
p3202
tp3203
I1
s(V:arg1/NP XXX-VBD :frequency/RB :mod/RBR .
p3204
V:root/ROOT~flush-03
p3205
(V:arg1~prince
p3206
V:mod~again
p3207
tp3208
Vflush-03
p3209
tp3210
I1
s(V'' :arg2/S , '' XXX-VBD :arg0/NP , :manner/ADVP , :time/SBAR :frequency/RB :mod/RBR .
p3211
V:root/ROOT~say-01
p3212
(V:arg0~prince
p3213
V:arg1~obligate-01
p3214
V:manner~soft
p3215
V:time~sit-down-02
p3216
tp3217
Vsay-01
p3218
tp3219
I1
s(V:arg0/NP :arg1-of/VBD XXX-VBN :arg1/NP :arg1-of/SBAR .
p3220
V:root/ROOT~loosen-01
p3221
(V:arg0~i
p3222
V:arg1~muffler
p3223
tp3224
Vloosen-01
p3225
tp3226
I1
s(V:arg0/S , :arg1-of/S , XXX-NN :arg2/PP .
p3227
V:root/ROOT~trust-01
p3228
(V:arg0~you
p3229
V:arg1-of~know-01
p3230
V:arg2~i
p3231
tp3232
Vtrust-01
p3233
tp3234
I1
s(VXXX-CC :arg0/NP :arg2/VP .
p3235
V:root/ROOT~contrast-01
p3236
(V:arg2~have-03
p3237
tp3238
Vcontrast-01
p3239
tp3240
I1
s(V:arg0/NP shall XXX-VB :time/NP .
p3241
V:root/ROOT~feel-01
p3242
(V:arg0~i
p3243
V:arg1~and
p3244
V:time~advance-01
p3245
tp3246
Vfeel-01
p3247
tp3248
I1
s(V'' :arg1/S , '' XXX-VBD :arg0/NP .
p3249
V:root/ROOT~say-01
p3250
(V:arg0~prince
p3251
V:arg1~true-01
p3252
tp3253
Vsay-01
p3254
tp3255
I1
s(V'' what do :arg0/NP XXX-VBP :arg3/PP :arg1/. ''
p3256
V:root/ROOT~do-02
p3257
(V:arg0~i
p3258
V:arg1~amr-unknown
p3259
V:arg3~they
p3260
tp3261
Vdo-02
p3262
tp3263
I1
s(VXXX-CC you , :arg0/PP , :op2/VP .
p3264
V:root/ROOT~and
p3265
(V:op2~need-01
p3266
tp3267
Vand
p3268
tp3269
I1
s(V:op1/S , XXX-CC :op2/S ... ''
p3270
V:root/ROOT~or
p3271
(V:op1~forget-01
p3272
V:op2~escape-01
p3273
V:time~date-entity
p3274
V:time~date-entity
p3275
tp3276
Vor
p3277
tp3278
I1
s(Vwhat :arg0/NP :polarity/VBD :polarity/RB XXX-VB :arg2/NP was :frequency/SBAR :arg3/NP !
p3279
V:root/ROOT~dare-01
p3280
(V:arg0~prince
p3281
V:arg2~confess-01
p3282
V:polarity~-
p3283
V:polarity~-
p3284
tp3285
Vdare-01
p3286
tp3287
I1
s(Vi am XXX-VBN :arg0/PP : :op2/S . ''
p3288
V:root/ROOT~and
p3289
(V:op1~concern-01
p3290
V:op2~accurate
p3291
tp3292
Vand
p3293
tp3294
I1
s(Vit XXX-VBD :arg2/PP , :mod/ADVP , that there was :arg1/ADJP :location/PP .
p3295
V:root/ROOT~seem-01
p3296
(V:arg1~fragile
p3297
V:arg2~i
p3298
V:mod~even
p3299
tp3300
Vseem-01
p3301
tp3302
I1
s(V:arg0/LS XXX-VB :arg1/SBAR ? ''
p3303
V:root/ROOT~suppose-01
p3304
(V:arg0~i
p3305
V:arg1~have-03
p3306
tp3307
Vsuppose-01
p3308
tp3309
I1
s(V:arg0/NP , :arg1-of/S , will :polarity/RB XXX-VB :arg1/NP :time/SBAR .
p3310
V:root/ROOT~believe-01
p3311
(V:arg0~grown-up
p3312
V:arg1-of~sure-02
p3313
V:arg1~you
p3314
V:polarity~-
p3315
V:time~tell-01
p3316
tp3317
Vbelieve-01
p3318
tp3319
I1
s(Vthere was a XXX-NN :arg2/PP .
p3320
V:root/ROOT~moment
p3321
(V:arg1-of~compose-01
p3322
tp3323
Vmoment
p3324
tp3325
I1
s(VXXX-CC :arg0/NP :op2/VP .
p3326
V:root/ROOT~and
p3327
(V:op2~have-03
p3328
tp3329
Vand
p3330
tp3331
I2
s(V:arg0/NP XXX-VBP :manner/S .
p3332
V:root/ROOT~send-03
p3333
(V:arg0~step-01
p3334
V:arg1~i
p3335
V:arg4~underneath
p3336
V:arg5~back
p3337
V:manner~hurry-01
p3338
tp3339
Vsend-03
p3340
tp3341
I1
s(V:domain/NP is :degree/RB :degree/RBR XXX-JJ :domain/S .
p3342
V:root/ROOT~difficult
p3343
(V:compared-to~judge-01
p3344
V:degree~more
p3345
V:domain~judge-01
p3346
V:domain~judge-01
p3347
tp3348
Vdifficult
p3349
tp3350
I1
s(VXXX-CC :mod/NP :op2/VP .
p3351
V:root/ROOT~and
p3352
(V:op2~shake-01
p3353
tp3354
Vand
p3355
tp3356
I1
s(V:domain/NP am :degree/RB XXX-JJ .
p3357
V:root/ROOT~old
p3358
(V:degree~very
p3359
V:domain~i
p3360
tp3361
Vold
p3362
tp3363
I1
s(V'' :arg2/CC :arg1/NP :arg0/NP XXX-JJ .
p3364
V:root/ROOT~interrupt-01
p3365
(V:arg0~prince
p3366
V:arg2~contrast-01
p3367
tp3368
Vinterrupt-01
p3369
tp3370
I1
s(V'' it is the XXX-NN :arg1-of/SBAR . ''
p3371
V:root/ROOT~time
p3372
(V:arg0-of~make-02
p3373
V:arg1-of~waste-01
p3374
tp3375
Vtime
p3376
tp3377
I1
s(V'' :arg1/ADVP , :mod/ADVP , '' :arg0/NP XXX-VBD .
p3378
V:root/ROOT~say-01
p3379
(V:arg0~king
p3380
V:arg1~ah
p3381
tp3382
Vsay-01
p3383
tp3384
I1
s(V'' :domain/NP is :degree/RB XXX-JJ .
p3385
V:root/ROOT~poetry
p3386
(V:degree~rather
p3387
V:domain~it
p3388
tp3389
Vpoetry
p3390
tp3391
I1
s(V'' :domain/NP is :polarity/RB :arg1/ADJP :degree/ADVP :arg0-of/. '' XXX-VBD :arg1/NP .
p3392
V:root/MULTI-SENTENCE~say-01
p3393
(V:arg0~person
p3394
V:arg1~funny
p3395
tp3396
Vsay-01
p3397
tp3398
I1
s(V:arg1/NP had taken XXX-RB :arg2/NP , and :arg0-of/S .
p3399
V:root/ROOT~serious-01
p3400
(V:arg0-of~make-02
p3401
V:arg0-of~make-02
p3402
V:arg1~he
p3403
V:arg2~word-01
p3404
tp3405
Vserious-01
p3406
tp3407
I1
s(V:location/PP , :arg2/PP , there was XXX-NN :mod/PP ...
p3408
V:root/ROOT~nobody
p3409
(V:location~side
p3410
V:mod~at-all
p3411
tp3412
Vnobody
p3413
tp3414
I1
s(V'' :arg1/S , '' XXX-VBD :arg0/NP .
p3415
V:root/ROOT~say-01
p3416
(V:arg0~prince
p3417
V:arg1~thirst-01
p3418
tp3419
Vsay-01
p3420
tp3421
I1
s(V'' :domain/NP is an XXX-NN . ''
p3422
V:root/ROOT~exchange-01
p3423
(V:domain~it
p3424
tp3425
Vexchange-01
p3426
tp3427
I1
s(V:time/NP that would XXX-VB :arg1/NP ; then :poss/NP ; :arg0-of/NP ; :location/NP .
p3428
V:root/ROOT~come-03
p3429
(V:arg1~turn
p3430
tp3431
Vcome-03
p3432
tp3433
I1
s(VXXX-NNS - - they :mod/VP .
p3434
V:root/ROOT~snake
p3435
(V:mod~creature
p3436
tp3437
Vsnake
p3438
tp3439
I1
s(V'' :arg0/NP has :polarity/DT XXX-NN :arg1/PP , ''
p3440
V:root/ROOT~possible-01
p3441
(V:arg1~guess-01
p3442
V:polarity~-
p3443
tp3444
Vpossible-01
p3445
tp3446
I1
s(V'' :arg1/S , '' :arg0/NP XXX-VBD , '' :arg0/SBAR . ''
p3447
V:root/ROOT~say-01
p3448
(V:arg0~he
p3449
V:arg1~glad-02
p3450
tp3451
Vsay-01
p3452
tp3453
I1
s(V:op1/VB XXX-TO be :arg1/ADJP ... :domain/S .
p3454
V:root/ROOT~and
p3455
(V:op1~try-01
p3456
V:op2~leave-14
p3457
tp3458
Vand
p3459
tp3460
I1
s(VXXX-NN :mod/NP .
p3461
V:root/ROOT~chapter
p3462
(V:mod~23
p3463
tp3464
Vchapter
p3465
tp3466
I1
s(V:frequency/RB :mod/RB :arg0/NP XXX-VBD :arg1/SBAR .
p3467
V:root/ROOT~feel-01
p3468
(V:arg0~i
p3469
V:arg1~freeze-01
p3470
V:mod~again
p3471
tp3472
Vfeel-01
p3473
tp3474
I1
s(V:arg1/JJ XXX-NNS are :arg1-of/IN :arg2/NP .
p3475
V:root/ROOT~erupt-01
p3476
(V:arg1-of~resemble-01
p3477
V:arg1~volcano
p3478
tp3479
Verupt-01
p3480
tp3481
I1
s(V:arg0/NP XXX-VBP :arg1/NP .
p3482
V:root/ROOT~have-03
p3483
(V:arg0~i
p3484
V:arg1~volcano
p3485
tp3486
Vhave-03
p3487
tp3488
I1
s(V'' :domain/PP is the XXX-NN .
p3489
V:root/ROOT~mountain
p3490
(V:domain~thing
p3491
tp3492
Vmountain
p3493
tp3494
I1
s(Vin the XXX-NN :arg1/NP :arg3-of/VP - - ''
p3495
V:root/ROOT~location
p3496
(V:arg3-of~come-01
p3497
tp3498
Vlocation
p3499
tp3500
I1
s(V'' XXX-CC :arg2/NP ''
p3501
V:root/ROOT~contrast-01
p3502
(V:arg2~wind
p3503
tp3504
Vcontrast-01
p3505
tp3506
I1
s(V'' :arg1/S , '' XXX-VBD :arg0/NP .
p3507
V:root/ROOT~say-01
p3508
(V:arg0~fox
p3509
V:arg1~act-02
p3510
tp3511
Vsay-01
p3512
tp3513
I1
s(V'' :polarity/S , they :arg2/VBP XXX-RP .
p3514
V:root/ROOT~contrast-01
p3515
(V:arg1~own-01
p3516
V:arg2~reign-01
p3517
tp3518
Vcontrast-01
p3519
tp3520
I1
s(Vare :arg1/NP :mod/ADVP :arg2/NP ?
p3521
V:root/ROOT~be-located-at-91
p3522
(V:arg1~you
p3523
V:arg2~there
p3524
V:mod~still
p3525
tp3526
Vbe-located-at-91
p3527
tp3528
I1
s(V'' :arg1/NP is :op1/ADJP , XXX-CC :op2/VP , and :op1/ADJP :op3/CC :op2/ADJP .
p3529
V:root/ROOT~and
p3530
(V:op1~dry-08
p3531
V:op2~pointed
p3532
V:op3~and
p3533
tp3534
Vand
p3535
tp3536
I1
s(V:condition/SBAR , :polite/VB XXX-NN :arg1/NP .
p3537
V:root/ROOT~comfort-01
p3538
(V:arg0~you
p3539
V:arg1~i
p3540
V:condition~this
p3541
V:polite~+
p3542
tp3543
Vcomfort-01
p3544
tp3545
I1
s(V:arg1/NP XXX-MD be :arg2/PP - - about - - :op1/SBAR .
p3546
V:root/ROOT~be-temporally-at-91
p3547
(V:arg1~that
p3548
V:arg2~about
p3549
tp3550
Vbe-temporally-at-91
p3551
tp3552
I1
s(V:arg1/NP took one XXX-NN .
p3553
V:root/ROOT~step-01
p3554
(V:arg1~he
p3555
tp3556
Vstep-01
p3557
tp3558
I1
s(VXXX-CD - :arg2/S .
p3559
V:root/ROOT~equal-01
p3560
(V:arg1~sum-of
p3561
V:arg2~28
p3562
tp3563
Vequal-01
p3564
tp3565
I1
s(VXXX-CC so :arg1/NP will be :op2/IN if :time/S ! ''
p3566
V:root/ROOT~and
p3567
(V:op2~resemble-01
p3568
tp3569
Vand
p3570
tp3571
I1
s(V'' :quant/NP :mod/ADVP :arg0/NP XXX-NN :time/PP :arg1/VP . ''
p3572
V:root/ROOT~love-01
p3573
(V:arg0~i
p3574
V:arg1~sleep-01
p3575
V:time~live-01
p3576
tp3577
Vlove-01
p3578
tp3579
I1
s(V'' and :arg0/NP XXX-VB :arg1/NP ? ''
p3580
V:root/ROOT~obey-01
p3581
(V:arg0~star
p3582
V:arg1~you
p3583
tp3584
Vobey-01
p3585
tp3586
I1
s(VXXX-CC :op2/S : '' i am :arg2/ADJP , :mod/ADVP .
p3587
V:root/ROOT~contrast-01
p3588
(V:arg2~and
p3589
tp3590
Vcontrast-01
p3591
tp3592
I1
s(VXXX-CC :arg2/VP .
p3593
V:root/ROOT~contrast-01
p3594
(V:arg2~waste-01
p3595
tp3596
Vcontrast-01
p3597
tp3598
I1
s(VXXX-NN :mod/NP .
p3599
V:root/ROOT~chapter
p3600
(V:mod~24
p3601
tp3602
Vchapter
p3603
tp3604
I1
s(V'' :arg1/S - '' XXX-VBD :arg0/NP , :purpose/RB :arg1-of/SBAR .
p3605
V:root/ROOT~say-01
p3606
(V:arg0~prince
p3607
V:arg1~time
p3608
V:purpose~remember-01
p3609
V:purpose~remember-01
p3610
tp3611
Vsay-01
p3612
tp3613
I1
s(V:arg1/NP was XXX-VBN :arg0/PP .
p3614
V:root/ROOT~surprise-01
p3615
(V:arg0~absent-01
p3616
V:arg1~he
p3617
tp3618
Vsurprise-01
p3619
tp3620
I1
s(V:arg1/NP was :degree/IN XXX-JJ :compared-to/IN :arg1-of/NP .
p3621
V:root/ROOT~sweet-04
p3622
(V:arg1~it
p3623
V:compared-to~food-dish
p3624
V:degree~equal
p3625
tp3626
Vsweet-04
p3627
tp3628
I1
s(V'' :arg1/S , '' XXX-VBD :arg0/NP .
p3629
V:root/ROOT~say-01
p3630
(V:arg0~prince
p3631
V:arg1~have-03
p3632
tp3633
Vsay-01
p3634
tp3635
I1
s(V:arg0/NP XXX-JJ :mod/NP :arg1/NP .
p3636
V:root/ROOT~perfume-01
p3637
(V:arg0~thing
p3638
V:arg1~planet
p3639
tp3640
Vperfume-01
p3641
tp3642
I1
s(V'' :arg0/NP XXX-NN :arg1/NP :arg2/PP .
p3643
V:root/ROOT~order-01
p3644
(V:arg0~i
p3645
V:arg1~you
p3646
V:arg2~yawn-01
p3647
tp3648
Vorder-01
p3649
tp3650
I1
s(V:arg0/NP , XXX-RB , :arg2/VP
p3651
V:root/ROOT~contrast-01
p3652
(V:arg2~reply-01
p3653
tp3654
Vcontrast-01
p3655
tp3656
I1
s(V:arg1/NP XXX-VBZ :arg2/S . ''
p3657
V:root/ROOT~mean-01
p3658
(V:arg1~it
p3659
V:arg2~establish-01
p3660
tp3661
Vmean-01
p3662
tp3663
I1
s(V:arg0/NP :polarity/VBP :polarity/RB XXX-VB :arg1/NP . ''
p3664
V:root/ROOT~permit-01
p3665
(V:arg0~i
p3666
V:arg1~insubordinate-00
p3667
V:polarity~-
p3668
V:polarity~-
p3669
tp3670
Vpermit-01
p3671
tp3672
I1
s(V'' the planet earth , '' XXX-VBD :arg0/NP .
p3673
V:root/ROOT~reply-01
p3674
(V:arg0~geographer
p3675
V:arg2~planet/name
p3676
tp3677
Vreply-01
p3678
tp3679
I1
s(VXXX-VB :duration/PP , :manner/ADVP :location/IN :op1/NP .
p3680
V:root/ROOT~wait-01
p3681
(V:arg1~you
p3682
V:duration~time
p3683
V:location~under
p3684
tp3685
Vwait-01
p3686
tp3687
I1
s(VXXX-NN :mod/ADVP !
p3688
V:root/ROOT~yawn-01
p3689
(V:arg0~you
p3690
V:mod~again
p3691
tp3692
Vyawn-01
p3693
tp3694
I1
s(V'' XXX-CC :time/ADVP :op1/VP . ''
p3695
V:root/ROOT~and
p3696
(V:op1~secret
p3697
tp3698
Vand
p3699
tp3700
I1
s(V'' :condition/SBAR , '' :arg0/NP XXX-VBD , '' i :op2/VP .
p3701
V:root/ROOT~say-01
p3702
(V:arg0~he
p3703
V:arg1~possible-01
p3704
tp3705
Vsay-01
p3706
tp3707
I1
s(V'' :mod/IN :arg1/NP , '' XXX-VBD :arg0/NP :domain/PP , :time/SBAR .
p3708
V:root/ROOT~say-01
p3709
(V:arg0~prince
p3710
V:arg1~scorn-01
p3711
V:arg2~coref
p3712
V:time~continue-01
p3713
tp3714
Vsay-01
p3715
tp3716
I1
s(VXXX-PRP :location/VP ... ''
p3717
V:root/ROOT~you
p3718
(V:location~there
p3719
tp3720
Vyou
p3721
tp3722
I1
s(V:time/SBAR , :arg0/NP XXX-VBZ :op2/NP :arg2/S .
p3723
V:root/ROOT~send-02
p3724
(V:arg0~he
p3725
V:arg1~or
p3726
V:arg2~sleep-01
p3727
V:time~put-out-09
p3728
tp3729
Vsend-02
p3730
tp3731
I1
s(V'' and XXX-RB :arg1/NP :arg1/VP . ''
p3732
V:root/ROOT~contrast-01
p3733
(V:arg2~possible-01
p3734
tp3735
Vcontrast-01
p3736
tp3737
I1
s(V'' XXX-IN :op1/NP ? ''
p3738
V:root/ROOT~over
p3739
(V:op1~everything
p3740
tp3741
Vover
p3742
tp3743
I1
s(V'' :arg1-of/ADVP , '' XXX-VBD :arg0/NP .
p3744
V:root/ROOT~say-01
p3745
(V:arg0~prince
p3746
V:arg1~morning
p3747
tp3748
Vsay-01
p3749
tp3750
I4
s(V'' :mod/DT :arg0/NN , '' :arg0/NP XXX-VBD :arg2/SBAR ''
p3751
V:root/ROOT~say-01
p3752
(V:arg0~prince
p3753
V:arg1~reason-01
p3754
V:arg2~coref
p3755
tp3756
Vsay-01
p3757
tp3758
I1
s(VXXX-CC :arg0/NP :arg2/VP .
p3759
V:root/ROOT~contrast-01
p3760
(V:arg2~require-01
p3761
tp3762
Vcontrast-01
p3763
tp3764
I1
s(V:arg1-of/ADVP , :arg0/NP XXX-VBD :arg1/NP .
p3765
V:root/ROOT~tend-01
p3766
(V:arg0~he
p3767
V:arg1-of~cause-01
p3768
V:arg1~flower
p3769
tp3770
Vtend-01
p3771
tp3772
I1
s(V:mod/NP was XXX-IN :arg1/NP .
p3773
V:root/ROOT~resemble-01
p3774
(V:arg1~well
p3775
V:arg2~well
p3776
tp3777
Vresemble-01
p3778
tp3779
I1
s(VXXX-VB :arg2/NP :arg1/NP :arg1/SBAR .
p3780
V:root/ROOT~send-01
p3781
(V:arg0~you
p3782
V:arg1~word-01
p3783
V:arg2~i
p3784
tp3785
Vsend-01
p3786
tp3787
I1
s(V:arg0/NP is a XXX-NN , :arg0-of/PP , :arg0-of/PP .
p3788
V:root/ROOT~rite
p3789
(V:arg0-of~exemplify-01
p3790
V:arg1-of~have-03
p3791
tp3792
Vrite
p3793
tp3794
I1
s(V:arg1/S ; XXX-CC you :arg2/VP ... ''
p3795
V:root/ROOT~contrast-01
p3796
(V:arg1~wish-01
p3797
V:arg2~want-01
p3798
tp3799
Vcontrast-01
p3800
tp3801
I1
s(V:arg1/NP XXX-VBD :arg2/NP :arg1-of/ADJP , :arg1/NP :arg1-of/VP .
p3802
V:root/ROOT~stand-01
p3803
(V:arg1~he
p3804
V:arg2~there
p3805
tp3806
Vstand-01
p3807
tp3808
I1
s(V'' XXX-CC :domain/ADVP :op2/VP ? ''
p3809
V:root/ROOT~and
p3810
(V:op2~all
p3811
tp3812
Vand
p3813
tp3814
I1
s(V'' :arg0/NP XXX-VBP :arg1/S . ''
p3815
V:root/ROOT~want-01
p3816
(V:arg0~i
p3817
V:arg1~get-05
p3818
tp3819
Vwant-01
p3820
tp3821
I1
s(V'' :arg1/S , '' XXX-VBD :arg0/NP .
p3822
V:root/ROOT~say-01
p3823
(V:arg0~fox
p3824
V:arg1~so
p3825
tp3826
Vsay-01
p3827
tp3828
I2
s(V'' :arg2/NP , XXX-CC :op2/NP ? ''
p3829
V:root/ROOT~or
p3830
(V:op1~person/have-org-role-91
p3831
V:op2~i
p3832
tp3833
Vor
p3834
tp3835
I1
s(V:op1/S , XXX-CC :op2/S .
p3836
V:root/ROOT~and
p3837
(V:op1~remain-01
p3838
V:op2~yawn-01
p3839
tp3840
Vand
p3841
tp3842
I1
s(V:arg0/NP XXX-VBP :arg2/SBAR .
p3843
V:root/ROOT~beg-01
p3844
(V:arg0~i
p3845
V:arg1~you
p3846
V:arg2~excuse-01
p3847
tp3848
Vbeg-01
p3849
tp3850
I1
s(V:domain/NP would be XXX-JJ .
p3851
V:root/ROOT~magnificent
p3852
(V:domain~it
p3853
tp3854
Vmagnificent
p3855
tp3856
I1
s(V:arg0/NP XXX-VBD :arg1/NP .
p3857
V:root/ROOT~raise-01
p3858
(V:arg0~businessman
p3859
V:arg1~head
p3860
tp3861
Vraise-01
p3862
tp3863
I1
s(V:arg0/NP :polarity/VBD :polarity/RB XXX-VB .
p3864
V:root/ROOT~answer-01
p3865
(V:arg0~i
p3866
V:polarity~-
p3867
V:polarity~-
p3868
tp3869
Vanswer-01
p3870
tp3871
I1
s(V:arg0/NP XXX-VBP :polarity/RB :mod/ADVP :arg1/NP .
p3872
V:root/ROOT~have-03
p3873
(V:arg0~you
p3874
V:arg1~foot
p3875
V:mod~even
p3876
V:polarity~-
p3877
tp3878
Vhave-03
p3879
tp3880
I1
s(VXXX-IN :arg1/NP :poss/NP :arg1/VP .
p3881
V:root/ROOT~resemble-01
p3882
(V:arg1~color
p3883
V:arg2~color
p3884
V:time~rise-01
p3885
tp3886
Vresemble-01
p3887
tp3888
I1
s(V'' what are :arg0/NP XXX-VBG :arg1/. ''
p3889
V:root/ROOT~do-02
p3890
(V:arg0~you
p3891
V:arg1~amr-unknown
p3892
tp3893
Vdo-02
p3894
tp3895
I1
s(V:condition/SBAR , they would XXX-VB up :arg0-of/PP .
p3896
V:root/ROOT~rise-up-03
p3897
(V:arg0~person
p3898
V:arg1~coref
p3899
V:condition~order-01
p3900
tp3901
Vrise-up-03
p3902
tp3903
I1
s(Vover what XXX-MD :arg0/NP :arg1/VP :arg1/.
p3904
V:root/ROOT~possible-01
p3905
(V:arg1~rule-03
p3906
tp3907
Vpossible-01
p3908
tp3909
I1
s(V:arg1/NP :degree/ADVP XXX-VBD :arg1-of/PRT , :arg1-of/SBAR .
p3910
V:root/ROOT~sit-down-02
p3911
(V:arg1-of~cause-01
p3912
V:arg1-of~cause-01
p3913
V:arg1~i
p3914
tp3915
Vsit-down-02
p3916
tp3917
I1
s(V'' :arg1/ADVP , '' XXX-VBD :arg0/NP .
p3918
V:root/ROOT~say-01
p3919
(V:arg0~fox
p3920
V:arg1~goodbye
p3921
tp3922
Vsay-01
p3923
tp3924
I1
s(V:arg0/NP am XXX-JJ :arg1/PP ''
p3925
V:root/ROOT~responsible-03
p3926
(V:arg0~i
p3927
V:arg1~flower
p3928
tp3929
Vresponsible-03
p3930
tp3931
I1
s(V'' :arg0/NP XXX-VBP :arg1/NP ? ''
p3932
V:root/ROOT~own-01
p3933
(V:arg0~you
p3934
V:arg1~star
p3935
tp3936
Vown-01
p3937
tp3938
I1
s(VXXX-CC is it :polarity/RB :op1/DT matter :arg1/PP :arg0/S ?
p3939
V:root/ROOT~and
p3940
(V:op1~have-03
p3941
tp3942
Vand
p3943
tp3944
I1
s(V:domain/NP am :domain/DT XXX-NN . ''
p3945
V:root/ROOT~flower
p3946
(V:domain~i
p3947
V:domain~i
p3948
tp3949
Vflower
p3950
tp3951
I1
s(VXXX-CC :domain/NP :arg2/VP . ''
p3952
V:root/ROOT~contrast-01
p3953
(V:arg2~consequence
p3954
tp3955
Vcontrast-01
p3956
tp3957
I1
s(VXXX-NN :mod/NP .
p3958
V:root/ROOT~chapter
p3959
(V:mod~17
p3960
tp3961
Vchapter
p3962
tp3963
I1
s(Vthere are :polarity/DT XXX-NNS :location/PP .
p3964
V:root/ROOT~person
p3965
(V:location~desert
p3966
V:polarity~-
p3967
tp3968
Vperson
p3969
tp3970
I1
s(V'' :op1/NP XXX-VBD :arg0/NP , '' :degree/NP is :polarity/RB :op2/ADJP .
p3971
V:root/ROOT~say-01
p3972
(V:arg0~prince
p3973
V:arg1~and
p3974
tp3975
Vsay-01
p3976
tp3977
I1
s(VXXX-IN :arg1-of/S was :arg1/IN :arg2/NP .
p3978
V:root/ROOT~cause-01
p3979
(V:arg0~and
p3980
V:arg1~resemble-01
p3981
tp3982
Vcause-01
p3983
tp3984
I1
s(V:arg0/NP made :arg1/NP :degree/NP XXX-JJ .
p3985
V:root/ROOT~shame-01
p3986
(V:arg0~that
p3987
V:arg1~i
p3988
V:degree~little
p3989
tp3990
Vshame-01
p3991
tp3992
I1
s(Vthe :mod/JJ :arg0/NN XXX-MD :arg1/VP - :arg2/CC :op2/ADJP - - she was :degree/.
p3993
V:root/ROOT~possible-01
p3994
(V:arg1~guess-01
p3995
tp3996
Vpossible-01
p3997
tp3998
I1
s(V:arg0/NP XXX-VBP :arg1/NP :time/ADJP :arg1-of/S .
p3999
V:root/ROOT~buy-01
p4000
(V:arg0~they
p4001
V:arg1~thing
p4002
V:location~shop
p4003
tp4004
Vbuy-01
p4005
tp4006
I1
s(V:op2/NP XXX-VBP :arg2/NP - two .
p4007
V:root/ROOT~equal-01
p4008
(V:arg1~sum-of
p4009
V:arg2~22
p4010
tp4011
Vequal-01
p4012
tp4013
I1
s(V:arg0/NP :polarity/VBP :polarity/RB :degree/VB :degree/RB XXX-NN .
p4014
V:root/ROOT~exercise-02
p4015
(V:arg0~i
p4016
V:degree~enough
p4017
V:degree~enough
p4018
tp4019
Vexercise-02
p4020
tp4021
I1
s(V'' :arg0/NP XXX-VB :arg5/PRT :arg1/NP . ''
p4022
V:root/ROOT~send-03
p4023
(V:arg0~i
p4024
V:arg1~train
p4025
V:arg5~and
p4026
V:arg5~and
p4027
tp4028
Vsend-03
p4029
tp4030
I1
s(V:op1/S , XXX-CC :op2/S .
p4031
V:root/ROOT~and
p4032
(V:op1~look-01
p4033
V:op2~say-01
p4034
tp4035
Vand
p4036
tp4037
I1
s(VXXX-CC :arg0/NP :arg2/VP .
p4038
V:root/ROOT~contrast-01
p4039
(V:arg2~see-01
p4040
tp4041
Vcontrast-01
p4042
tp4043
I1
s(V:condition/SBAR , it is :arg1-of/JJ to XXX-VB :time/IN :arg1/NP .
p4044
V:root/ROOT~look-01
p4045
(V:arg1-of~sweet-04
p4046
V:arg1~sky
p4047
V:condition~love-01
p4048
tp4049
Vlook-01
p4050
tp4051
I1
s(V:arg0/NP XXX-MD :manner/ADVP :op2/VP .
p4052
V:root/ROOT~recommend-01
p4053
(V:arg1~and
p4054
tp4055
Vrecommend-01
p4056
tp4057
I1
s(V'' :condition/IN :arg1/S , '' :arg0/NP XXX-VBD , '' he :arg1/VP .
p4058
V:root/ROOT~say-01
p4059
(V:arg0~he
p4060
V:arg1~possible-01
p4061
tp4062
Vsay-01
p4063
tp4064
I1
s(V:arg1/NP was XXX-DT :mod/JJ :arg2/NN !
p4065
V:root/ROOT~resemble-01
p4066
(V:arg1~she
p4067
V:arg2~creature
p4068
tp4069
Vresemble-01
p4070
tp4071
I1
s(V'' :arg0/NP :op1/VP , XXX-CC :op2/S ... ''
p4072
V:root/ROOT~and
p4073
(V:op1~wake-01
p4074
V:op2~sing-01
p4075
tp4076
Vand
p4077
tp4078
I1
s(V'' :purpose/S , '' XXX-VBD :arg0/NP a king :arg2/IN :arg1/NP .
p4079
V:root/ROOT~say-01
p4080
(V:arg0~king
p4081
V:arg1~approach-01
p4082
tp4083
Vsay-01
p4084
tp4085
I1
s(V:arg0/NP XXX-VBD :op2/NP .
p4086
V:root/ROOT~feel-01
p4087
(V:arg0~i
p4088
V:arg1~and
p4089
tp4090
Vfeel-01
p4091
tp4092
I1
s(V:op1/S , XXX-CC :op2/S ... ''
p4093
V:root/ROOT~and
p4094
(V:op1~come-01
p4095
V:op2~sleep-01
p4096
tp4097
Vand
p4098
tp4099
I1
s(V'' XXX-CC :arg2/NP ''
p4100
V:root/ROOT~contrast-01
p4101
(V:arg2~animal
p4102
tp4103
Vcontrast-01
p4104
tp4105
I1
s(VXXX-CC :domain/NP :op2/VP .
p4106
V:root/ROOT~and
p4107
(V:op2~silent
p4108
tp4109
Vand
p4110
tp4111
I2
s(V'' :manner/NP :part-of/PP , '' :arg0/NP :time/ADVP XXX-VBD :arg1/NP .
p4112
V:root/ROOT~direct-01
p4113
(V:arg0~man
p4114
V:arg1~he
p4115
V:arg2~clap-01
p4116
V:time~now
p4117
tp4118
Vdirect-01
p4119
tp4120
I1
s(Vbut :arg0/NP , :arg0-of/S , had :polarity/DT XXX-NN :arg1/S .
p4121
V:root/ROOT~wish-01
p4122
(V:arg0~prince
p4123
V:arg1~grieve-01
p4124
V:polarity~-
p4125
V:polarity~-
p4126
tp4127
Vwish-01
p4128
tp4129
I1
s(V:degree/NP is :degree/RB :arg1-of/RB :arg1-of/IN :arg0/NP XXX-VBZ :arg2-of/NP .
p4130
V:root/ROOT~change-01
p4131
(V:arg0~mountain
p4132
V:arg1-of~rare-02
p4133
V:arg1-of~rare-02
p4134
V:arg1~location
p4135
tp4136
Vchange-01
p4137
tp4138
I1
s(Vit XXX-VBZ :arg2/PP
p4139
V:root/ROOT~seem-01
p4140
(V:arg1~favorable
p4141
V:arg2~i
p4142
tp4143
Vseem-01
p4144
tp4145
I1
s(V:arg1/NP were :mod/RB XXX-JJ :arg0/S .
p4146
V:root/ROOT~content-01
p4147
(V:arg0~see-01
p4148
V:arg1~companion
p4149
V:mod~well
p4150
tp4151
Vcontent-01
p4152
tp4153
I1
s(V'' :op1/NP , :op3/PP - - :arg1-of/WHNP XXX-VBZ them :arg1/NP :arg0/VP :polarity/. ''
p4154
V:root/ROOT~give-01
p4155
(V:arg0~something
p4156
V:arg1~beautiful-02
p4157
V:arg2~and
p4158
tp4159
Vgive-01
p4160
tp4161
I1
s(V'' XXX-CC :op2/VP ? ''
p4162
V:root/ROOT~and
p4163
(V:op2~change-01
p4164
tp4165
Vand
p4166
tp4167
I1
s(V:time/SBAR , :arg0/NP :op1/VP XXX-CC :op2/VP .
p4168
V:root/ROOT~and
p4169
(V:op1~take-01
p4170
V:op2~set-out-07
p4171
V:time~drop-off-03
p4172
tp4173
Vand
p4174
tp4175
I1
s(VXXX-CC :arg2/S : '' at :mod/S , :arg1/CC :mod/S !
p4176
V:root/ROOT~contrast-01
p4177
(V:arg2~say-01
p4178
tp4179
Vcontrast-01
p4180
tp4181
I1
s(V:degree/NP is :degree/RB XXX-JJ :location/SBAR .
p4182
V:root/ROOT~cold-01
p4183
(V:degree~very
p4184
V:degree~very
p4185
V:location~live-01
p4186
tp4187
Vcold-01
p4188
tp4189
I1
s(V:arg0/NP XXX-VBD :mod/PP .
p4190
V:root/ROOT~stare-01
p4191
(V:arg0~he
p4192
V:arg1~i
p4193
tp4194
Vstare-01
p4195
tp4196
I1
s(VXXX-CC :arg0/NP :arg2/VP , and :arg1/S . ''
p4197
V:root/ROOT~contrast-01
p4198
(V:arg2~make-01
p4199
tp4200
Vcontrast-01
p4201
tp4202
I1
s(V:arg0/NP XXX-VBD , '' :arg1/S that it is :mod/ADVP :arg1/NP - - :arg2/NP-TMP :op3/NP ... ''
p4203
V:root/ROOT~say-01
p4204
(V:arg0~i
p4205
V:arg1~tell-01
p4206
tp4207
Vsay-01
p4208
tp4209
I1
s(V'' XXX-CC :domain/NP .
p4210
V:root/ROOT~contrast-01
p4211
(V:arg2~person
p4212
tp4213
Vcontrast-01
p4214
tp4215
I1
s(V:arg1/NP is :degree/ADJP , XXX-IN :arg2/NP .
p4216
V:root/ROOT~resemble-01
p4217
(V:arg1~it
p4218
V:arg2~that
p4219
tp4220
Vresemble-01
p4221
tp4222
I1
s(V'' :op2/WHADVP :arg1/SQ :arg2/. '' :arg0/NP :op1/VBD XXX-RP :arg1/NP :mod/ADVP .
p4223
V:root/MULTI-SENTENCE~and
p4224
(V:op1~take-up-31
p4225
V:op2~be-located-at-91
p4226
tp4227
Vand
p4228
tp4229
I1
s(V'' :arg1/S , :arg1/CC :arg2/S , '' :arg0/NP XXX-VBD on .
p4230
V:root/ROOT~go-on-25
p4231
(V:arg0~he
p4232
V:arg1~contrast-01
p4233
tp4234
Vgo-on-25
p4235
tp4236
I1
s(V'' :arg1/NP is :mod/RB XXX-IN :arg2/S .
p4237
V:root/ROOT~resemble-01
p4238
(V:arg1~it
p4239
V:arg2~water
p4240
V:mod~just
p4241
tp4242
Vresemble-01
p4243
tp4244
I1
s(VXXX-CC , :arg0/PP , :arg1/NP :arg2/VP . ''
p4245
V:root/ROOT~contrast-01
p4246
(V:arg2~wait-01
p4247
tp4248
Vcontrast-01
p4249
tp4250
I1
s(V:arg0/NP XXX-VBD :arg1/PP :arg1-of/PP .
p4251
V:root/ROOT~gaze-01
p4252
(V:arg0~prince
p4253
V:arg1-of~long-03
p4254
V:arg1~he
p4255
tp4256
Vgaze-01
p4257
tp4258
I1
s(V'' :arg1/S , '' :arg0/NP XXX-VBD .
p4259
V:root/ROOT~say-01
p4260
(V:arg0~switchman
p4261
V:arg1~lucky
p4262
tp4263
Vsay-01
p4264
tp4265
I1
s(V'' XXX-VB :arg1/NP
p4266
V:root/ROOT~leave-02
p4267
(V:arg0~you
p4268
V:arg1~it
p4269
V:arg2~i
p4270
tp4271
Vleave-02
p4272
tp4273
I1
s(V:arg0/NP :polarity/VBD :polarity/DT XXX-NN .
p4274
V:root/ROOT~reply-01
p4275
(V:arg0~prince
p4276
V:polarity~-
p4277
V:polarity~-
p4278
tp4279
Vreply-01
p4280
tp4281
I1
s(V:arg0/NP XXX-VBD :conj-as-if/NP ...
p4282
V:root/ROOT~feel-01
p4283
(V:arg0~i
p4284
V:arg1~need-01
p4285
tp4286
Vfeel-01
p4287
tp4288
I1
s(V'' :arg1/S , '' XXX-VBD :arg0/NP .
p4289
V:root/ROOT~say-01
p4290
(V:arg0~geographer
p4291
V:arg1~possible-01
p4292
tp4293
Vsay-01
p4294
tp4295
I2
s(V:arg1/NP was :mod/ADVP XXX-VBG :purpose/S .
p4296
V:root/ROOT~come-01
p4297
(V:arg1~i
p4298
V:mod~just
p4299
V:purpose~tell-01
p4300
tp4301
Vcome-01
p4302
tp4303
I1
s(VXXX-IN :op1/NP , :op2/NP , :poss/NP , the earth , there :arg1/VP .
p4304
V:root/ROOT~be-located-at-91
p4305
(V:arg1~prince
p4306
V:arg2~and
p4307
tp4308
Vbe-located-at-91
p4309
tp4310
I1
s(V'' XXX-CC :arg0/NP :arg2/VP - - ''
p4311
V:root/ROOT~contrast-01
p4312
(V:arg2~see-01
p4313
tp4314
Vcontrast-01
p4315
tp4316
I1
s(VXXX-CC :arg0/NP :op2/VP .
p4317
V:root/ROOT~and
p4318
(V:op2~understand-01
p4319
tp4320
Vand
p4321
tp4322
I1
s(V:arg0/NP XXX-MD :op1/S .
p4323
V:root/ROOT~recommend-01
p4324
(V:arg1~and
p4325
tp4326
Vrecommend-01
p4327
tp4328
I1
s(V:polarity/VBP :polarity/RB :arg0/NP XXX-VBP - - :arg1/S :arg0-of/. ''
p4329
V:root/ROOT~see-01
p4330
(V:arg0~you
p4331
V:arg1~busy-01
p4332
V:polarity~-
p4333
V:polarity~-
p4334
tp4335
Vsee-01
p4336
tp4337
I1
s(V:condition/IN :manner/S , :arg1-of/IN :arg2/S , they XXX-MD :arg1-of/ADVP :arg1/VP .
p4338
V:root/ROOT~possible-01
p4339
(V:arg1~put-01
p4340
V:condition~stand-01
p4341
V:condition~stand-01
p4342
tp4343
Vpossible-01
p4344
tp4345
I1
s(VXXX-PRP :arg1/VP .
p4346
V:root/ROOT~pass-03
p4347
(V:arg1~year
p4348
V:time~since
p4349
tp4350
Vpass-03
p4351
tp4352
I1
s(V:arg1/S , XXX-CC :arg1/S .
p4353
V:root/ROOT~and
p4354
(V:op1~hear-01
p4355
V:op2~possible-01
p4356
tp4357
Vand
p4358
tp4359
I1
s(V'' :arg1/IN :arg1/S XXX-VBD :arg0-of/NP .
p4360
V:root/ROOT~say-01
p4361
(V:arg0~person
p4362
V:arg1~cause-01
p4363
tp4364
Vsay-01
p4365
tp4366
I1
s(V'' :arg1/ADVP , '' XXX-VBD :arg0/NP .
p4367
V:root/ROOT~say-01
p4368
(V:arg0~prince
p4369
V:arg1~no
p4370
tp4371
Vsay-01
p4372
tp4373
I1
s(VXXX-CC :arg1/NP :op2/VP .
p4374
V:root/ROOT~and
p4375
(V:op2~flush-03
p4376
tp4377
Vand
p4378
tp4379
I1
s(VXXX-NN :arg2/SBAR ... ''
p4380
V:root/ROOT~order-01
p4381
(V:arg0~you
p4382
V:arg1~sun
p4383
V:arg2~set-11
p4384
tp4385
Vorder-01
p4386
tp4387
I1
s(V'' :arg2/S , '' :arg0/NP XXX-VBD .
p4388
V:root/ROOT~reply-01
p4389
(V:arg0~prince
p4390
V:arg2~want-01
p4391
tp4392
Vreply-01
p4393
tp4394
I1
s(V:arg0/NP :polarity/VBP :polarity/RB XXX-VB :arg1/NP :time/ADVP . ''
p4395
V:root/ROOT~want-01
p4396
(V:arg0~i
p4397
V:arg1~it
p4398
V:polarity~-
p4399
V:polarity~-
p4400
V:time~anymore
p4401
tp4402
Vwant-01
p4403
tp4404
I1
s(V:arg0/NP :op1/VP XXX-CC :op2/VP .
p4405
V:root/ROOT~and
p4406
(V:op1~cross-02
p4407
V:op2~meet-03
p4408
tp4409
Vand
p4410
tp4411
I1
s(V'' :arg2/S , '' XXX-VBD :arg0/NP .
p4412
V:root/ROOT~reply-01
p4413
(V:arg0~fox
p4414
V:arg2~obligate-01
p4415
tp4416
Vreply-01
p4417
tp4418
I1
s(V:arg0/NP XXX-VBD :arg1-of/ADVP :arg1-of/IN :arg1/S .
p4419
V:root/ROOT~realize-01
p4420
(V:arg0~i
p4421
V:arg1-of~clear-06
p4422
V:arg1-of~clear-06
p4423
V:arg1~event
p4424
tp4425
Vrealize-01
p4426
tp4427
I1
s(V:arg1/NP was XXX-VBN :arg0/IN :arg0-of/NP .
p4428
V:root/ROOT~inhabit-01
p4429
(V:arg0~person
p4430
V:arg1~planet
p4431
tp4432
Vinhabit-01
p4433
tp4434
I1
s(V:op1/CC :time/NP , :source/IN :source/NP :arg1-of/VBN :source/IN :mod/NP :source/VBD where , :arg2/S ; XXX-CC :op2/S :arg1/VP .
p4435
V:root/ROOT~and
p4436
(V:op1~contrast-01
p4437
V:op2~watch-over-03
p4438
tp4439
Vand
p4440
tp4441
I1
s(V:arg0/NP :polarity/VBD :polarity/RB XXX-VB :op1/WHADVP :manner-of/S .
p4442
V:root/ROOT~know-01
p4443
(V:arg0~i
p4444
V:arg1~and
p4445
V:polarity~-
p4446
V:polarity~-
p4447
tp4448
Vknow-01
p4449
tp4450
I1
s(V:arg0/NP has :polarity/ADVP XXX-VBN :arg1/PP .
p4451
V:root/ROOT~look-01
p4452
(V:arg0~he
p4453
V:arg1~star
p4454
V:polarity~-
p4455
V:time~ever
p4456
tp4457
Vlook-01
p4458
tp4459
I1
s(V:arg0/NP :time/ADVP XXX-MD :arg1/S .
p4460
V:root/ROOT~recommend-01
p4461
(V:arg1~listen-01
p4462
tp4463
Vrecommend-01
p4464
tp4465
I1
s(V'' :arg0/NP am XXX-VBG :arg1/IN :arg2/NP .
p4466
V:root/ROOT~look-01
p4467
(V:arg0~i
p4468
V:arg1~person/have-rel-role-91
p4469
tp4470
Vlook-01
p4471
tp4472
I1
s(V:arg0/NP XXX-VBP :polarity/RB :arg1/NP .
p4473
V:root/ROOT~have-03
p4474
(V:arg0~i
p4475
V:arg1~time
p4476
V:polarity~-
p4477
tp4478
Vhave-03
p4479
tp4480
I1
s(V'' but :location/NP is XXX-NN :location/ADVP :arg1-of/S ! ''
p4481
V:root/ROOT~nobody
p4482
(V:arg1-of~judge-01
p4483
V:location~here
p4484
V:location~here
p4485
tp4486
Vnobody
p4487
tp4488
I1
s(V:arg0/NP XXX-VBP :arg1/SBAR .
p4489
V:root/ROOT~imagine-01
p4490
(V:arg0~they
p4491
V:arg1~fill-01
p4492
tp4493
Vimagine-01
p4494
tp4495
I1
s(V:arg0/NP :mod/ADVP XXX-VBD :direction/PRT , :ord/IN :arg0-of/NP .
p4496
V:root/ROOT~pull-01
p4497
(V:arg0~prince
p4498
V:arg1~shoot
p4499
V:direction~up
p4500
V:mod~also
p4501
tp4502
Vpull-01
p4503
tp4504
I1
s(V'' it is :arg1/ADJP :arg1/S , '' :arg0/NP XXX-VBD :arg2/PP .
p4505
V:root/ROOT~say-01
p4506
(V:arg0~monarch
p4507
V:arg1~contrary-01
p4508
V:arg2~he
p4509
tp4510
Vsay-01
p4511
tp4512
I1
s(V:op2/NP was :ord/NP XXX-JJR :ord/PP .
p4513
V:root/ROOT~large
p4514
(V:domain~planet
p4515
V:quant~product-of
p4516
tp4517
Vlarge
p4518
tp4519
I1
s(V:arg1/NP was XXX-VBN .
p4520
V:root/ROOT~disappoint-01
p4521
(V:arg1~prince
p4522
tp4523
Vdisappoint-01
p4524
tp4525
I1
s(V:arg0/NP XXX-VBD :direction/ADVP , :purpose/S .
p4526
V:root/ROOT~go-02
p4527
(V:arg0~prince
p4528
V:direction~away
p4529
V:purpose~look-01
p4530
tp4531
Vgo-02
p4532
tp4533
I1
s(V:arg0/NP are XXX-VBG :arg1/NP :arg0/IN :arg2/NP . ''
p4534
V:root/ROOT~flatten-01
p4535
(V:arg0~child
p4536
V:arg1-of~cause-01
p4537
V:arg1~nose
p4538
tp4539
Vflatten-01
p4540
tp4541
I1
s(V:condition/SBAR , :arg1/NP XXX-VBP :arg1-of/ADVP and :manner/ADVP , :manner/IN :arg1-of/NP .
p4542
V:root/ROOT~burn-01
p4543
(V:arg1-of~slow-05
p4544
V:arg1~volcano
p4545
V:condition~clean-out-03
p4546
V:manner~steady
p4547
V:manner~steady
p4548
tp4549
Vburn-01
p4550
tp4551
I1
s(V:arg1/S , XXX-CC :arg1/S .
p4552
V:root/ROOT~and
p4553
(V:op1~alike-05
p4554
V:op2~alike-05
p4555
tp4556
Vand
p4557
tp4558
I1
s(V:domain/NP is of :polarity/DT XXX-NN .
p4559
V:root/ROOT~important
p4560
(V:domain~that
p4561
V:polarity~-
p4562
tp4563
Vimportant
p4564
tp4565
I1
s(V:arg0/NP XXX-MD :op1/VP .
p4566
V:root/ROOT~possible-01
p4567
(V:arg1~and
p4568
tp4569
Vpossible-01
p4570
tp4571
I1
s(VXXX-CC :time/RB :op2/S
p4572
V:root/ROOT~and
p4573
(V:op2~look-01
p4574
V:op3~see-01
p4575
tp4576
Vand
p4577
tp4578
I1
s(V:arg1/NP was XXX-VBN :op1/PP :location/IN :op3/NP .
p4579
V:root/ROOT~bear-02
p4580
(V:arg0~and
p4581
V:arg1~sweet-05
p4582
tp4583
Vbear-02
p4584
tp4585
I1
s(V'' XXX-JJ :arg0/PP ! ''
p4586
V:root/ROOT~shame-01
p4587
(V:arg0~drink-01
p4588
tp4589
Vshame-01
p4590
tp4591
I1
s(V'' :arg1/S , '' :arg0/NP XXX-VBD .
p4592
V:root/ROOT~say-01
p4593
(V:arg0~snake
p4594
V:arg1~beautiful-02
p4595
tp4596
Vsay-01
p4597
tp4598
I1
s(V'' :arg1/S , '' :arg0/NP XXX-VBD .
p4599
V:root/ROOT~add-01
p4600
(V:arg0~prince
p4601
V:arg1~beautiful-02
p4602
tp4603
Vadd-01
p4604
tp4605
I1
s(V:arg0/NP :mod/ADVP XXX-VBD :arg2/PP '' :arg1/NP
p4606
V:root/ROOT~say-01
p4607
(V:arg0~he
p4608
V:arg1~possible-01
p4609
V:arg2~i
p4610
V:mod~mere
p4611
tp4612
Vsay-01
p4613
tp4614
I1
s(V:time/S - - :time/S , '' XXX-VBD :arg0/NP .
p4615
V:root/ROOT~say-01
p4616
(V:arg0~prince
p4617
V:arg1~come-01
p4618
tp4619
Vsay-01
p4620
tp4621
I1
s(VXXX-CC :arg0/NP :arg2/VP .
p4622
V:root/ROOT~contrast-01
p4623
(V:arg2~take-01
p4624
tp4625
Vcontrast-01
p4626
tp4627
I1
s(V'' :arg1/S , '' XXX-VBD :arg0/NP .
p4628
V:root/ROOT~say-01
p4629
(V:arg0~prince
p4630
V:arg1~understand-01
p4631
tp4632
Vsay-01
p4633
tp4634
I1
s(V:arg0/NP will XXX-VB :arg0/NP :arg2/NP ! ''
p4635
V:root/ROOT~make-02
p4636
(V:arg0~i
p4637
V:arg1~have-org-role-91
p4638
tp4639
Vmake-02
p4640
tp4641
I1
s(Vthen XXX-EX :polarity/VP ? ''
p4642
V:root/ROOT~person
p4643
(V:location~planet/name
p4644
V:polarity~-
p4645
tp4646
Vperson
p4647
tp4648
I1
s(V:time/NP :arg0/S ! ''
p4649
V:root/ROOT~go-02
p4650
(V:arg0~you
p4651
V:time~now
p4652
tp4653
Vgo-02
p4654
tp4655
I1
s(VXXX-CC :arg1/NP :op2/VP .
p4656
V:root/ROOT~and
p4657
(V:op2~sit-down-02
p4658
tp4659
Vand
p4660
tp4661
I1
s(V:arg0/NP XXX-VBP :arg1/NP :arg1-of/CC :arg2/VP .
p4662
V:root/ROOT~have-03
p4663
(V:arg0~you
p4664
V:arg1~nothing
p4665
tp4666
Vhave-03
p4667
tp4668
I1
s(V:time/SBAR , he was :degree/ADVP XXX-JJ :arg0/S .
p4669
V:root/ROOT~surprise-01
p4670
(V:arg0~see-01
p4671
V:arg1~prince
p4672
V:degree~much
p4673
V:time~arrive-01
p4674
tp4675
Vsurprise-01
p4676
tp4677
I1
s(V:arg0/NP XXX-VBD away :source/PP :manner/IN :polarity/S .
p4678
V:root/ROOT~get-away-08
p4679
(V:arg0~he
p4680
V:manner~sound-02
p4681
V:manner~sound-02
p4682
V:source~i
p4683
tp4684
Vget-away-08
p4685
tp4686
I1
s(V:arg0/NP was XXX-VBG , then , :arg1/S - ''
p4687
V:root/ROOT~say-01
p4688
(V:arg0~i
p4689
V:arg1~501000000
p4690
tp4691
Vsay-01
p4692
tp4693
I1
s(V:arg0/NP :polarity/VBP :polarity/RB XXX-VB :arg1/NP .
p4694
V:root/ROOT~eat-01
p4695
(V:arg0~i
p4696
V:arg1~bread
p4697
V:polarity~-
p4698
V:polarity~-
p4699
tp4700
Veat-01
p4701
tp4702
I1
s(V'' :arg0/NP :time/MD be :mod/RB :degree/RBR XXX-JJ :time/NP-TMP ... ''
p4703
V:root/ROOT~fear-01
p4704
(V:arg0~i
p4705
V:degree~more
p4706
V:time~date-entity
p4707
V:time~date-entity
p4708
tp4709
Vfear-01
p4710
tp4711
I1
s(V:domain/NP is :degree/RB :degree/RB XXX-JJ :arg1-of/S .
p4712
V:root/ROOT~important
p4713
(V:degree~too
p4714
V:domain~geographer
p4715
tp4716
Vimportant
p4717
tp4718
I1
s(V:arg1/S , XXX-CC :arg2/S .
p4719
V:root/ROOT~contrast-01
p4720
(V:arg1~open-01
p4721
V:arg2~find-01
p4722
tp4723
Vcontrast-01
p4724
tp4725
I1
s(V'' :arg1-of/WHADVP is XXX-IN :arg0/.
p4726
V:root/ROOT~that
p4727
(V:arg1-of~cause-01
p4728
tp4729
Vthat
p4730
tp4731
I1
s(V:arg0/NP :op1/VP , XXX-CC :op2/VP : '' :mod/IN :arg2/S .
p4732
V:root/ROOT~and
p4733
(V:op1~breathe-02
p4734
V:op2~say-01
p4735
tp4736
Vand
p4737
tp4738
I1
s(V:arg0/NP :polarity/VBD :polarity/RB XXX-VB :arg0/NP :arg1/PP :instrument/PP .
p4739
V:root/ROOT~want-01
p4740
(V:arg0~i
p4741
V:arg1~tire-01
p4742
V:polarity~-
p4743
V:polarity~-
p4744
tp4745
Vwant-01
p4746
tp4747
I1
s(V'' :arg1/S , '' XXX-VBD :arg0/NP .
p4748
V:root/ROOT~say-01
p4749
(V:arg0~switchman
p4750
V:arg1~know-01
p4751
tp4752
Vsay-01
p4753
tp4754
I1
s(V:condition/IN :arg0/NP :condition/VBP :arg2/NP , XXX-JJ :arg1/NP ... ''
p4755
V:root/ROOT~tame-01
p4756
(V:arg0~you
p4757
V:arg1~i
p4758
V:condition~want-01
p4759
V:condition~want-01
p4760
tp4761
Vtame-01
p4762
tp4763
I1
s(V'' :arg0/NP :polarity/VBP :polarity/RB XXX-VB .
p4764
V:root/ROOT~know-01
p4765
(V:arg0~i
p4766
V:polarity~-
p4767
V:polarity~-
p4768
tp4769
Vknow-01
p4770
tp4771
I1
s(V:arg0/NP XXX-VBD :arg1/PP :location/NP , :arg0/PP , :arg0-of/S ...
p4772
V:root/ROOT~look-01
p4773
(V:arg0~he
p4774
V:arg1~i
p4775
V:location~there
p4776
tp4777
Vlook-01
p4778
tp4779
I1
s(V:polite/S , '' XXX-VBD :arg0/NP .
p4780
V:root/ROOT~say-01
p4781
(V:arg0~prince
p4782
V:arg1~excuse-01
p4783
tp4784
Vsay-01
p4785
tp4786
I1
s(V:arg0/NP XXX-VBP :arg1/SBAR ! ''
p4787
V:root/ROOT~think-01
p4788
(V:arg0~you
p4789
V:arg1~that
p4790
tp4791
Vthink-01
p4792
tp4793
I1
s(V'' XXX-UH . ''
p4794
V:root/ROOT~yes
p4795
g58
Vyes
p4796
tp4797
I3
s(V'' :arg1/S , '' XXX-VBD :arg0/NP .
p4798
V:root/ROOT~say-01
p4799
(V:arg0~fox
p4800
V:arg1~understand-01
p4801
tp4802
Vsay-01
p4803
tp4804
I1
s(V'' XXX-NN :topic/PP :topic/. ''
p4805
V:root/ROOT~minister
p4806
(V:topic~amr-unknown
p4807
V:topic~amr-unknown
p4808
tp4809
Vminister
p4810
tp4811
I1
s(V'' XXX-CC :op3/NP ? ''
p4812
V:root/ROOT~and
p4813
(V:op2~and
p4814
tp4815
Vand
p4816
tp4817
I1
s(VXXX-CC :arg0/NP :manner/PP : '' :arg0/S ? ''
p4818
V:root/ROOT~and
p4819
(V:op2~add-01
p4820
tp4821
Vand
p4822
tp4823
I1
s(V:arg0/NP :op1/VP , XXX-CC :op2/VP .
p4824
V:root/ROOT~and
p4825
(V:op1~look-01
p4826
V:op2~put-01
p4827
tp4828
Vand
p4829
tp4830
I1
s(V'' :arg1/ADVP , '' XXX-VBD :arg0/NP .
p4831
V:root/ROOT~say-01
p4832
(V:arg0~flower
p4833
V:arg1~goodbye
p4834
tp4835
Vsay-01
p4836
tp4837
I1
s(VXXX-NN :mod/NP .
p4838
V:root/ROOT~chapter
p4839
(V:mod~16
p4840
tp4841
Vchapter
p4842
tp4843
I1
s(V'' :domain/NP is the XXX-NN .
p4844
V:root/ROOT~desert
p4845
(V:domain~this
p4846
tp4847
Vdesert
p4848
tp4849
I1
s(Vand :arg0/NP XXX-VBD himself : '' :manner/ADVP :arg1/MD :arg0/NP :arg1/S :condition/NP :manner/. ''
p4850
V:root/ROOT~ask-01
p4851
(V:arg0~prince
p4852
V:arg1~possible-01
p4853
V:arg2~coref
p4854
tp4855
Vask-01
p4856
tp4857
I1
s(V'' :location/RB XXX-PRP is .
p4858
V:root/ROOT~it
p4859
(V:location~here
p4860
tp4861
Vit
p4862
tp4863
I1
s(V:arg1/NP was XXX-JJ :arg2/PP , :arg1-of/IN :arg2/NP .
p4864
V:root/ROOT~good-04
p4865
(V:arg1~it
p4866
V:arg2~heart
p4867
tp4868
Vgood-04
p4869
tp4870
I1
s(V:arg0/NP :op1/VP , XXX-CC :op2/VP .
p4871
V:root/ROOT~and
p4872
(V:op1~moisten-01
p4873
V:op2~give-01
p4874
tp4875
Vand
p4876
tp4877
I1
s(V'' yes , :arg0/NP XXX-VBP ... ''
p4878
V:root/ROOT~know-01
p4879
(V:arg0~i
p4880
tp4881
Vknow-01
p4882
tp4883
I3
s(V:arg1/NP XXX-VBD :op1/ADJP , :arg1/CC :op2/ADJP .
p4884
V:root/ROOT~seem-01
p4885
(V:arg1~and
p4886
tp4887
Vseem-01
p4888
tp4889
I1
s(V:condition/SBAR , :arg0/NP would :arg1-of/VB been XXX-JJ :arg1/S .
p4890
V:root/ROOT~possible-01
p4891
(V:arg1~watch-01
p4892
V:condition~master
p4893
tp4894
Vpossible-01
p4895
tp4896
I1
s(V:domain/NP was the XXX-JJS :compared-to/PP .
p4897
V:root/ROOT~small
p4898
(V:compared-to~all
p4899
V:degree~most
p4900
V:domain~it
p4901
tp4902
Vsmall
p4903
tp4904
I1
s(V:time/ADVP :arg0/NP XXX-VBD :arg1/NP :purpose/ADVP .
p4905
V:root/ROOT~force-02
p4906
(V:arg0~she
p4907
V:arg1~cough-01
p4908
V:degree~more
p4909
V:degree~more
p4910
V:purpose~suffer-01
p4911
V:time~then
p4912
tp4913
Vforce-02
p4914
tp4915
I1
s(V'' :arg0/NP :arg1/FW you , '' XXX-VBD :arg0/NP , :arg0-of/S , '' :arg1/CC :arg1/S :arg0/. ''
p4916
V:root/ROOT~say-01
p4917
(V:arg0~prince
p4918
V:arg1~contrast-01
p4919
tp4920
Vsay-01
p4921
tp4922
I1
s(V:arg1-of/S , :arg0/NP would XXX-VB :arg1/SBAR - - the rose :arg1-of/IN :arg0-of/S .
p4923
V:root/ROOT~think-01
p4924
(V:arg0~person
p4925
V:arg1-of~sure-02
p4926
V:arg1-of~sure-02
p4927
V:arg1~look-02
p4928
tp4929
Vthink-01
p4930
tp4931
I1
s(V:arg1/NP was :mod/ADVP XXX-DT :polarity/JJ :arg2/NN :arg2-of/PP .
p4932
V:root/ROOT~resemble-01
p4933
(V:arg1~water
p4934
V:arg2~thing
p4935
V:mod~indeed
p4936
V:polarity~-
p4937
tp4938
Vresemble-01
p4939
tp4940
I1
s(V'' :arg1/NP is XXX-JJ :example/IN :arg2/NP : :op3/NP ... ''
p4941
V:root/ROOT~ready-02
p4942
(V:arg1~everything
p4943
V:arg2~use-01
p4944
tp4945
Vready-02
p4946
tp4947
I1
s(V:arg0/NP XXX-VBD .
p4948
V:root/ROOT~cry-01
p4949
(V:arg0~i
p4950
tp4951
Vcry-01
p4952
tp4953
I1
s(VXXX-CC :arg0/NP :op2/VP : '' :arg2/S .
p4954
V:root/ROOT~and
p4955
(V:op2~add-01
p4956
tp4957
Vand
p4958
tp4959
I1
s(V'' :arg2/S , '' XXX-VBD :arg1/NP .
p4960
V:root/ROOT~reply-01
p4961
(V:arg0~person
p4962
V:arg2~order-01
p4963
tp4964
Vreply-01
p4965
tp4966
I2
s(V'' :arg1-of/JJ XXX-NN .
p4967
V:root/ROOT~morning
p4968
(V:arg1-of~good-02
p4969
tp4970
Vmorning
p4971
tp4972
I1
s(V:arg2/S , XXX-CC :degree/S .
p4973
V:root/ROOT~have-concession-91
p4974
(V:arg1~deject-01
p4975
V:arg2~visit-01
p4976
tp4977
Vhave-concession-91
p4978
tp4979
I1
s(V'' :arg1/S , '' :arg0/NP XXX-VBD .
p4980
V:root/ROOT~say-01
p4981
(V:arg0~rose
p4982
V:arg1~rose
p4983
tp4984
Vsay-01
p4985
tp4986
I1
s(V:op1/S ; XXX-CC :mod/ADVP i :arg2/VP .
p4987
V:root/ROOT~contrast-01
p4988
(V:arg1~and
p4989
V:arg2~understand-01
p4990
tp4991
Vcontrast-01
p4992
tp4993
I1
s(V:arg0/NP XXX-VBD , :mod/ADVP , :arg2/PP , :purpose/SBAR .
p4994
V:root/ROOT~begin-01
p4995
(V:arg0~he
p4996
V:arg2~visit-01
p4997
V:mod~therefore
p4998
V:purpose~add-02
p4999
tp5000
Vbegin-01
p5001
tp5002
I1
s(VXXX-CC :arg0/NP :op2/VP .
p5003
V:root/ROOT~and
p5004
(V:op2~take-01
p5005
tp5006
Vand
p5007
tp5008
I1
s(V:arg0/NP have :time/ADVP XXX-VBN :arg1/NP .
p5009
V:root/ROOT~love-01
p5010
(V:arg0~i
p5011
V:arg1~desert
p5012
V:time~always
p5013
tp5014
Vlove-01
p5015
tp5016
I1
s(V:time/CC :ord/WHADVP :op2/S , :arg0/NP XXX-VBD :arg1/SBAR .
p5017
V:root/ROOT~realize-01
p5018
(V:arg0~he
p5019
V:arg1~close-10
p5020
V:time~and
p5021
tp5022
Vrealize-01
p5023
tp5024
I1
s(V:domain/NP is :polarity/RB :domain/NP who :arg0-of/VBZ XXX-RP :purpose/S .
p5025
V:root/ROOT~person
p5026
(V:arg0-of~go-02
p5027
V:domain~geographer
p5028
V:domain~geographer
p5029
tp5030
Vperson
p5031
tp5032
I1
s(V'' XXX-CC :time/NP .
p5033
V:root/ROOT~and
p5034
(V:op2~look-01
p5035
tp5036
Vand
p5037
tp5038
I1
s(V:arg0/NP XXX-MD :arg1/VP .
p5039
V:root/ROOT~recommend-01
p5040
(V:arg1~advise-01
p5041
V:arg2~coref
p5042
tp5043
Vrecommend-01
p5044
tp5045
I1
s(V:arg0/NP XXX-VBN :arg1-of/ADVP .
p5046
V:root/ROOT~breathe-01
p5047
(V:arg0~i
p5048
V:arg1-of~easy-05
p5049
tp5050
Vbreathe-01
p5051
tp5052
I1
s(V:arg0/NP will XXX-VB :arg2/NP :arg1/NP .
p5053
V:root/ROOT~draw-01
p5054
(V:arg0~i
p5055
V:arg1~railing
p5056
V:arg2~you
p5057
tp5058
Vdraw-01
p5059
tp5060
I1
s(V:arg2/S , '' :arg0/NP XXX-VBD on .
p5061
V:root/ROOT~go-on-25
p5062
(V:arg0~king
p5063
V:arg1~obligate-01
p5064
tp5065
Vgo-on-25
p5066
tp5067
I1
s(VXXX-RB :arg0/NP will depend :poss/IN :arg1/NP .
p5068
V:root/ROOT~depend-01
p5069
(V:arg0~live-01
p5070
V:arg1~justice
p5071
tp5072
Vdepend-01
p5073
tp5074
I1
s(V:time/ADVP :arg1/NP is XXX-VBN :degree/NP .
p5075
V:root/ROOT~comfort-01
p5076
(V:arg1~sorrow-01
p5077
V:degree~little
p5078
V:time~now
p5079
tp5080
Vcomfort-01
p5081
tp5082
I1
s(VXXX-CC :time/ADVP :arg1/NP :op2/VP .
p5083
V:root/ROOT~and
p5084
(V:op2~dare-01
p5085
V:time~now
p5086
tp5087
Vand
p5088
tp5089
I1
s(V:arg1/NP was :mod/ADVP :polarity/RB XXX-JJ .
p5090
V:root/ROOT~satisfy-01
p5091
(V:arg1~prince
p5092
V:mod~still
p5093
V:polarity~-
p5094
tp5095
Vsatisfy-01
p5096
tp5097
I1
s(V:time/SBAR :arg0/NP :manner/ADVP XXX-VBD :arg1/NP .
p5098
V:root/ROOT~salute-01
p5099
(V:arg0~he
p5100
V:arg1~person
p5101
V:manner~respect-01
p5102
V:time~arrive-01
p5103
tp5104
Vsalute-01
p5105
tp5106
I1
s(V:domain/NP is , XXX-TO :arg0/NP , :arg1/NP .
p5107
V:root/ROOT~opine-01
p5108
(V:arg0~i
p5109
V:arg1~landscape
p5110
tp5111
Vopine-01
p5112
tp5113
I1
s(V:time/PP :arg1/NP was XXX-JJ .
p5114
V:root/ROOT~reasonable-02
p5115
(V:arg1~it
p5116
V:time~day
p5117
tp5118
Vreasonable-02
p5119
tp5120
I1
s(V'' :arg0/NP :time/VBZ :time/ADVP been XXX-CC :op2/ADJP .
p5121
V:root/ROOT~and
p5122
(V:op1~hunger-01
p5123
V:op2~thirst-01
p5124
V:time~ever
p5125
V:time~ever
p5126
tp5127
Vand
p5128
tp5129
I1
s(V:mod/INTJ , XXX-DT ! ''
p5130
V:root/ROOT~no
p5131
(V:mod~oh
p5132
tp5133
Vno
p5134
tp5135
I1
s(V:concession/S ; :concession/CC :arg2/NP was :op1/VBN XXX-CC :op2/VBN :extent/IN :arg1/NP .
p5136
V:root/ROOT~and
p5137
(V:concession~look-01
p5138
V:concession~look-01
p5139
V:op1~cram-01
p5140
V:op2~obstruct-01
p5141
tp5142
Vand
p5143
tp5144
I1
s(V:arg1-of/NP are XXX-VBN :direction/PRT :time/ADVP :instrument/PP .
p5145
V:root/ROOT~put-01
p5146
(V:arg1~thing
p5147
V:direction~down
p5148
V:instrument~pencil
p5149
V:time~first
p5150
tp5151
Vput-01
p5152
tp5153
I1
s(VXXX-NN :mod/NP .
p5154
V:root/ROOT~chapter
p5155
(V:mod~10
p5156
tp5157
Vchapter
p5158
tp5159
I1
s(V'' :arg1/S , '' XXX-VBD :arg0/NP .
p5160
V:root/ROOT~say-01
p5161
(V:arg0~fox
p5162
V:arg1~live-01
p5163
tp5164
Vsay-01
p5165
tp5166
I1
s(V'' XXX-VBZ :arg0/NP :arg1/NP ? ''
p5167
V:root/ROOT~have-03
p5168
(V:arg0~it
p5169
V:arg1~ocean
p5170
tp5171
Vhave-03
p5172
tp5173
I1
s(V:arg0/NP - :mod/PRN will XXX-VB :arg1/NP :arg1-of/IN :arg2/S - - ''
p5174
V:root/ROOT~have-03
p5175
(V:arg0~you
p5176
V:arg1-of~resemble-01
p5177
V:arg1~star
p5178
tp5179
Vhave-03
p5180
tp5181
I1
s(Vand :time/ADVP :arg0/NP XXX-VBP :arg1/SBAR . ''
p5182
V:root/ROOT~think-01
p5183
(V:arg0~i
p5184
V:arg1~go-02
p5185
V:time~now
p5186
tp5187
Vthink-01
p5188
tp5189
I1
s(V'' :arg0/S , XXX-CC :op2/S .
p5190
V:root/ROOT~or
p5191
(V:op1~sleep-01
p5192
V:op2~yawn-01
p5193
tp5194
Vor
p5195
tp5196
I1
s(V'' XXX-CC :arg0/NP ''
p5197
V:root/ROOT~and
p5198
(V:op1~believe-01
p5199
tp5200
Vand
p5201
tp5202
I1
s(V'' :arg1/S , '' :arg0/NP XXX-VBD , '' :arg2/CC they are :polarity/RB :arg2/NP .
p5203
V:root/ROOT~answer-01
p5204
(V:arg0~he
p5205
V:arg2~contrast-01
p5206
tp5207
Vanswer-01
p5208
tp5209
I1
s(V:arg0/NP :polarity/VBP :polarity/RB XXX-VB :arg1/S .
p5210
V:root/ROOT~need-01
p5211
(V:arg0~i
p5212
V:arg1~live-01
p5213
V:polarity~-
p5214
V:polarity~-
p5215
tp5216
Vneed-01
p5217
tp5218
I1
s(V:time/SBAR , :arg0/NP will XXX-VB - - and :arg1/S . ''
p5219
V:root/ROOT~walk-01
p5220
(V:arg0-of~cause-01
p5221
V:arg0~you
p5222
V:time~want-01
p5223
tp5224
Vwalk-01
p5225
tp5226
I1
s(V:arg1/S , '' XXX-VBD :arg0/NP .
p5227
V:root/ROOT~reply-01
p5228
(V:arg0~prince
p5229
V:arg2~possible-01
p5230
V:manner~embarrass-01
p5231
tp5232
Vreply-01
p5233
tp5234
I1
s(V'' be XXX-PRP$ :arg2/NNS .
p5235
V:root/ROOT~have-rel-role-91
p5236
(V:arg0~you
p5237
V:arg1~i
p5238
V:arg2~friend
p5239
tp5240
Vhave-rel-role-91
p5241
tp5242
I1
s(Vwhat does that XXX-NN - :arg1/VP :arg2/. ''
p5243
V:root/ROOT~mean-01
p5244
(V:arg1~tame-01
p5245
V:arg2~amr-unknown
p5246
tp5247
Vmean-01
p5248
tp5249
I1
s(V:arg0/NP :op1/VBP :arg1/NP , XXX-CC :op2/SBAR . ''
p5250
V:root/ROOT~and
p5251
(V:op1~have-03
p5252
V:op2~make-02
p5253
tp5254
Vand
p5255
tp5256
I1
s(V'' :arg1/WHADVP :arg1/SQ :arg0/. '' XXX-VBD :arg0/NP .
p5257
V:root/MULTI-SENTENCE~demand-01
p5258
(V:arg0~prince
p5259
V:arg1~cause-01
p5260
tp5261
Vdemand-01
p5262
tp5263
I1
s(V:arg0/NP :mod/ADVP XXX-VBD :arg1/NP .
p5264
V:root/ROOT~have-03
p5265
(V:arg0~he
p5266
V:arg1~volcano
p5267
V:mod~also
p5268
tp5269
Vhave-03
p5270
tp5271
I1
s(V'' :arg1/NP is :mod/JJ is :instrument/JJ :arg1/TO :instrument/NP , '' :arg0/NP XXX-VBN , :arg1-of/SBAR .
p5272
V:root/ROOT~repeat-01
p5273
(V:arg0~prince
p5274
V:arg1~possible-01
p5275
V:purpose~remember-01
p5276
tp5277
Vrepeat-01
p5278
tp5279
I1
s(Vwhen :arg0/NP XXX-VBN :arg1/PP he :time/VP .
p5280
V:root/ROOT~succeed-01
p5281
(V:arg0~i
p5282
V:arg1~catch-up-04
p5283
V:time~walk-01
p5284
tp5285
Vsucceed-01
p5286
tp5287
I1
s(V'' :arg0/NP :op1/VBP :arg1/NP , XXX-CC :op2/NP .
p5288
V:root/ROOT~and
p5289
(V:op1~have-03
p5290
V:op2~hunt-01
p5291
tp5292
Vand
p5293
tp5294
I1
s(V:domain/NP are XXX-JJ .
p5295
V:root/ROOT~naive
p5296
(V:domain~they
p5297
tp5298
Vnaive
p5299
tp5300
I1
s(V'' XXX-RB the :arg1/NP are they ? ''
p5301
V:root/ROOT~have-purpose-91
p5302
(V:arg1-of~have-condition-91
p5303
V:arg1~thorn
p5304
V:arg2~amr-unknown
p5305
tp5306
Vhave-purpose-91
p5307
tp5308
I1
s(VXXX-CC :arg1/NP :arg2/VP ''
p5309
V:root/ROOT~contrast-01
p5310
(V:arg2~sit-01
p5311
tp5312
Vcontrast-01
p5313
tp5314
I1
s(V:arg0/NP XXX-VBD :arg1-of/NP :op2/IN :arg2/NP .
p5315
V:root/ROOT~cast-01
p5316
(V:arg0~she
p5317
V:arg1~and
p5318
V:arg2~i
p5319
tp5320
Vcast-01
p5321
tp5322
I1
s(V:time/ADVP :arg0/NP XXX-VBD :direction/ADVP :direction/PP , :manner/IN :mod/NP : '' :arg1/S !
p5323
V:root/ROOT~flash-01
p5324
(V:arg0~prince
p5325
V:arg1~believe-01
p5326
V:arg2~i
p5327
V:direction~back
p5328
V:direction~back
p5329
V:manner~resent-01
p5330
V:manner~resent-01
p5331
V:time~then
p5332
tp5333
Vflash-01
p5334
tp5335
I1
s(V'' :condition/S , :time/RB :time/PP :arg0/NP shall XXX-VB :arg1/S .
p5336
V:root/ROOT~begin-01
p5337
(V:arg0~i
p5338
V:arg1~happy-01
p5339
V:condition~come-01
p5340
V:condition~come-01
p5341
V:time~date-entity
p5342
V:time~date-entity
p5343
tp5344
Vbegin-01
p5345
tp5346
I1
s(VXXX-CC :arg0/NP :op2/VP .
p5347
V:root/ROOT~and
p5348
(V:op2~sad-02
p5349
tp5350
Vand
p5351
tp5352
I1
s(V:time/IN :op1/NP :arg0/NP XXX-VBD :mod/ADVP : '' :arg1/S ?
p5353
V:root/ROOT~speak-01
p5354
(V:arg0~prince
p5355
V:arg1~have-03
p5356
V:mod~again
p5357
V:time~after
p5358
tp5359
Vspeak-01
p5360
tp5361
I1
s(V:arg0/LS XXX-NN :arg1/S ! ''
p5362
V:root/ROOT~love-01
p5363
(V:arg0~i
p5364
V:arg1~hear-01
p5365
tp5366
Vlove-01
p5367
tp5368
I1
s(V'' where :arg1/SQ :arg3/. '' :arg0/NP XXX-VBD :arg2/PP .
p5369
V:root/MULTI-SENTENCE~say-01
p5370
(V:arg0~gentleman
p5371
V:arg1~come-01
p5372
V:arg2~he
p5373
tp5374
Vsay-01
p5375
tp5376
I1
s(V'' the XXX-NNS :arg2/VP .
p5377
V:root/ROOT~order-01
p5378
(V:arg2~put-out-09
p5379
tp5380
Vorder-01
p5381
tp5382
I1
s(V'' :arg0/NP XXX-VBP :arg1/NP .
p5383
V:root/ROOT~have-03
p5384
(V:arg0~man
p5385
V:arg1~time
p5386
V:polarity~-
p5387
tp5388
Vhave-03
p5389
tp5390
I1
s(V:arg0/NP :polarity/VBD :polarity/RB XXX-VB out .
p5391
V:root/ROOT~cry-out-03
p5392
(V:arg0~he
p5393
V:polarity~-
p5394
V:polarity~-
p5395
tp5396
Vcry-out-03
p5397
tp5398
I1
s(VXXX-CC :compared-to/NP
p5399
V:root/ROOT~contrast-01
p5400
(V:arg2~foolish
p5401
tp5402
Vcontrast-01
p5403
tp5404
I1
s(V'' :arg1/S , '' XXX-VBD :arg1/NP .
p5405
V:root/ROOT~say-01
p5406
(V:arg0~person
p5407
V:arg1~nothing
p5408
tp5409
Vsay-01
p5410
tp5411
I1
s(VXXX-CC :op2/IN :arg0/S , it :arg1/VP . ''
p5412
V:root/ROOT~and
p5413
(V:op2~cause-01
p5414
tp5415
Vand
p5416
tp5417
I1
s(V'' whatever does :arg1/IN XXX-VB :arg2/. ''
p5418
V:root/ROOT~mean-01
p5419
(V:arg1~that
p5420
V:arg2~amr-unknown
p5421
tp5422
Vmean-01
p5423
tp5424
I1
s(V:arg0/NP XXX-WDT :consist-of/S :manner/PP .
p5425
V:root/ROOT~cause-01
p5426
(V:arg0~object
p5427
V:arg1~dream-01
p5428
tp5429
Vcause-01
p5430
tp5431
I1
s(V:time/WHADVP i was :time/NP , :op1/NP of :arg0/NP , :op2/NP of :poss/NP , :op3/NP , :poss/VBN to XXX-VB :arg0/PRT , :manner/ADVP , :arg1/NP :arg1-of/VP .
p5432
V:root/ROOT~make-up-07
p5433
(V:arg0~and
p5434
V:arg1~radiant
p5435
V:manner~so
p5436
V:time~boy
p5437
V:time~boy
p5438
tp5439
Vmake-up-07
p5440
tp5441
I1
s(V:arg0/NP shall XXX-VB :degree/PP .
p5442
V:root/ROOT~look-02
p5443
(V:arg0~i
p5444
V:arg1~have-manner-91
p5445
V:degree~little
p5446
tp5447
Vlook-02
p5448
tp5449
I1
s(V'' you are :polarity/RB XXX-JJ , :arg0/NP , ''
p5450
V:root/ROOT~fair-01
p5451
(V:arg0~prince
p5452
V:polarity~-
p5453
tp5454
Vfair-01
p5455
tp5456
I1
s(V:quant/S ... that :polarity/VBZ :polarity/RB XXX-VB :domain/NP :arg1/NP ... ''
p5457
V:root/ROOT~make-02
p5458
(V:arg0~and
p5459
V:arg1~prince
p5460
V:polarity~-
p5461
V:polarity~-
p5462
tp5463
Vmake-02
p5464
tp5465
I1
s(VXXX-VB :direction/PRT :direction/IN :arg1/NP .
p5466
V:root/ROOT~look-01
p5467
(V:arg0~you
p5468
V:arg1~sky
p5469
V:direction~up
p5470
V:direction~up
p5471
tp5472
Vlook-01
p5473
tp5474
I1
s(VXXX-VB :arg0/NP ?
p5475
V:root/ROOT~ask-01
p5476
(V:arg0~you
p5477
V:arg1~or
p5478
V:arg2~coref
p5479
tp5480
Vask-01
p5481
tp5482
I1
s(VXXX-CC :arg0/NP :arg1/VP ''
p5483
V:root/ROOT~contrast-01
p5484
(V:arg2~possible-01
p5485
tp5486
Vcontrast-01
p5487
tp5488
I1
s(V'' :arg1/NP is :arg0/PRP$ XXX-JJ .
p5489
V:root/ROOT~present-01
p5490
(V:arg0~i
p5491
V:arg1~that
p5492
tp5493
Vpresent-01
p5494
tp5495
I1
s(V:arg0/NP XXX-VBD :op1/VP , :arg1/CC :op2/VP .
p5496
V:root/ROOT~feel-01
p5497
(V:arg0~i
p5498
V:arg1~and
p5499
tp5500
Vfeel-01
p5501
tp5502
I1
s(V'' :arg0-of/NP :time/ADVP is a XXX-NN :arg0-of/SBAR ! ''
p5503
V:root/ROOT~man
p5504
(V:arg0-of~have-03
p5505
V:arg0-of~have-03
p5506
V:time~at-last
p5507
tp5508
Vman
p5509
tp5510
I1
s(V:quant/S , XXX-CC :op2/S .
p5511
V:root/ROOT~and
p5512
(V:op1~be-located-at-91
p5513
V:op2~see-01
p5514
tp5515
Vand
p5516
tp5517
I1
s(V'' XXX-CC :arg1/ADVP - - you :arg2/VP :extent/.
p5518
V:root/ROOT~contrast-01
p5519
(V:arg2~come-01
p5520
tp5521
Vcontrast-01
p5522
tp5523
I1
s(VXXX-CC :arg0/NP :op1/VP : '' :arg1/S !
p5524
V:root/ROOT~and
p5525
(V:op1~continue-02
p5526
tp5527
Vand
p5528
tp5529
I1
s(V'' :arg0/NP :mod/RB :arg2/NP :domain/PRN that has :arg1/NN to XXX-VB :arg1/PP ! ''
p5530
V:root/ROOT~say-01
p5531
(V:arg0~i
p5532
V:arg1~concern-02
p5533
V:arg2~man
p5534
tp5535
Vsay-01
p5536
tp5537
I1
s(V:arg0/NP XXX-MD :polarity/RB :mod/VP ''
p5538
V:root/ROOT~possible-01
p5539
(V:arg1~travel-01
p5540
V:mod~even
p5541
V:polarity~-
p5542
tp5543
Vpossible-01
p5544
tp5545
I1
s(V'' :arg0/NP XXX-VBP :mod/ADVP :arg1-of/IN :arg2/NP ! ''
p5546
V:root/ROOT~talk-01
p5547
(V:arg0~you
p5548
V:arg1-of~resemble-01
p5549
tp5550
Vtalk-01
p5551
tp5552
I1
s(VXXX-VBN , :time/NP !
p5553
V:root/ROOT~come-01
p5554
(V:arg1~you
p5555
V:time~now
p5556
tp5557
Vcome-01
p5558
tp5559
I1
s(V:arg1-of/S , :arg1/NP was XXX-VBN :arg2/PP .
p5560
V:root/ROOT~seat-01
p5561
(V:arg1~he
p5562
V:arg2~throne
p5563
tp5564
Vseat-01
p5565
tp5566
I1
s(VXXX-CD - :arg2/S .
p5567
V:root/ROOT~equal-01
p5568
(V:arg1~sum-of
p5569
V:arg2~31
p5570
tp5571
Vequal-01
p5572
tp5573
I1
s(V:arg1-of/S , :arg0/NP XXX-VBD :op1/CD :frequency/CC :op2/CD times , :purpose/SBAR .
p5574
V:root/ROOT~cough-01
p5575
(V:arg0~she
p5576
V:frequency~or
p5577
V:frequency~or
p5578
V:purpose~put-03
p5579
tp5580
Vcough-01
p5581
tp5582
I1
s(V'' :mod/S , '' :arg0/NP XXX-VBD , '' i :arg1/VP ''
p5583
V:root/ROOT~say-01
p5584
(V:arg0~he
p5585
V:arg1~possible-01
p5586
tp5587
Vsay-01
p5588
tp5589
I1
s(V'' :arg1-of/ADVP , '' XXX-VBD :arg0/NP .
p5590
V:root/ROOT~say-01
p5591
(V:arg0~person
p5592
V:arg1~morning
p5593
tp5594
Vsay-01
p5595
tp5596
I1
s(V:arg0/NP XXX-VBD :arg1/PP .
p5597
V:root/ROOT~gaze-01
p5598
(V:arg0~prince
p5599
V:arg1~they
p5600
tp5601
Vgaze-01
p5602
tp5603
I1
s(V:arg0/NP XXX-VBD :arg1/NP .
p5604
V:root/ROOT~remember-01
p5605
(V:arg0~i
p5606
V:arg1~fox
p5607
tp5608
Vremember-01
p5609
tp5610
I1
s(V:condition/S , :arg0/NP would XXX-VB :arg1/NP .
p5611
V:root/ROOT~make-01
p5612
(V:arg0~that
p5613
V:arg1~spectacle
p5614
V:condition~see-01
p5615
V:condition~see-01
p5616
tp5617
Vmake-01
p5618
tp5619
I1
s(VXXX-CC there :op2/VP .
p5620
V:root/ROOT~and
p5621
(V:op2~sweet-05
p5622
tp5623
Vand
p5624
tp5625
I1
s(V:arg0/NP XXX-VBP :arg1/NP .
p5626
V:root/ROOT~occupy-01
p5627
(V:arg0~man
p5628
V:arg1~place
p5629
tp5630
Voccupy-01
p5631
tp5632
I1
s(V'' :arg1/S , '' XXX-VBD :arg0/NP .
p5633
V:root/ROOT~say-01
p5634
(V:arg0~prince
p5635
V:arg1~interest-01
p5636
tp5637
Vsay-01
p5638
tp5639
I1
s(V:op1/S , XXX-CC :op2/S .
p5640
V:root/ROOT~and
p5641
(V:op1~tame-01
p5642
V:op2~tame-01
p5643
tp5644
Vand
p5645
tp5646
I1
s(V:arg0/NP :mod/ADVP XXX-VBP :arg1/NP .
p5647
V:root/ROOT~raise-03
p5648
(V:arg0~they
p5649
V:arg1~chicken
p5650
V:mod~also
p5651
tp5652
Vraise-03
p5653
tp5654
I1
s(V:arg2/NP is an XXX-NN . ''
p5655
V:root/ROOT~order-01
p5656
(V:arg2~it
p5657
tp5658
Vorder-01
p5659
tp5660
I1
s(V:arg0/NP :time/ADVP :op1/VP , XXX-CC :op2/VP .
p5661
V:root/ROOT~and
p5662
(V:op1~stop-01
p5663
V:op2~begin-01
p5664
tp5665
Vand
p5666
tp5667
I1
s(V:op1/S , XXX-CC :op2/S .
p5668
V:root/ROOT~and
p5669
(V:op1~put-out-09
p5670
V:op2~light-04
p5671
tp5672
Vand
p5673
tp5674
I1
s(V'' it is :arg1/PRP$ XXX-NN :arg2/SBAR .
p5675
V:root/ROOT~fault-01
p5676
(V:arg1~i
p5677
V:arg2~know-01
p5678
tp5679
Vfault-01
p5680
tp5681
I1
s(V:duration/PP :arg0/NP :arg1-of/VBP been XXX-VBG :arg1-of/NP .
p5682
V:root/ROOT~eat-01
p5683
(V:arg0~sheep
p5684
V:arg1-of~have-concession-91
p5685
V:arg1-of~have-concession-91
p5686
V:arg1~they
p5687
V:duration~multiple
p5688
tp5689
Veat-01
p5690
tp5691
I1
s(V'' :mod/RB :arg1/NP , '' XXX-VBD :arg0/NP .
p5692
V:root/ROOT~say-01
p5693
(V:arg0~fox
p5694
V:arg1~that
p5695
tp5696
Vsay-01
p5697
tp5698
I1
s(V'' do :polarity/RB XXX-VB .
p5699
V:root/ROOT~go-02
p5700
(V:arg0~you
p5701
V:polarity~-
p5702
tp5703
Vgo-02
p5704
tp5705
I1
s(V:arg1/NP was XXX-VBN :ord/IN :arg0/NP .
p5706
V:root/ROOT~inhabit-01
p5707
(V:arg0~man
p5708
V:arg1~planet
p5709
tp5710
Vinhabit-01
p5711
tp5712
I1
s(VXXX-CC :arg0/NP :op1/VP ... and :op2/S :arg1/.
p5713
V:root/ROOT~and
p5714
(V:op1~open-01
p5715
V:op2~astonish-01
p5716
tp5717
Vand
p5718
tp5719
I1
s(V'' :arg1/NP is XXX-JJ .
p5720
V:root/ROOT~possible-01
p5721
(V:arg1~that
p5722
tp5723
Vpossible-01
p5724
tp5725
I1
s(Vthere was :arg1/NP XXX-CC :arg2/NP :arg2/PP .
p5726
V:root/ROOT~contrast-01
p5727
(V:arg1~nothing
p5728
V:arg2~flash
p5729
tp5730
Vcontrast-01
p5731
tp5732
I1
s(VXXX-IN :arg1/NP . ''
p5733
V:root/ROOT~belong-01
p5734
(V:arg1~nobody
p5735
tp5736
Vbelong-01
p5737
tp5738
I1
s(V'' :arg1/S , '' XXX-VBD :arg1/NP .
p5739
V:root/ROOT~say-01
p5740
(V:arg0~person
p5741
V:arg1~want-01
p5742
tp5743
Vsay-01
p5744
tp5745
I1
s(V:arg0/NP :op1/VP , XXX-CC :op2/VP .
p5746
V:root/ROOT~and
p5747
(V:op1~take-01
p5748
V:op2~rock-01
p5749
tp5750
Vand
p5751
tp5752
I1
s(V'' :arg1/S , '' :arg0/NP XXX-VBD .
p5753
V:root/ROOT~say-01
p5754
(V:arg0~he
p5755
V:arg1~beautiful-02
p5756
tp5757
Vsay-01
p5758
tp5759
I1
s(V'' :location/NP :arg0/ADVP XXX-VBZ :mod/NP . ''
p5760
V:root/ROOT~see-01
p5761
(V:arg0~one
p5762
V:arg1~thing
p5763
V:location~planet/name
p5764
tp5765
Vsee-01
p5766
tp5767
I1
s(V:op1/S , XXX-CC :op2/S ... ''
p5768
V:root/ROOT~and
p5769
(V:op1~have-03
p5770
V:op2~have-03
p5771
tp5772
Vand
p5773
tp5774
I1
s(V'' XXX-IN :arg2/NP ? ''
p5775
V:root/ROOT~be-located-at-91
p5776
(V:arg2~planet
p5777
tp5778
Vbe-located-at-91
p5779
tp5780
I1
s(VXXX-CC :quant/S , :mod/NP :arg1-of/ADJP , :location/PP !
p5781
V:root/ROOT~and
p5782
(V:op1~they
p5783
tp5784
Vand
p5785
tp5786
I1
s(VXXX-VB :arg1/PP :manner/ADVP that :purpose/S :arg0/NP :condition/VP .
p5787
V:root/ROOT~look-01
p5788
(V:arg0~you
p5789
V:arg1~it
p5790
V:manner~careful
p5791
V:purpose~recognize-02
p5792
tp5793
Vlook-01
p5794
tp5795
I1
s(V:arg0/NP XXX-VBP :arg1/WHNP :arg1-of/S ...
p5796
V:root/ROOT~repeat-01
p5797
(V:arg0~they
p5798
V:arg1~thing
p5799
tp5800
Vrepeat-01
p5801
tp5802
I1
s(V'' :time/PP :arg0/FW XXX-VBP :arg1/S .
p5803
V:root/ROOT~want-01
p5804
(V:arg0~i
p5805
V:arg1~put-01
p5806
tp5807
Vwant-01
p5808
tp5809
I1
s(V:arg1/NP XXX-VBD :arg1-of/NP .
p5810
V:root/ROOT~wait-01
p5811
(V:arg1-of~long-03
p5812
V:arg1~i
p5813
tp5814
Vwait-01
p5815
tp5816
I1
s(V:location/PP :arg1/NP had :time/ADVP been :degree/RB XXX-JJ .
p5817
V:root/ROOT~simple-02
p5818
(V:arg1~flower
p5819
V:degree~very
p5820
V:location~planet
p5821
V:time~always
p5822
tp5823
Vsimple-02
p5824
tp5825
I1
s(V'' :arg1-of/NP :arg1/VBP been XXX-VBN :arg0/IN :arg1-of/NP .
p5826
V:root/ROOT~make-01
p5827
(V:arg0~person
p5828
V:arg1~thing
p5829
tp5830
Vmake-01
p5831
tp5832
I1
s(V:arg0/NP XXX-MD :arg1/VP .
p5833
V:root/ROOT~possible-01
p5834
(V:arg1~see-01
p5835
tp5836
Vpossible-01
p5837
tp5838
I1
s(VXXX-TO :arg0/NP , :domain/NP :arg1/VP .
p5839
V:root/ROOT~opine-01
p5840
(V:arg0~they
p5841
V:arg1~subject
p5842
tp5843
Vopine-01
p5844
tp5845
I1
s(V:arg1/NP :time/ADVP XXX-VBP :mod/ADJP - :arg2/ADJP .
p5846
V:root/ROOT~become-01
p5847
(V:arg1~they
p5848
V:arg2~fashion
p5849
V:polarity~-
p5850
V:time~ever
p5851
tp5852
Vbecome-01
p5853
tp5854
I1
s(V:arg0/NP XXX-VBD :arg1/PP , :arg1-of/PP .
p5855
V:root/ROOT~gaze-01
p5856
(V:arg0~fox
p5857
V:arg1-of~long-03
p5858
V:arg1~prince
p5859
tp5860
Vgaze-01
p5861
tp5862
I1
s(V'' :arg1/NP :arg1/NN :arg2/IN :arg0-of/NP XXX-VBD :arg0/NP .
p5863
V:root/ROOT~say-01
p5864
(V:arg0~switchman
p5865
V:arg1~sort-01
p5866
tp5867
Vsay-01
p5868
tp5869
I1
s(V:time/IN :duration/NP :arg0/NP :duration/VBD XXX-JJ :arg1/PP .
p5870
V:root/ROOT~tire-01
p5871
(V:arg0~prince
p5872
V:arg1~monotony
p5873
V:time~after
p5874
tp5875
Vtire-01
p5876
tp5877
I1
s(V'' :arg1/S , '' :arg0/NP XXX-VBD .
p5878
V:root/ROOT~object-01
p5879
(V:arg0~prince
p5880
V:arg1~tiger
p5881
tp5882
Vobject-01
p5883
tp5884
I1
s(V:arg0/NP have :arg1/ADVP to XXX-VB :arg2/PP .
p5885
V:root/ROOT~say-01
p5886
(V:arg0~field
p5887
V:arg1~nothing
p5888
V:arg2~i
p5889
tp5890
Vsay-01
p5891
tp5892
I1
s(V'' :arg0/NP XXX-VBP :arg1/NP .
p5893
V:root/ROOT~have-03
p5894
(V:arg0~i
p5895
V:arg1~reason
p5896
tp5897
Vhave-03
p5898
tp5899
I1
s(V'' :arg1/S , '' :arg0/NP XXX-VBD :quant/NP :time/ADVP .
p5900
V:root/ROOT~add-01
p5901
(V:arg0~she
p5902
V:arg1~think-01
p5903
V:time~late
p5904
tp5905
Vadd-01
p5906
tp5907
I1
s(V'' :arg1/S , '' XXX-VBD :arg0/NP .
p5908
V:root/ROOT~say-01
p5909
(V:arg0~prince
p5910
V:arg1~fault-01
p5911
tp5912
Vsay-01
p5913
tp5914
I1
s(V'' :arg0/NP do n't XXX-VB :arg1/SBAR . ''
p5915
V:root/ROOT~know-01
p5916
(V:arg0~i
p5917
V:arg1~draw-01
p5918
tp5919
Vknow-01
p5920
tp5921
I1
s(V'' XXX-CC :purpose/WHADVP :arg2/SQ :purpose/. ''
p5922
V:root/ROOT~contrast-01
p5923
(V:arg2~speak-01
p5924
tp5925
Vcontrast-01
p5926
tp5927
I1
s(V:arg0/NP :snt1/VBD XXX-RB :quant/CD :arg1/NN :consist-of/PP ; :snt2/S ; :snt3/S .
p5928
V:root/ROOT~multi-sentence
p5929
(V:snt1~have-03
p5930
V:snt2~take-up-13
p5931
V:snt3~trouble-01
p5932
tp5933
Vmulti-sentence
p5934
tp5935
I1
s(V'' :arg0/NP XXX-VBP :arg1/NP . ''
p5936
V:root/ROOT~have-03
p5937
(V:arg0~i
p5938
V:arg1~thing
p5939
V:mod~also
p5940
tp5941
Vhave-03
p5942
tp5943
I1
s(V:time/ADVP :arg0/NP XXX-VB :arg1/VP : :arg1/S :mod/.
p5944
V:root/ROOT~keep-02
p5945
(V:arg1~wonder-01
p5946
V:time~now
p5947
tp5948
Vkeep-02
p5949
tp5950
I1
s(VXXX-CC :op1/S - :arg1/VP .
p5951
V:root/ROOT~and
p5952
(V:op1~go-05
p5953
tp5954
Vand
p5955
tp5956
I1
s(V:arg0/NP :polarity/VBD :polarity/RB XXX-VB :arg1/NP .
p5957
V:root/ROOT~understand-01
p5958
(V:arg0~he
p5959
V:arg1~sweet-05
p5960
V:polarity~-
p5961
V:polarity~-
p5962
tp5963
Vunderstand-01
p5964
tp5965
I1
s(V'' :arg1-of/ADVP , '' XXX-VBD :arg0/NP .
p5966
V:root/ROOT~say-01
p5967
(V:arg0~fox
p5968
V:arg1~morning
p5969
tp5970
Vsay-01
p5971
tp5972
I1
s(V'' :manner/WHADVP is it XXX-JJ :arg0/PP :manner/. ''
p5973
V:root/ROOT~possible-01
p5974
(V:arg1~own-01
p5975
V:manner~amr-unknown
p5976
V:manner~amr-unknown
p5977
tp5978
Vpossible-01
p5979
tp5980
I1
s(V'' :quant/NP :op1/IN :arg1/NP , '' :arg0/NP XXX-VBD , '' :arg1-of/SBAR . ''
p5981
V:root/ROOT~say-01
p5982
(V:arg0~he
p5983
V:arg1~object
p5984
tp5985
Vsay-01
p5986
tp5987
I1
s(VXXX-CC :arg0/NP :arg2/VP ...
p5988
V:root/ROOT~contrast-01
p5989
(V:arg2~go-on-25
p5990
tp5991
Vcontrast-01
p5992
tp5993
I1
s(V:location/SBAR is :mod/ADJP that :arg0/NP XXX-MD :polarity/RB :arg1/VP .
p5994
V:root/ROOT~possible-01
p5995
(V:arg1-of~cause-01
p5996
V:arg1~show-01
p5997
V:polarity~-
p5998
tp5999
Vpossible-01
p6000
tp6001
I1
s(V:arg0/NP XXX-VBD :arg1/NP .
p6002
V:root/ROOT~say-01
p6003
(V:arg0~i
p6004
V:arg1~nothing
p6005
tp6006
Vsay-01
p6007
tp6008
I4
s(VXXX-CC :arg0/NP :op2/VP : '' :arg1/S .
p6009
V:root/ROOT~and
p6010
(V:op2~hear-01
p6011
tp6012
Vand
p6013
tp6014
I1
s(V'' :arg0/NP XXX-MD :arg1/VP .
p6015
V:root/ROOT~possible-01
p6016
(V:arg1~help-01
p6017
V:condition~grow-02
p6018
tp6019
Vpossible-01
p6020
tp6021
I1
s(Vso :time/ADVP :arg0/NP :instrument/VBD a :instrument/NN XXX-NN :arg1/PP .
p6022
V:root/ROOT~sketch-01
p6023
(V:arg0~i
p6024
V:arg1~muzzle
p6025
V:instrument~pencil
p6026
V:instrument~pencil
p6027
V:time~then
p6028
tp6029
Vsketch-01
p6030
tp6031
I1
s(V:arg0/NP XXX-VBP :polarity/RB :arg0-of/NP .
p6032
V:root/ROOT~have-03
p6033
(V:arg0~i
p6034
V:arg1~person
p6035
V:polarity~-
p6036
tp6037
Vhave-03
p6038
tp6039
I1
s(Vit XXX-VBZ :arg1/SBAR .
p6040
V:root/ROOT~seem-01
p6041
(V:arg1~beautiful-02
p6042
tp6043
Vseem-01
p6044
tp6045
I1
s(VXXX-CC :arg0/NP :op2/VP .
p6046
V:root/ROOT~and
p6047
(V:op2~lead-01
p6048
tp6049
Vand
p6050
tp6051
I1
s(V:arg0/NP XXX-MD - - ''
p6052
V:root/ROOT~do-02
p6053
(V:arg0~i
p6054
tp6055
Vdo-02
p6056
tp6057
I1
s(V'' a what XXX-. ''
p6058
V:root/ROOT~amr-unknown
p6059
g58
Vamr-unknown
p6060
tp6061
I1
s(V'' :arg1/S , '' XXX-VBD :arg1/NP .
p6062
V:root/ROOT~say-01
p6063
(V:arg0~person
p6064
V:arg1~change-01
p6065
tp6066
Vsay-01
p6067
tp6068
I1
s(V:arg0/NP :source-of/MD XXX-VB :arg1/NP :beneficiary/PP ! ''
p6069
V:root/ROOT~describe-01
p6070
(V:arg0~you
p6071
V:arg1~planet
p6072
V:beneficiary~i
p6073
tp6074
Vdescribe-01
p6075
tp6076
I1
s(V:time/IN :op1/NP , :arg0/NP XXX-VBD :arg1/NP .
p6077
V:root/ROOT~climb-01
p6078
(V:arg0~prince
p6079
V:arg1~mountain
p6080
V:time~after
p6081
tp6082
Vclimb-01
p6083
tp6084
I1
s(VXXX-CC , :op2/PP , :arg1/NP :arg1/VP .
p6085
V:root/ROOT~and
p6086
(V:op2~cause-01
p6087
tp6088
Vand
p6089
tp6090
I1
s(V:domain/NP :arg0-of/VP XXX-.
p6091
V:root/ROOT~person
p6092
(V:arg0-of~explore-01
p6093
V:domain~you
p6094
tp6095
Vperson
p6096
tp6097
I1
s(V'' XXX-CC :arg1/WHNP :arg3/SQ ? ''
p6098
V:root/ROOT~and
p6099
(V:op2~do-02
p6100
tp6101
Vand
p6102
tp6103
I2
s(V:time/PP :polarity/VP :op1/VB XXX-CC :op2/VB :arg1/NP .
p6104
V:root/ROOT~or
p6105
(V:op1~see-01
p6106
V:op2~hear-01
p6107
V:time~ever
p6108
tp6109
Vor
p6110
tp6111
I1
s(V:arg1-of/JJ XXX-NN . ''
p6112
V:root/ROOT~morning
p6113
(V:arg1-of~good-02
p6114
tp6115
Vmorning
p6116
tp6117
I1
s(V:arg0/NP :polarity/VBD :polarity/RB XXX-VB :arg1/S :mod/DT :arg1-of/JJ , :arg1-of/IN :arg2/NP .
p6118
V:root/ROOT~wish-01
p6119
(V:arg0~she
p6120
V:arg1~go-out-17
p6121
V:polarity~-
p6122
V:polarity~-
p6123
tp6124
Vwish-01
p6125
tp6126
I1
s(V:domain/NP is :polarity/RB the :mod/JJ XXX-NN . ''
p6127
V:root/ROOT~spot
p6128
(V:domain~this
p6129
V:mod~exact
p6130
tp6131
Vspot
p6132
tp6133
I1
s(Vbut :arg0/NP will XXX-NN :arg1/NP .
p6134
V:root/ROOT~pardon-01
p6135
(V:arg0~you
p6136
V:arg1-of~cause-01
p6137
V:arg1~he
p6138
V:frequency~occasion-02
p6139
V:frequency~occasion-02
p6140
tp6141
Vpardon-01
p6142
tp6143
I1
s(V:arg1/NP XXX-MD :arg2/VP ... ''
p6144
V:root/ROOT~obligate-01
p6145
(V:arg1~one
p6146
V:arg2~observe-01
p6147
tp6148
Vobligate-01
p6149
tp6150
I1
s(V:arg1/SBAR :arg1/WHNP be :arg2/. '' XXX-VBD :arg0/NP .
p6151
V:root/MULTI-SENTENCE~inquire-01
p6152
(V:arg0~prince
p6153
V:arg1~be-temporally-at-91
p6154
tp6155
Vinquire-01
p6156
tp6157
I1
s(V:arg1/NP XXX-VBZ :location/PRT :location/IN :location/NP , :op2/VP , :op3/VP .
p6158
V:root/ROOT~and
p6159
(V:op1~sit-down-02
p6160
V:op2~see-01
p6161
V:op3~hear-01
p6162
tp6163
Vand
p6164
tp6165
I1
s(VXXX-CC :condition/IN :arg0/S , then :arg0/NP :arg2/VP .
p6166
V:root/ROOT~contrast-01
p6167
(V:arg2~need-01
p6168
tp6169
Vcontrast-01
p6170
tp6171
I1
s(V'' XXX-DT .
p6172
V:root/ROOT~no
p6173
g58
Vno
p6174
tp6175
I2
s(V'' to :arg1/VB XXX-VB :arg2/SBAR . ''
p6176
V:root/ROOT~mean-01
p6177
(V:arg1~admire-01
p6178
V:arg2~regard-01
p6179
tp6180
Vmean-01
p6181
tp6182
I1
s(V:op1/S , XXX-CC :op2/S . ''
p6183
V:root/ROOT~and
p6184
(V:op1~come-01
p6185
V:op2~give-01
p6186
tp6187
Vand
p6188
tp6189
I1
s(V'' am :polarity/NP :arg1/ADJP ? '' :arg0/NP XXX-VBD , :manner/ADVP .
p6190
V:root/MULTI-SENTENCE~respond-01
p6191
(V:arg0~flower
p6192
V:arg1~beautiful-02
p6193
V:manner~sweet-03
p6194
tp6195
Vrespond-01
p6196
tp6197
I1
s(VXXX-CC :arg0/NP :degree/ADVP :op2/VP ...
p6198
V:root/ROOT~and
p6199
(V:op2~say-01
p6200
tp6201
Vand
p6202
tp6203
I1
s(VXXX-NN :mod/NP .
p6204
V:root/ROOT~chapter
p6205
(V:mod~18
p6206
tp6207
Vchapter
p6208
tp6209
I1
s(V:arg1/NP was a thing for the :mod/JJ :arg0/NN to XXX-VB at .
p6210
V:root/ROOT~marvel-01
p6211
(V:arg0~prince
p6212
V:arg1~power
p6213
tp6214
Vmarvel-01
p6215
tp6216
I1
s(V'' :arg1/S , '' XXX-VBD :arg1/NP .
p6217
V:root/ROOT~say-01
p6218
(V:arg0~person
p6219
V:arg1~do-02
p6220
tp6221
Vsay-01
p6222
tp6223
I1
s(V:op1/NP who was :arg1-of/PP :op2/PP - :mod/RB :mod/DT :quant/CD would XXX-VB :arg3-of/ADJP :op2/VP : :frequency/S .
p6224
V:root/ROOT~live-01
p6225
(V:arg0~and
p6226
V:arg1-of~cause-01
p6227
V:arg3-of~free-04
p6228
tp6229
Vlive-01
p6230
tp6231
I1
s(V:arg1/NP XXX-VBD :mod/ADVP .
p6232
V:root/ROOT~flush-03
p6233
(V:arg1~prince
p6234
V:mod~again
p6235
tp6236
Vflush-03
p6237
tp6238
I1
s(V'' :arg2/S , '' XXX-VBD :arg0/NP .
p6239
V:root/ROOT~reply-01
p6240
(V:arg0~businessman
p6241
V:arg2~administer-01
p6242
tp6243
Vreply-01
p6244
tp6245
I1
s(V'' :arg0/NP XXX-VBP :manner/ADVP .
p6246
V:root/ROOT~obey-01
p6247
(V:arg0~they
p6248
V:manner~instant
p6249
tp6250
Vobey-01
p6251
tp6252
I1
s(V'' :op1/CD :arg1/CC :op2/CD XXX-VBP :arg2/NP .
p6253
V:root/ROOT~equal-01
p6254
(V:arg1~sum-of
p6255
V:arg2~5
p6256
tp6257
Vequal-01
p6258
tp6259
I1
s(V'' do :arg2/NP :arg1/DT XXX-NN .
p6260
V:root/ROOT~kind-01
p6261
(V:arg0~you
p6262
V:arg1~this
p6263
V:arg2~i
p6264
tp6265
Vkind-01
p6266
tp6267
I1
s(Vthere is :polarity/DT XXX-NN :duration/IN :manner/NP . ''
p6268
V:root/ROOT~time
p6269
(V:duration~live-01
p6270
V:duration~live-01
p6271
V:polarity~-
p6272
V:purpose~dream-01
p6273
tp6274
Vtime
p6275
tp6276
I1
s(V'' XXX-WDT :arg1-of/VP :domain/. ''
p6277
V:root/ROOT~thing
p6278
(V:arg1-of~promise-01
p6279
V:domain~amr-unknown
p6280
tp6281
Vthing
p6282
tp6283
I1
s(VXXX-CC :direction/ADVP :arg2/RB :direction/RB :domain/NP is :degree/. ''
p6284
V:root/ROOT~contrast-01
p6285
(V:arg2~far
p6286
tp6287
Vcontrast-01
p6288
tp6289
I1
s(V:op1/S , XXX-CC :op2/S ... ''
p6290
V:root/ROOT~and
p6291
(V:op1~shut-01
p6292
V:op2~watch-01
p6293
tp6294
Vand
p6295
tp6296
I1
s(V:arg0/NP are :arg1/PRP$ :mod/JJ XXX-NNS .
p6297
V:root/ROOT~interest-01
p6298
(V:arg0~this
p6299
V:arg1~they
p6300
V:mod~only
p6301
tp6302
Vinterest-01
p6303
tp6304
I1
s(V:arg0/NP XXX-VBP :arg1/NP .
p6305
V:root/ROOT~have-03
p6306
(V:arg0~i
p6307
V:arg1~time
p6308
V:polarity~-
p6309
tp6310
Vhave-03
p6311
tp6312
I1
s(VXXX-CC :op2/NP
p6313
V:root/ROOT~and
p6314
(V:op2~understand-01
p6315
tp6316
Vand
p6317
tp6318
I1
s(V'' :arg0-of/IN :arg0/NP XXX-VBP :arg2/RB .
p6319
V:root/ROOT~see-01
p6320
(V:arg0-of~cause-01
p6321
V:arg0~man
p6322
V:arg2~double
p6323
tp6324
Vsee-01
p6325
tp6326
I1
s(VXXX-NN :mod/NP .
p6327
V:root/ROOT~chapter
p6328
(V:mod~26
p6329
tp6330
Vchapter
p6331
tp6332
I1
s(V'' yes , XXX-DT XXX-NN .
p6333
V:root/ROOT~temporal-quantity
p6334
g58
Vtemporal-quantity
p6335
tp6336
I1
s(V:arg0/NP XXX-MD :polarity/RB :arg1/VP .
p6337
V:root/ROOT~possible-01
p6338
(V:arg1~carry-01
p6339
V:polarity~-
p6340
tp6341
Vpossible-01
p6342
tp6343
I1
s(V'' five - hundred - and - one million , six - hundred - twenty - :arg2/NP - XXX-CD - one .
p6344
V:root/ROOT~have-quant-91
p6345
(V:arg2~501622731
p6346
tp6347
Vhave-quant-91
p6348
tp6349
I1
s(VXXX-WRB have :arg0/NP :mod/ADVP :arg1/VP :arg0/. ''
p6350
V:root/ROOT~cause-01
p6351
(V:arg0~amr-unknown
p6352
V:arg1~put-out-09
p6353
tp6354
Vcause-01
p6355
tp6356
I1
s(V'' :domain/NP am all :mod/FRAG , '' XXX-VBD :arg0/SBAR .
p6357
V:root/ROOT~answer-01
p6358
(V:arg0~echo-01
p6359
V:arg2~alone
p6360
tp6361
Vanswer-01
p6362
tp6363
I1
s(V:arg1/S , '' XXX-VBD :arg0/NP .
p6364
V:root/ROOT~say-01
p6365
(V:arg0~prince
p6366
V:arg1~understand-01
p6367
tp6368
Vsay-01
p6369
tp6370
I1
s(V'' XXX-RB !
p6371
V:root/ROOT~ah
p6372
g58
Vah
p6373
tp6374
I5
s(V'' :arg1/S , '' :arg0/NP XXX-VBD :mod/ADVP .
p6375
V:root/ROOT~speak-01
p6376
(V:arg0~snake
p6377
V:arg1~send-01
p6378
V:mod~again
p6379
tp6380
Vspeak-01
p6381
tp6382
I1
s(VXXX-IN , :mod/S , :domain/NP :arg1/VP .
p6383
V:root/ROOT~opine-01
p6384
(V:arg0~man
p6385
V:arg1~person
p6386
tp6387
Vopine-01
p6388
tp6389
I1
s(V:arg0/NP XXX-MD :arg1/S ...
p6390
V:root/ROOT~recommend-01
p6391
(V:arg1~run-02
p6392
tp6393
Vrecommend-01
p6394
tp6395
I1
s(V:arg0/NP XXX-MD :extent/VP .
p6396
V:root/ROOT~possible-01
p6397
(V:arg1~walk-01
p6398
tp6399
Vpossible-01
p6400
tp6401
I1
s(V:arg0/NP XXX-MD :polarity/RB :arg1/VP .
p6402
V:root/ROOT~possible-01
p6403
(V:arg1~know-01
p6404
V:polarity~-
p6405
tp6406
Vpossible-01
p6407
tp6408
I1
s(VXXX-CC :arg0/NP :op2/VP :domain/. ''
p6409
V:root/ROOT~and
p6410
(V:op2~leave-12
p6411
tp6412
Vand
p6413
tp6414
I1
s(V:time/ADVP , :arg0-of/PP , :arg0/NP XXX-VBD :arg1/NP .
p6415
V:root/ROOT~take-01
p6416
(V:arg0~he
p6417
V:arg1~leave-11
p6418
V:time~then
p6419
tp6420
Vtake-01
p6421
tp6422
I1
s(V:op1/CD :arg1/CC :op2/CD XXX-VBP :arg2/NP .
p6423
V:root/ROOT~equal-01
p6424
(V:arg1~sum-of
p6425
V:arg2~15
p6426
tp6427
Vequal-01
p6428
tp6429
I1
s(V:op2/NP was :extent/NP XXX-IN :arg0/NP :arg1/PP .
p6430
V:root/ROOT~accommodate-01
p6431
(V:arg0~it
p6432
V:arg1~and
p6433
V:extent~enough
p6434
tp6435
Vaccommodate-01
p6436
tp6437
I1
s(V:arg0/NP XXX-VBN :arg1/NP :ord/IN :arg2/NP .
p6438
V:root/ROOT~answer-01
p6439
(V:arg0~i
p6440
V:arg1~you
p6441
V:arg2~thing
p6442
tp6443
Vanswer-01
p6444
tp6445
I1
s(V:time/SBAR XXX-VBD :location/S , :mod/FRAG '' :op1/SBAR , :concession/RB :concession/WHADVP :arg0-of/S ... ''
p6446
V:root/ROOT~say-01
p6447
(V:arg0~i
p6448
V:arg1~move-05
p6449
V:arg2~coref
p6450
V:mod~again
p6451
V:time~open-01
p6452
V:time~open-01
p6453
tp6454
Vsay-01
p6455
tp6456
I1
s(V:op1/S , XXX-CC :op2/S .
p6457
V:root/ROOT~and
p6458
(V:op1~live-01
p6459
V:op2~tell-01
p6460
tp6461
Vand
p6462
tp6463
I1
s(V'' :arg1/ADVP , '' XXX-VBD :arg0/NP .
p6464
V:root/ROOT~say-01
p6465
(V:arg0~prince
p6466
V:arg1~goodbye
p6467
tp6468
Vsay-01
p6469
tp6470
I1
s(V:location-of/NP :location-of/MD be XXX-RB :time/NP-TMP . ''
p6471
V:root/ROOT~there
p6472
(V:location-of~i
p6473
V:location-of~i
p6474
V:time~date-entity
p6475
tp6476
Vthere
p6477
tp6478
I1
s(V:arg0/NP is :degree/RB XXX-JJ .
p6479
V:root/ROOT~disturb-01
p6480
(V:arg0~it
p6481
V:degree~very
p6482
tp6483
Vdisturb-01
p6484
tp6485
I1
s(VXXX-CC , :time/IN :op1/S , :arg0/NP :op1/VP !
p6486
V:root/ROOT~and
p6487
(V:op1~yawn-01
p6488
V:op2~say-01
p6489
V:time~after
p6490
tp6491
Vand
p6492
tp6493
I1
s(VXXX-CC :time/SBAR :arg1/NP :op2/VP .
p6494
V:root/ROOT~and
p6495
(V:op2~tear-01
p6496
tp6497
Vand
p6498
tp6499
I1
s(V'' :mod/ADVP XXX-NNS that :arg0-of/VP ? ''
p6500
V:root/ROOT~flower
p6501
(V:arg0-of~have-03
p6502
V:mod~even
p6503
tp6504
Vflower
p6505
tp6506
I1
s(V'' :poss/NP :part-of/ADVP - - :arg0/NP :op1/VP ; XXX-CC they are :degree/RB :op2/RB . ''
p6507
V:root/ROOT~and
p6508
(V:op1~look-02
p6509
V:op2~long-03
p6510
tp6511
Vand
p6512
tp6513
I1
s(V:arg0/NP was :polarity/RB XXX-JJ :op2/S .
p6514
V:root/ROOT~possible-01
p6515
(V:arg1~explain-01
p6516
V:polarity~-
p6517
tp6518
Vpossible-01
p6519
tp6520
I1
s(V:arg0/NP XXX-VBP :arg2/NP ? ''
p6521
V:root/ROOT~mean-01
p6522
(V:arg0~you
p6523
V:arg2~star
p6524
tp6525
Vmean-01
p6526
tp6527
I1
s(V'' :arg1/S , '' :arg0-of/NP XXX-VBD , :arg0-of/S .
p6528
V:root/ROOT~confess-01
p6529
(V:arg0~person
p6530
V:arg1~forget-01
p6531
tp6532
Vconfess-01
p6533
tp6534
I1
s(V'' XXX-NN !
p6535
V:root/ROOT~hum
p6536
g58
Vhum
p6537
tp6538
I4
s(V:arg1/S , XXX-CC :domain/S . ''
p6539
V:root/ROOT~contrast-01
p6540
(V:arg1~day
p6541
V:arg2~place
p6542
tp6543
Vcontrast-01
p6544
tp6545
I1
s(V'' :arg1/PP , '' XXX-VBD :arg0/NP , :arg1-of/PP .
p6546
V:root/ROOT~say-01
p6547
(V:arg0~king
p6548
V:arg1-of~simple-02
p6549
V:arg1~everything
p6550
tp6551
Vsay-01
p6552
tp6553
I1
s(V:arg1/NP are :degree/RB XXX-JJ :polarity/.
p6554
V:root/ROOT~consistent-01
p6555
(V:arg1~flower
p6556
V:degree~so
p6557
V:polarity~-
p6558
tp6559
Vconsistent-01
p6560
tp6561
I1
s(V:op1/S , XXX-CC :op3/VP ... ''
p6562
V:root/ROOT~and
p6563
(V:op1~rush-01
p6564
V:op2~excite-01
p6565
V:op3~turn-01
p6566
V:time~then
p6567
tp6568
Vand
p6569
tp6570
I1
s(V'' XXX-DT XXX-NN ? ''
p6571
V:root/ROOT~temporal-quantity
p6572
g58
Vtemporal-quantity
p6573
tp6574
I1
s(VXXX-NN !
p6575
V:root/ROOT~phew
p6576
g58
Vphew
p6577
tp6578
I1
s(V:arg0/ADVP XXX-VBD , '' :domain/S . ''
p6579
V:root/ROOT~reply-01
p6580
(V:arg0~i
p6581
V:arg2~so
p6582
tp6583
Vreply-01
p6584
tp6585
I1
s(VXXX-CC :arg0/NP :op2/VP .
p6586
V:root/ROOT~and
p6587
(V:op2~go-02
p6588
tp6589
Vand
p6590
tp6591
I3
s(V'' are XXX-EX :arg0-of/NP :location/PP ? ''
p6592
V:root/ROOT~person
p6593
(V:arg0-of~hunt-01
p6594
V:location~planet
p6595
tp6596
Vperson
p6597
tp6598
I1
s(V'' :domain/NP :arg1/ADVP would :arg0/NP :arg1/S ? '' :arg0/NP XXX-VBD .
p6599
V:root/MULTI-SENTENCE~ask-01
p6600
(V:arg0~he
p6601
V:arg1~advise-01
p6602
tp6603
Vask-01
p6604
tp6605
I1
s(V'' :domain/S , '' :arg0/NP XXX-VBD :domain/PP , :time/SBAR .
p6606
V:root/ROOT~say-01
p6607
(V:arg0~he
p6608
V:arg1~odd
p6609
V:arg2~coref
p6610
V:time~continue-01
p6611
tp6612
Vsay-01
p6613
tp6614
I2
s(V:arg0/NP XXX-MD - - ''
p6615
V:root/ROOT~possible-01
p6616
(V:arg1~do-02
p6617
tp6618
Vpossible-01
p6619
tp6620
I1
s(V'' XXX-UH ?
p6621
V:root/ROOT~eh
p6622
g58
Veh
p6623
tp6624
I1
s(V'' XXX-NNS :arg0-of/IN :arg1/NP :arg0-of/. ''
p6625
V:root/ROOT~matter
p6626
(V:arg0-of~have-03
p6627
V:arg0-of~have-03
p6628
tp6629
Vmatter
p6630
tp6631
I1
s(VXXX-CC :ord/NP :mod/VP .
p6632
V:root/ROOT~and
p6633
(V:op2~thunder-01
p6634
tp6635
Vand
p6636
tp6637
I1
s(V:domain/NP is :degree/JJ a :mod/JJ XXX-NN , :domain/NP .
p6638
V:root/ROOT~place
p6639
(V:domain~land
p6640
V:domain~land
p6641
V:mod~secret
p6642
tp6643
Vplace
p6644
tp6645
I1
s(V'' :arg0/NP XXX-VBZ :arg1/S . ''
p6646
V:root/ROOT~cause-01
p6647
(V:arg0~it
p6648
V:arg1~good-04
p6649
tp6650
Vcause-01
p6651
tp6652
I1
s(VXXX-PRP is :mod/RB :arg2/RB :direction/IN :op1/NP .
p6653
V:root/ROOT~be-located-at-91
p6654
(V:arg1~it
p6655
V:arg2~there
p6656
tp6657
Vbe-located-at-91
p6658
tp6659
I1
s(V:arg1/NP am XXX-VBN :arg0/PP .
p6660
V:root/ROOT~concern-01
p6661
(V:arg0~matter
p6662
V:arg1~i
p6663
tp6664
Vconcern-01
p6665
tp6666
I1
s(V:location/PP :domain/NP are :arg1-of/ADVP :degree/RB :degree/RB XXX-JJ :compared-to/S .
p6667
V:root/ROOT~small
p6668
(V:arg1-of~obvious-01
p6669
V:compared-to~clean-out-03
p6670
V:degree~too
p6671
V:domain~we
p6672
V:location~earth
p6673
tp6674
Vsmall
p6675
tp6676
I1
s(V:op1/CD :arg2/CC :op2/CD XXX-VBP :arg1/NP ... ''
p6677
V:root/ROOT~equal-01
p6678
(V:arg1~7
p6679
V:arg2~sum-of
p6680
tp6681
Vequal-01
p6682
tp6683
I1
s(V:op1/SBAR : :domain/NP was XXX-RB :op2/ADJP .
p6684
V:root/ROOT~and
p6685
(V:op1~absolute
p6686
V:op2~universal
p6687
tp6688
Vand
p6689
tp6690
I1
s(V'' is :arg1/NP in XXX-NN :arg1-of/IN :arg0/NP ? ''
p6691
V:root/ROOT~endanger-01
p6692
(V:arg1-of~cause-01
p6693
V:arg1~flower
p6694
tp6695
Vendanger-01
p6696
tp6697
I1
s(V'' :arg2/S , '' XXX-VBD :arg0-of/NP , :manner/IN :arg0/NP .
p6698
V:root/ROOT~reply-01
p6699
(V:arg0~person
p6700
V:arg2~drink-01
p6701
V:manner~lugubrious
p6702
V:manner~lugubrious
p6703
tp6704
Vreply-01
p6705
tp6706
I1
s(VXXX-CC it :arg2/VP .
p6707
V:root/ROOT~contrast-01
p6708
(V:arg2~come-upon-26
p6709
tp6710
Vcontrast-01
p6711
tp6712
I1
s(VXXX-NN :mod/NP .
p6713
V:root/ROOT~chapter
p6714
(V:mod~20
p6715
tp6716
Vchapter
p6717
tp6718
I1
s(V:arg0/NP :mod/ADVP XXX-VBD :arg1/PP .
p6719
V:root/ROOT~look-02
p6720
(V:arg0~they
p6721
V:arg1~flower
p6722
tp6723
Vlook-02
p6724
tp6725
I1
s(V'' :arg1/NP am :mod/RB XXX-JJ . ''
p6726
V:root/ROOT~happy-01
p6727
(V:arg1~i
p6728
V:mod~so
p6729
V:polarity~-
p6730
tp6731
Vhappy-01
p6732
tp6733
I1
s(V'' :arg0/NP XXX-FW :arg1/S . ''
p6734
V:root/ROOT~forbid-01
p6735
(V:arg0~i
p6736
V:arg1~do-02
p6737
V:arg2~you
p6738
tp6739
Vforbid-01
p6740
tp6741
I1
s(V:arg0/NP will XXX-VB :direction/S .
p6742
V:root/ROOT~bring-01
p6743
(V:arg0~grain
p6744
V:arg1~think-01
p6745
V:arg2~i
p6746
V:direction~back
p6747
tp6748
Vbring-01
p6749
tp6750
I1
s(V'' :arg1/NP are :polarity/DT XXX-JJR :compared-to/PP ... ''
p6751
V:root/ROOT~thick-03/more
p6752
(V:arg1~you
p6753
V:compared-to~finger
p6754
V:polarity~-
p6755
tp6756
Vthick-03/more
p6757
tp6758
I1
s(V:arg0-of/NP :arg0/VP , XXX-CC :op2/VP .
p6759
V:root/ROOT~and
p6760
(V:op1~end-01
p6761
V:op2~shut-up-06
p6762
tp6763
Vand
p6764
tp6765
I1
s(Vand :arg0/NP will XXX-VB :degree/WHADVP :arg1/S . ''
p6766
V:root/ROOT~see-01
p6767
(V:arg0~you
p6768
V:arg1~obey-01
p6769
tp6770
Vsee-01
p6771
tp6772
I1
s(V:arg1/LS , :arg0-of/PP , am :degree/RB XXX-JJ :arg0/S :arg0/VP ... ''
p6773
V:root/ROOT~glad-02
p6774
(V:arg0~have-rel-role-91
p6775
V:arg1~i
p6776
V:degree~very
p6777
tp6778
Vglad-02
p6779
tp6780
I1
s(VXXX-CC :arg1/NP :op2/VP .
p6781
V:root/ROOT~and
p6782
(V:op2~and
p6783
tp6784
Vand
p6785
tp6786
I1
s(V:arg1/NP is XXX-IN :quant/NP :arg2/NP ...
p6787
V:root/ROOT~resemble-01
p6788
(V:arg1~it
p6789
V:arg2~bell
p6790
tp6791
Vresemble-01
p6792
tp6793
I1
s(V'' XXX-RB , :arg0/NP :arg1/VP !
p6794
V:root/ROOT~ah-01
p6795
(V:arg1~interest-01
p6796
tp6797
Vah-01
p6798
tp6799
I1
s(V'' XXX-RB .
p6800
V:root/ROOT~certain
p6801
g58
Vcertain
p6802
tp6803
I1
s(V:arg0/NP XXX-VBD :arg2/PP , :arg1-of/ADVP '' the :arg1/VP ''
p6804
V:root/ROOT~say-01
p6805
(V:arg0~he
p6806
V:arg1-of~instead-of-91
p6807
V:arg1~important
p6808
V:arg2~i
p6809
tp6810
Vsay-01
p6811
tp6812
I1
s(V:arg0/NP was XXX-VBG :arg1/S .
p6813
V:root/ROOT~begin-01
p6814
(V:arg0~he
p6815
V:arg1~fear-01
p6816
V:time~flash-02
p6817
tp6818
Vbegin-01
p6819
tp6820
I1
s(V:arg0/NP :time/ADVP XXX-VBP :arg1/NP .
p6821
V:root/ROOT~hear-01
p6822
(V:arg0~person
p6823
V:arg1~anything
p6824
V:polarity~-
p6825
V:time~ever
p6826
tp6827
Vhear-01
p6828
tp6829
I1
s(VXXX-NN :mod/NP .
p6830
V:root/ROOT~chapter
p6831
(V:mod~19
p6832
tp6833
Vchapter
p6834
tp6835
I1
s(V:arg1/NP was XXX-VBN :arg0/PP .
p6836
V:root/ROOT~inhabit-01
p6837
(V:arg0~gentleman
p6838
V:arg1~it
p6839
tp6840
Vinhabit-01
p6841
tp6842
I1
s(VXXX-CC :arg0/NP :arg2/VP .
p6843
V:root/ROOT~contrast-01
p6844
(V:arg2~laugh-01
p6845
tp6846
Vcontrast-01
p6847
tp6848
I1
s(V:op1/S - - XXX-CC :op2/S .
p6849
V:root/ROOT~and
p6850
(V:op1~drop-01
p6851
V:op2~leap-03
p6852
tp6853
Vand
p6854
tp6855
I1
s(V'' :arg1/ADVP , '' XXX-VBD :arg0/NP .
p6856
V:root/ROOT~say-01
p6857
(V:arg0~fox
p6858
V:arg1~man
p6859
tp6860
Vsay-01
p6861
tp6862
I1
s(V:location/NP is :polarity/DT XXX-NN :location/ADVP :purpose/IN :purpose/NP .
p6863
V:root/ROOT~room
p6864
(V:location~here
p6865
V:location~here
p6866
V:polarity~-
p6867
V:purpose~carriage
p6868
V:purpose~carriage
p6869
tp6870
Vroom
p6871
tp6872
I1
s(V:arg0/NP XXX-MD :arg1/VP .
p6873
V:root/ROOT~possible-01
p6874
(V:arg1~judge-01
p6875
tp6876
Vpossible-01
p6877
tp6878
I1
s(V'' XXX-NNS ? ''
p6879
V:root/ROOT~bee
p6880
g58
Vbee
p6881
tp6882
I1
s(VXXX-CC :arg1/NP are :arg2/PP :arg0/PP ''
p6883
V:root/ROOT~contrast-01
p6884
(V:arg2~use-01
p6885
tp6886
Vcontrast-01
p6887
tp6888
I1
s(VXXX-CC then , too , :arg1/NP :op2/VP .
p6889
V:root/ROOT~and
p6890
(V:op2~begin-01
p6891
tp6892
Vand
p6893
tp6894
I1
s(V'' :arg0/NP will be :degree/RB XXX-JJ !
p6895
V:root/ROOT~amuse-01
p6896
(V:arg0~that
p6897
V:degree~so
p6898
tp6899
Vamuse-01
p6900
tp6901
I1
s(V:arg0/NP :polarity/VBD :polarity/RB XXX-VB :arg1/NP , :concession-of/CC :concession-of/S .
p6902
V:root/ROOT~understand-01
p6903
(V:arg0~i
p6904
V:arg1~answer
p6905
V:concession-of~say-01
p6906
V:concession-of~say-01
p6907
V:polarity~-
p6908
V:polarity~-
p6909
tp6910
Vunderstand-01
p6911
tp6912
I1
s(V:arg1/NP had XXX-VBN :time-of/PP .
p6913
V:root/ROOT~come-01
p6914
(V:arg1~she
p6915
V:time-of~seed
p6916
tp6917
Vcome-01
p6918
tp6919
I1
s(V:location-of/S , '' XXX-VBD :arg0/NP .
p6920
V:root/ROOT~exclaim-01
p6921
(V:arg0~king
p6922
V:arg1~here
p6923
V:time~see-01
p6924
tp6925
Vexclaim-01
p6926
tp6927
I1
s(V:arg2/NP are the XXX-NN :arg1/PP .
p6928
V:root/ROOT~source-01
p6929
(V:arg1~misunderstand-01
p6930
V:arg2~word
p6931
tp6932
Vsource-01
p6933
tp6934
I1
s(V'' :arg1-of/ADVP , '' XXX-VBD :arg0/NP .
p6935
V:root/ROOT~say-01
p6936
(V:arg0~rose
p6937
V:arg1~morning
p6938
tp6939
Vsay-01
p6940
tp6941
I1
s(V:arg0/NP :manner/ADVP XXX-VBD out :arg1/NP .
p6942
V:root/ROOT~clean-out-03
p6943
(V:arg0~he
p6944
V:arg1~volcano
p6945
V:manner~careful
p6946
tp6947
Vclean-out-03
p6948
tp6949
I1
s(V'' :polarity/S XXX-VBD :arg0/NP , who :arg0-of/VP .
p6950
V:root/ROOT~say-01
p6951
(V:arg0~king
p6952
V:arg1~go-02
p6953
tp6954
Vsay-01
p6955
tp6956
I1
s(Vare there XXX-NNS ? ''
p6957
V:root/ROOT~chicken
p6958
g58
Vchicken
p6959
tp6960
I1
s(V:arg1/NP :op1/VP XXX-CC :op2/VP .
p6961
V:root/ROOT~and
p6962
(V:op1~sit-down-02
p6963
V:op2~pant-01
p6964
tp6965
Vand
p6966
tp6967
I1
s(V'' :domain/S , '' XXX-VBD :arg0/NP .
p6968
V:root/ROOT~say-01
p6969
(V:arg0~switchman
p6970
V:arg1~one
p6971
tp6972
Vsay-01
p6973
tp6974
I1
s(V:condition/SBAR , i XXX-MD :op2/VP .
p6975
V:root/ROOT~possible-01
p6976
(V:arg1~and
p6977
V:condition~own-01
p6978
tp6979
Vpossible-01
p6980
tp6981
I1
s(V:arg1/NP were :direction/IN the XXX-PRP$ :direction/NN :arg4/PP ? ''
p6982
V:root/ROOT~go-02
p6983
(V:arg1~you
p6984
V:arg4~place
p6985
V:direction~back
p6986
V:direction~back
p6987
tp6988
Vgo-02
p6989
tp6990
I1
s(V'' XXX-CC what :op1/SQ :arg1/. ''
p6991
V:root/ROOT~and
p6992
(V:op1~do-02
p6993
tp6994
Vand
p6995
tp6996
I1
s(V:arg0/NP XXX-VBD :arg2/PP .
p6997
V:root/ROOT~say-01
p6998
(V:arg0~i
p6999
V:arg2~prince
p7000
tp7001
Vsay-01
p7002
tp7003
I2
s(V:arg0/NP XXX-VBD :arg2/PP '' :arg1/PP !
p7004
V:root/ROOT~say-01
p7005
(V:arg0~he
p7006
V:arg1~ah
p7007
V:arg2~i
p7008
V:manner~mere
p7009
tp7010
Vsay-01
p7011
tp7012
I1
s(V:arg1/S , XXX-CC :arg2/S : '' :arg1/S . ''
p7013
V:root/ROOT~contrast-01
p7014
(V:arg1~sad-02
p7015
V:arg2~tell-01
p7016
tp7017
Vcontrast-01
p7018
tp7019
I1
s(V'' i :arg1/MD :arg1/S , '' :arg0/NP XXX-VBD :arg2/PP :time/NP-TMP . ''
p7020
V:root/ROOT~confide-01
p7021
(V:arg0~he
p7022
V:arg1~recommend-01
p7023
V:arg2~i
p7024
V:time~day
p7025
tp7026
Vconfide-01
p7027
tp7028
I1
s(V'' :time/PP are XXX-NN .
p7029
V:root/ROOT~nothing
p7030
(V:domain~you
p7031
V:time~as-yet
p7032
V:time~as-yet
p7033
tp7034
Vnothing
p7035
tp7036
I1
s(VXXX-CC :arg0/NP :arg2/VP : '' :duration/PRN ... :arg1/S ... ''
p7037
V:root/ROOT~contrast-01
p7038
(V:arg2~say-01
p7039
tp7040
Vcontrast-01
p7041
tp7042
I1
s(V'' to whom :arg2/SQ :arg1/. '' :arg0/NP XXX-VBD , :manner/ADVP .
p7043
V:root/MULTI-SENTENCE~retort-01
p7044
(V:arg0~businessman
p7045
V:arg2~belong-01
p7046
V:manner~peevish
p7047
tp7048
Vretort-01
p7049
tp7050
I1
s(V'' :arg1/S , '' XXX-VBD :arg0/NP .
p7051
V:root/ROOT~say-01
p7052
(V:arg0~snake
p7053
V:arg1~possible-01
p7054
tp7055
Vsay-01
p7056
tp7057
I1
s(V'' the :arg1/NNS - - :arg2/WHNP XXX-NN are they ? ''
p7058
V:root/ROOT~use-01
p7059
(V:arg1~thorn
p7060
V:arg2~amr-unknown
p7061
tp7062
Vuse-01
p7063
tp7064
I1
s(VXXX-CC :arg1/S : '' :arg1/S .
p7065
V:root/ROOT~have-concession-91
p7066
(V:arg1~say-01
p7067
tp7068
Vhave-concession-91
p7069
tp7070
I1
s(V:time/ADVP :arg0/NP XXX-VBD : '' :arg1/PRN .
p7071
V:root/ROOT~add-01
p7072
(V:arg0~she
p7073
V:arg1~linger-01
p7074
V:time~then
p7075
tp7076
Vadd-01
p7077
tp7078
I1
s(V:domain/NP was an :mod/JJ XXX-NN .
p7079
V:root/ROOT~monarch
p7080
(V:domain~he
p7081
V:mod~absolute
p7082
tp7083
Vmonarch
p7084
tp7085
I1
s(V:arg0/NP XXX-VBD :arg1/PP : '' :arg0/S .
p7086
V:root/ROOT~go-on-25
p7087
(V:arg0~prince
p7088
V:arg1~explain-01
p7089
tp7090
Vgo-on-25
p7091
tp7092
I1
s(VXXX-CC there is :arg2/NP ... :time/SBAR .
p7093
V:root/ROOT~contrast-01
p7094
(V:arg2~thing
p7095
tp7096
Vcontrast-01
p7097
tp7098
I1
s(V:arg0/NP will XXX-VB .
p7099
V:root/ROOT~suffer-01
p7100
(V:arg0~you
p7101
tp7102
Vsuffer-01
p7103
tp7104
I1
s(V:arg0/NP :polarity/VBD :polarity/RB XXX-VB .
p7105
V:root/ROOT~know-01
p7106
(V:arg0~i
p7107
V:polarity~-
p7108
V:polarity~-
p7109
tp7110
Vknow-01
p7111
tp7112
I1
s(V:arg0/NP XXX-VBD :arg1/NP :subevent-of/PP .
p7113
V:root/ROOT~raise-01
p7114
(V:arg0~man
p7115
V:arg1~hat
p7116
V:subevent-of~salute-01
p7117
tp7118
Vraise-01
p7119
tp7120
I1
s(V:degree/NP is :degree/RB :arg1-of/RB :arg1-of/IN :arg0/NP XXX-VBZ :poss/NP .
p7121
V:root/ROOT~empty-01
p7122
(V:arg0~ocean
p7123
V:arg1-of~rare-02
p7124
V:arg1-of~rare-02
p7125
V:arg1~coref
p7126
V:arg2~water
p7127
tp7128
Vempty-01
p7129
tp7130
I1
s(V'' :arg0/NP XXX-VBP :arg1/PP , :arg1-of/IN :arg0/S . ''
p7131
V:root/ROOT~belong-01
p7132
(V:arg0~they
p7133
V:arg1-of~cause-01
p7134
V:arg1~i
p7135
tp7136
Vbelong-01
p7137
tp7138
I1
s(V:arg0/NP has :polarity/ADVP XXX-VBN :arg1/NP .
p7139
V:root/ROOT~love-01
p7140
(V:arg0~he
p7141
V:arg1~anyone
p7142
V:polarity~-
p7143
V:time~ever
p7144
tp7145
Vlove-01
p7146
tp7147
I1
s(VXXX-CC :arg0/NP :arg1/VP .
p7148
V:root/ROOT~have-concession-91
p7149
(V:arg1~answer-01
p7150
tp7151
Vhave-concession-91
p7152
tp7153
I1
s(V'' :arg1/S , '' :arg0/NP XXX-VBD .
p7154
V:root/ROOT~reply-01
p7155
(V:arg0~man
p7156
V:arg1~hat
p7157
tp7158
Vreply-01
p7159
tp7160
I1
s(V'' :arg0/S , '' :arg0/NP XXX-VBD to himself .
p7161
V:root/ROOT~say-01
p7162
(V:arg0~prince
p7163
V:arg1~entertain-01
p7164
V:arg2~coref
p7165
tp7166
Vsay-01
p7167
tp7168
I1
s(VXXX-NN :mod/NP .
p7169
V:root/ROOT~chapter
p7170
(V:mod~13
p7171
tp7172
Vchapter
p7173
tp7174
I1
s(V'' XXX-NN .
p7175
V:root/ROOT~nothing
p7176
g58
Vnothing
p7177
tp7178
I1
s(V:op1/S , XXX-CC :op2/S .
p7179
V:root/ROOT~and
p7180
(V:op1~adore-01
p7181
V:op2~please-01
p7182
tp7183
Vand
p7184
tp7185
I1
s(V'' :domain/NP are XXX-WP :arg0-of/S , :arg1/NP .
p7186
V:root/ROOT~thing
p7187
(V:arg0-of~make-02
p7188
V:domain~they
p7189
tp7190
Vthing
p7191
tp7192
I1
s(VXXX-CC :arg0/NP :arg2/VP .
p7193
V:root/ROOT~contrast-01
p7194
(V:arg2~receive-01
p7195
tp7196
Vcontrast-01
p7197
tp7198
I1
s(VXXX-CC :arg0/NP :op1/VP ! ''
p7199
V:root/ROOT~and
p7200
(V:op1~think-01
p7201
tp7202
Vand
p7203
tp7204
I1
s(V:degree/NP is :degree/RB XXX-JJ . ''
p7205
V:root/ROOT~heavy
p7206
(V:degree~too
p7207
V:degree~too
p7208
tp7209
Vheavy
p7210
tp7211
I1
s(VXXX-IN :arg0/NP :domain/NP :arg1/VP .
p7212
V:root/ROOT~opine-01
p7213
(V:arg0~businessman
p7214
V:arg1~wealth
p7215
tp7216
Vopine-01
p7217
tp7218
I1
s(V'' :arg1/S , '' :arg0/NP XXX-VBD .
p7219
V:root/ROOT~say-01
p7220
(V:arg0~king
p7221
V:arg1~do-02
p7222
tp7223
Vsay-01
p7224
tp7225
I1
s(V'' :arg0/NP :op1/VP XXX-CC :op2/VP .
p7226
V:root/ROOT~and
p7227
(V:op1~count-01
p7228
V:op2~recount-01
p7229
tp7230
Vand
p7231
tp7232
I1
s(VXXX-CC :arg0/NP :arg1/VP . ''
p7233
V:root/ROOT~contrast-01
p7234
(V:arg2~possible-01
p7235
tp7236
Vcontrast-01
p7237
tp7238
I1
s(V:arg1-of/RB then the :ord/JJ XXX-NN was the earth .
p7239
V:root/ROOT~planet
p7240
(V:arg1-of~cause-01
p7241
V:domain~planet/name
p7242
V:ord~ordinal-entity
p7243
tp7244
Vplanet
p7245
tp7246
I1
s(V:arg0/NP :op1/VBD :arg1/NP over , XXX-CC :op2/VP '' :arg0/NP - - they :arg1/VP . ''
p7247
V:root/ROOT~and
p7248
(V:op1~look-01
p7249
V:op2~laugh-01
p7250
tp7251
Vand
p7252
tp7253
I1
s(VXXX-CC :arg0/NP :op2/VP .
p7254
V:root/ROOT~and
p7255
(V:op2~moan-01
p7256
tp7257
Vand
p7258
tp7259
I1
s(Vthey XXX-JJ :arg0/NP :compared-to/PP .
p7260
V:root/ROOT~fancy-01
p7261
(V:arg0~they
p7262
V:arg1~important
p7263
tp7264
Vfancy-01
p7265
tp7266
I1
s(V:arg1/NP :op1/VP , XXX-CC :op2/VP .
p7267
V:root/ROOT~and
p7268
(V:op1~sit-down-02
p7269
V:op2~raise-01
p7270
tp7271
Vand
p7272
tp7273
I1
s(V:direction/SBAR , i XXX-VBD :location/IN :arg1/NP , :arg0-of/IN :arg1/NP .
p7274
V:root/ROOT~see-01
p7275
(V:arg0~i
p7276
V:arg1~sit-01
p7277
V:time~return-01
p7278
tp7279
Vsee-01
p7280
tp7281
I1
s(V'' :arg1/S , '' XXX-VBD :arg0/NP .
p7282
V:root/ROOT~say-01
p7283
(V:arg0~prince
p7284
V:arg1~look-01
p7285
tp7286
Vsay-01
p7287
tp7288
I1
s(V:arg0/NP XXX-VBP :arg1/NP :mod/ADVP :purpose/PP ! ''
p7289
V:root/ROOT~have-03
p7290
(V:arg0~flower
p7291
V:arg1~thorn
p7292
V:mod~just
p7293
V:purpose~spite
p7294
tp7295
Vhave-03
p7296
tp7297
I1
s(V:arg0/NP XXX-MD :time/ADVP :arg2/VP .
p7298
V:root/ROOT~have-rel-role-91
p7299
(V:arg0~you
p7300
V:arg1~i
p7301
V:arg2~friend
p7302
V:time~always
p7303
tp7304
Vhave-rel-role-91
p7305
tp7306
I1
s(V:arg0/NP had XXX-JJ the :arg1/NN .
p7307
V:root/ROOT~drink-01
p7308
(V:arg0~i
p7309
V:arg1~water
p7310
tp7311
Vdrink-01
p7312
tp7313
I1
s(V:op1/S , these would XXX-VB :arg0/PRT :purpose/S .
p7314
V:root/ROOT~go-02
p7315
(V:arg0~they
p7316
V:purpose~sleep-01
p7317
V:time~after
p7318
tp7319
Vgo-02
p7320
tp7321
I1
s(V:arg2-of/PRP$ XXX-NN :arg2-of/VP .
p7322
V:root/ROOT~look-01
p7323
(V:arg0~he
p7324
V:arg1-of~resemble-01
p7325
V:arg2-of~serious-01
p7326
V:arg2-of~serious-01
p7327
tp7328
Vlook-01
p7329
tp7330
I1
s(V:location/NP are a - XXX-NN :arg0/PP ''
p7331
V:root/ROOT~bloom-01
p7332
(V:arg0~flower
p7333
V:location~star
p7334
tp7335
Vbloom-01
p7336
tp7337
I1
s(VXXX-CC :arg0/NP :time/ADVP :arg2/VP . ''
p7338
V:root/ROOT~contrast-01
p7339
(V:arg2~know-01
p7340
tp7341
Vcontrast-01
p7342
tp7343
I1
s(VXXX-CC :condition/SBAR !
p7344
V:root/ROOT~and
p7345
(V:op1~oh
p7346
tp7347
Vand
p7348
tp7349
I1
s(V'' :arg1/ADVP , '' :arg0/NP XXX-VBD .
p7350
V:root/ROOT~say-01
p7351
(V:arg0~geographer
p7352
V:arg1~exact
p7353
tp7354
Vsay-01
p7355
tp7356
I1
s(VXXX-CC :arg0/NP :op2/VP .
p7357
V:root/ROOT~and
p7358
(V:op2~realize-01
p7359
tp7360
Vand
p7361
tp7362
I1
s(VXXX-CC , :time/IN :time/S , :arg0/NP :op2/VP .
p7363
V:root/ROOT~and
p7364
(V:op2~find-01
p7365
tp7366
Vand
p7367
tp7368
I1
s(V'' what does that XXX-NN - - ' :arg1/VP :arg2/. ''
p7369
V:root/ROOT~mean-01
p7370
(V:arg1~admire-01
p7371
V:arg2~amr-unknown
p7372
tp7373
Vmean-01
p7374
tp7375
I1
s(V'' :arg1/WHADVP :arg1/SQ :arg2/. '' :arg0/NP XXX-VBD , :manner/ADVP .
p7376
V:root/MULTI-SENTENCE~ask-01
p7377
(V:arg0~prince
p7378
V:arg1~be-located-at-91
p7379
V:manner~polite-01
p7380
tp7381
Vask-01
p7382
tp7383
I1
s(Vfive - hundred - XXX-CC :op1/PRN - :arg1/S ...
p7384
V:root/ROOT~and
p7385
(V:op1~501000000
p7386
V:op2~possible-01
p7387
tp7388
Vand
p7389
tp7390
I1
s(V'' :arg1/S , '' :arg0/NP XXX-VBD :domain/PP , :time/SBAR .
p7391
V:root/ROOT~say-01
p7392
(V:arg0~prince
p7393
V:arg1~strange
p7394
V:arg2~coref
p7395
V:time~continue-01
p7396
tp7397
Vsay-01
p7398
tp7399
I1
s(Vbut :arg0/NP was XXX-VBG ...
p7400
V:root/ROOT~wonder-01
p7401
(V:arg0~prince
p7402
tp7403
Vwonder-01
p7404
tp7405
I1
s(Vand , :manner/ADVP , :arg0/NP XXX-VBD :arg1/NP .
p7406
V:root/ROOT~show-01
p7407
(V:arg0~she
p7408
V:arg1~thorn
p7409
V:manner~naive
p7410
tp7411
Vshow-01
p7412
tp7413
I1
s(V'' :time/S , '' XXX-VBD :arg0/NP .
p7414
V:root/ROOT~say-01
p7415
(V:arg0~switchman
p7416
V:arg1~satisfy-01
p7417
tp7418
Vsay-01
p7419
tp7420
I1
s(V'' what does :arg1/NP XXX-VB :arg2/. ''
p7421
V:root/ROOT~mean-01
p7422
(V:arg1~this
p7423
V:arg2~amr-unknown
p7424
tp7425
Vmean-01
p7426
tp7427
I1
s(V:arg2/NP , XXX-RB , :arg0/VP : '' :polarity/PRN - :arg1/S ?
p7428
V:root/ROOT~contrast-01
p7429
(V:arg2~question-01
p7430
tp7431
Vcontrast-01
p7432
tp7433
I1
s(V'' what are :arg0/NP XXX-VBG for :arg1/. ''
p7434
V:root/ROOT~look-01
p7435
(V:arg0~they
p7436
V:arg1~amr-unknown
p7437
tp7438
Vlook-01
p7439
tp7440
I1
s(V'' :arg1/NP XXX-MD :polarity/RB :arg1/VP .
p7441
V:root/ROOT~possible-01
p7442
(V:arg1~die-01
p7443
V:polarity~-
p7444
tp7445
Vpossible-01
p7446
tp7447
I1
s(VXXX-CC :arg0/NP :op1/VP .
p7448
V:root/ROOT~and
p7449
(V:op2~and
p7450
tp7451
Vand
p7452
tp7453
I1
s(V:ord/NP was :quant/NP , XXX-WRB :time-of/S :arg3/VP .
p7454
V:root/ROOT~be-temporally-at-91
p7455
(V:arg1~disturb-01
p7456
V:arg2~before
p7457
tp7458
Vbe-temporally-at-91
p7459
tp7460
I1
s(V'' :arg1/S , '' :arg0/NP XXX-VBD .
p7461
V:root/ROOT~say-01
p7462
(V:arg0~he
p7463
V:arg1~glad-02
p7464
tp7465
Vsay-01
p7466
tp7467
I1
s(VXXX-CC :time/ADVP :arg1/NP :op2/VP ...
p7468
V:root/ROOT~and
p7469
(V:op2~go-on-15
p7470
V:time~now
p7471
tp7472
Vand
p7473
tp7474
I1
s(V:arg0/LS XXX-VB :arg1/NP . ''
p7475
V:root/ROOT~own-01
p7476
(V:arg0~i
p7477
V:arg1~they
p7478
tp7479
Vown-01
p7480
tp7481
I1
s(VXXX-RB :arg1-of/PP : i :arg1/VP . ''
p7482
V:root/ROOT~cause-01
p7483
(V:arg0~think-01
p7484
V:arg1-of~resemble-01
p7485
V:arg1~own-01
p7486
tp7487
Vcause-01
p7488
tp7489
I1
s(V:arg0/NP :arg1/VBD :arg1/NP to :arg1/NP , XXX-CC :arg2/NP : '' :arg0/S
p7490
V:root/ROOT~contrast-01
p7491
(V:arg1~make-01
p7492
V:arg2~add-01
p7493
tp7494
Vcontrast-01
p7495
tp7496
I1
s(V:arg0/NP XXX-MD :arg1/VP ... ''
p7497
V:root/ROOT~recommend-01
p7498
(V:arg1~look-01
p7499
tp7500
Vrecommend-01
p7501
tp7502
I1
s(V:domain/NP is :mod/DT :degree/RB XXX-JJ .
p7503
V:root/ROOT~small
p7504
(V:degree~so
p7505
V:domain~it
p7506
tp7507
Vsmall
p7508
tp7509
I1
s(V'' :source/IN :compared-to/NP :arg1-of/ADVP , '' :arg0/NP XXX-VBD to himself , '' i :arg1/VP ''
p7510
V:root/ROOT~say-01
p7511
(V:arg0~he
p7512
V:arg1~possible-01
p7513
V:arg2~coref
p7514
tp7515
Vsay-01
p7516
tp7517
I1
s(V:arg0/NP :polarity/ADVP XXX-VBD :arg1/VP .
p7518
V:root/ROOT~let-01
p7519
(V:arg0~prince
p7520
V:arg1~go-01
p7521
V:polarity~-
p7522
V:time~once
p7523
tp7524
Vlet-01
p7525
tp7526
I1
s(V:arg0/NP will XXX-VB :arg2-of/S .
p7527
V:root/ROOT~draw-01
p7528
(V:arg0~i
p7529
V:arg1~thing
p7530
V:arg2~you
p7531
tp7532
Vdraw-01
p7533
tp7534
I1
s(V:quant/NP XXX-. ''
p7535
V:root/ROOT~amr-unknown
p7536
(V:quant~multiple
p7537
tp7538
Vamr-unknown
p7539
tp7540
I1
s(VXXX-CC :arg1-of/NP :time/ADVP :arg2/VP .
p7541
V:root/ROOT~contrast-01
p7542
(V:arg2~know-01
p7543
tp7544
Vcontrast-01
p7545
tp7546
I1
s(V:arg0/NP will :time/ADVP have been XXX-JJ :arg1/S .
p7547
V:root/ROOT~possible-01
p7548
(V:arg1~fasten-01
p7549
V:polarity~-
p7550
V:time~ever
p7551
tp7552
Vpossible-01
p7553
tp7554
I1
s(Vso , :mod/ADVP , :arg0/NP XXX-VBD :degree/RB :arg1-of/RB :arg1/S .
p7555
V:root/ROOT~begin-01
p7556
(V:arg0~she
p7557
V:arg1-of~quick-02
p7558
V:arg1~torment-01
p7559
V:mod~too
p7560
tp7561
Vbegin-01
p7562
tp7563
I1
s(V:arg1/NP will be XXX-IN :arg2/NP ''
p7564
V:root/ROOT~resemble-01
p7565
(V:arg1~it
p7566
V:arg2~time
p7567
tp7568
Vresemble-01
p7569
tp7570
I1
s(VXXX-CC :arg0/NP :op2/VP ''
p7571
V:root/ROOT~and
p7572
(V:op2~have-03
p7573
tp7574
Vand
p7575
tp7576
I1
s(V'' :arg1/ADVP , '' XXX-VBD :arg0/NP :arg1-of/ADVP .
p7577
V:root/ROOT~say-01
p7578
(V:arg0~prince
p7579
V:arg1-of~firm-03
p7580
V:arg1~you
p7581
tp7582
Vsay-01
p7583
tp7584
I1
s(V:time/ADVP , :arg1/NP of china XXX-CC siberia :op1/VP , :source/CC :time/RB :op2/S .
p7585
V:root/ROOT~and
p7586
(V:op1~enter-01
p7587
V:op2~wave-02
p7588
tp7589
Vand
p7590
tp7591
I1
s(V:domain/NP is :domain/DT :arg1-of/ADJP XXX-NN . ''
p7592
V:root/ROOT~matter
p7593
(V:arg1-of~differ-02
p7594
V:domain~it
p7595
V:domain~it
p7596
tp7597
Vmatter
p7598
tp7599
I1
s(V:domain/NP was :arg1-of/ADVP :degree/RB XXX-JJ .
p7600
V:root/ROOT~angry
p7601
(V:arg1-of~real-04
p7602
V:degree~very
p7603
V:domain~he
p7604
tp7605
Vangry
p7606
tp7607
I1
s(V'' what are the XXX-NNS :arg2/. ''
p7608
V:root/ROOT~order-01
p7609
(V:arg2~amr-unknown
p7610
tp7611
Vorder-01
p7612
tp7613
I1
s(V:arg1/NP XXX-VBD :arg3/PP :time/SBAR : '' :condition/S .
p7614
V:root/ROOT~turn-02
p7615
(V:arg1~face
p7616
V:arg2~red-02
p7617
V:arg3~white-03
p7618
V:time~continue-02
p7619
tp7620
Vturn-02
p7621
tp7622
I1
s(Vare :arg0/NP XXX-VBG :arg1/PP ? ''
p7623
V:root/ROOT~look-01
p7624
(V:arg0~you
p7625
V:arg1~chicken
p7626
tp7627
Vlook-01
p7628
tp7629
I1
s(V'' :arg2/S , '' XXX-VBD :arg0/NP .
p7630
V:root/ROOT~say-01
p7631
(V:arg0~snake
p7632
V:arg1~contrast-01
p7633
tp7634
Vsay-01
p7635
tp7636
I1
s(VXXX-CC :condition/SBAR , :arg1/S , and :arg2/S . ''
p7637
V:root/ROOT~contrast-01
p7638
(V:arg2~vacation-01
p7639
tp7640
Vcontrast-01
p7641
tp7642
I1
s(Vit is :location/ADVP that :arg1/NP :op1/VP , XXX-CC :op2/VP .
p7643
V:root/ROOT~and
p7644
(V:location~here
p7645
V:op1~appear-01
p7646
V:op2~disappear-01
p7647
tp7648
Vand
p7649
tp7650
I1
s(V:arg0/NP XXX-VBD :arg2/S , :arg1-of/FRAG '' :arg1/S :arg1/PP ...
p7651
V:root/ROOT~say-01
p7652
(V:arg0~he
p7653
V:arg1-of~instead-of-91
p7654
V:arg1~descend-01
p7655
V:arg2~i
p7656
tp7657
Vsay-01
p7658
tp7659
I1
s(V'' :arg0/NP XXX-VB :arg1/NP .
p7660
V:root/ROOT~ask-02
p7661
(V:arg0~i
p7662
V:arg1~forgive-01
p7663
V:arg2~you
p7664
tp7665
Vask-02
p7666
tp7667
I1
s(V:arg1/NP is of :polarity/DT XXX-NN :arg0/PP .
p7668
V:root/ROOT~use-01
p7669
(V:arg0~i
p7670
V:arg1~wheat
p7671
V:polarity~-
p7672
tp7673
Vuse-01
p7674
tp7675
I1
s(V:ord/NP , :quant/NP :time/RB , :arg1/NP was XXX-VBN :ord/IN :arg0/NP .
p7676
V:root/ROOT~disturb-01
p7677
(V:arg0~attack-01
p7678
V:arg1~i
p7679
V:domain~disturb-01
p7680
V:time~before
p7681
tp7682
Vdisturb-01
p7683
tp7684
I1
s(V'' XXX-RB , :arg1/NP :arg2/VP .
p7685
V:root/ROOT~have-concession-91
p7686
(V:arg2~obligate-01
p7687
tp7688
Vhave-concession-91
p7689
tp7690
I1
s(V'' :arg1/S , '' :arg0/NP XXX-VBD :arg2/PP .
p7691
V:root/ROOT~say-01
p7692
(V:arg0~king
p7693
V:arg1~know-01
p7694
V:arg2~he
p7695
tp7696
Vsay-01
p7697
tp7698
I1
s(VXXX-VB :arg0/NP . ''
p7699
V:root/ROOT~admire-01
p7700
(V:arg0~you
p7701
V:arg1~i
p7702
V:manner~same-01
p7703
tp7704
Vadmire-01
p7705
tp7706
I1
s(V:mod/WHPP :time/NP now was :op1/NP , :op2/NP , XXX-CC :op3/NP , or :op4/NP ?
p7707
V:root/ROOT~or
p7708
(V:op1~hammer
p7709
V:op2~bolt
p7710
V:op3~thirst-01
p7711
V:op4~die-01
p7712
V:time~moment
p7713
tp7714
Vor
p7715
tp7716
I1
s(V:arg0/NP was XXX-VBG :arg1/NP .
p7717
V:root/ROOT~regret-01
p7718
(V:arg0~he
p7719
V:arg1~lose-02
p7720
tp7721
Vregret-01
p7722
tp7723
I1
s(VXXX-NN !
p7724
V:root/ROOT~hum
p7725
g58
Vhum
p7726
tp7727
I1
s(V:time/PP :arg0/NP XXX-VBP to myself : :arg1-of/VP :arg2/PP :arg1/.
p7728
V:root/ROOT~say-01
p7729
(V:arg0~i
p7730
V:arg1~have-polarity-91
p7731
V:arg2~coref
p7732
V:time~one
p7733
tp7734
Vsay-01
p7735
tp7736
I1
s(V'' :arg1/S , '' XXX-VBD :arg0/NP .
p7737
V:root/ROOT~sigh-01
p7738
(V:arg0~fox
p7739
V:arg1~perfect-02
p7740
tp7741
Vsigh-01
p7742
tp7743
I1
s(V'' :arg0/NP XXX-VBD :arg0/NP , '' :op1/PRN :op2/VP . ''
p7744
V:root/ROOT~say-01
p7745
(V:arg0~prince
p7746
V:arg1~and
p7747
tp7748
Vsay-01
p7749
tp7750
I1
s(V'' :arg1-of/ADVP , '' XXX-VBD :arg0/NP .
p7751
V:root/ROOT~say-01
p7752
(V:arg0~switchman
p7753
V:arg1~morning
p7754
tp7755
Vsay-01
p7756
tp7757
I1
s(V:arg0/NP XXX-MD :polarity/RB :arg1/VP .
p7758
V:root/ROOT~obligate-01
p7759
(V:arg1~bite-01
p7760
tp7761
Vobligate-01
p7762
tp7763
I1
s(V:arg0/NP XXX-VBP - - :degree/WHADJP :arg1/S . ''
p7764
V:root/ROOT~remember-01
p7765
(V:arg0~you
p7766
V:arg1~good-02
p7767
tp7768
Vremember-01
p7769
tp7770
I1
s(V'' :arg2/NP - - :arg2/WHPP XXX-VBP you :arg1/VP :arg1/. ''
p7771
V:root/ROOT~say-01
p7772
(V:arg1~rule-03
p7773
V:arg2~person
p7774
tp7775
Vsay-01
p7776
tp7777
I1
s(V:arg0/NP XXX-VBD .
p7778
V:root/ROOT~cough-01
p7779
(V:arg0~flower
p7780
tp7781
Vcough-01
p7782
tp7783
I1
s(V'' :arg0/NP was just going to XXX-VB :arg1/PP :time/SBAR ... ''
p7784
V:root/ROOT~look-01
p7785
(V:arg0~i
p7786
V:arg1~it
p7787
V:time~speak-01
p7788
tp7789
Vlook-01
p7790
tp7791
I1
s(V:arg0/NP have XXX-VBN :arg1/S .
p7792
V:root/ROOT~decide-01
p7793
(V:arg0~you
p7794
V:arg1~go-02
p7795
tp7796
Vdecide-01
p7797
tp7798
I1
s(V:arg0/NP XXX-VBD :arg1/TO :arg2/NP , '' :op1/PRN ; :op1/S ; :op2/S ; :concession-of/CC :op3/S ! ''
p7799
V:root/ROOT~say-01
p7800
(V:arg0~i
p7801
V:arg1~and
p7802
V:arg2~prince
p7803
tp7804
Vsay-01
p7805
tp7806
I1
s(V:time/SBAR , he XXX-VBD :arg1-of/IN :arg1/S .
p7807
V:root/ROOT~feel-01
p7808
(V:arg0~prince
p7809
V:arg1~love-01
p7810
V:time~watch-01
p7811
tp7812
Vfeel-01
p7813
tp7814
I1
s(V:arg1/NP XXX-VBD :degree/IN :manner/ADVP :compared-to/SBAR .
p7815
V:root/ROOT~fall-01
p7816
(V:arg1~he
p7817
V:manner~gentle
p7818
tp7819
Vfall-01
p7820
tp7821
I1
s(Vit is XXX-JJ :domain/S .
p7822
V:root/ROOT~absurd
p7823
(V:domain~look-01
p7824
V:domain~look-01
p7825
tp7826
Vabsurd
p7827
tp7828
I1
s(V:time/ADVP :arg0/NP XXX-VBD :arg1/NP :arg2/PP .
p7829
V:root/ROOT~mop-01
p7830
(V:arg0~he
p7831
V:arg1~forehead
p7832
V:arg2~handkerchief
p7833
V:time~then
p7834
tp7835
Vmop-01
p7836
tp7837
I1
s(VXXX-TO :arg0/NP , :domain/NP :mod/VP .
p7838
V:root/ROOT~opine-01
p7839
(V:arg0~you
p7840
V:arg1~fox
p7841
tp7842
Vopine-01
p7843
tp7844
I1
s(V'' :domain/NP is XXX-JJ , ''
p7845
V:root/ROOT~strange
p7846
(V:domain~it
p7847
tp7848
Vstrange
p7849
tp7850
I1
s(V:arg0/LS XXX-VBP :arg0/PP :arg1/VP ... ''
p7851
V:root/ROOT~think-01
p7852
(V:arg0~i
p7853
V:arg1~tame-01
p7854
tp7855
Vthink-01
p7856
tp7857
I1
s(V'' :arg1/S , '' XXX-VBD :arg0/NP .
p7858
V:root/ROOT~think-01
p7859
(V:arg0~prince
p7860
V:arg1~entertain-01
p7861
tp7862
Vthink-01
p7863
tp7864
I1
s(V:domain/NP was :mod/ADVP :domain/DT XXX-NN :arg1-of/IN :quant/NP .
p7865
V:root/ROOT~fox
p7866
(V:arg1-of~resemble-01
p7867
V:domain~he
p7868
V:domain~he
p7869
V:mod~only
p7870
tp7871
Vfox
p7872
tp7873
I1
s(V'' :arg1-of/WHADVP :arg1/SQ :arg0/. '' XXX-VBD :arg0/NP .
p7874
V:root/MULTI-SENTENCE~ask-01
p7875
(V:arg0~prince
p7876
V:arg1~that
p7877
tp7878
Vask-01
p7879
tp7880
I1
s(V'' :purpose/WHADVP are :arg0/NP XXX-VBG :arg2/PP :purpose/. ''
p7881
V:root/ROOT~talk-01
p7882
(V:arg0~you
p7883
V:arg2~snake
p7884
V:purpose~amr-unknown
p7885
V:purpose~amr-unknown
p7886
tp7887
Vtalk-01
p7888
tp7889
I1
s(V'' :arg1/S , '' :arg0/NP XXX-VBD :arg3/NP :arg3/NP-TMP .
p7890
V:root/ROOT~continue-02
p7891
(V:arg0~he
p7892
V:arg1~own-01
p7893
V:arg2~businessman
p7894
V:arg3~converse-01
p7895
V:arg3~converse-01
p7896
tp7897
Vcontinue-02
p7898
tp7899
I1
s(V'' XXX-UH , ''
p7900
V:root/ROOT~yes
p7901
g58
Vyes
p7902
tp7903
I1
s(V'' :domain/NP is :degree/NP XXX-JJ :domain/IN :arg2/NP ... ''
p7904
V:root/ROOT~lonely
p7905
(V:degree~little
p7906
V:domain~be-located-at-91
p7907
V:domain~be-located-at-91
p7908
tp7909
Vlonely
p7910
tp7911
I1
s(V:time/ADVP , XXX-RB - - '' it is :mod/ADVP :op1/ADJP ... :op2/S ... ''
p7912
V:root/ROOT~say-01
p7913
(V:arg1~and
p7914
V:manner~sad-02
p7915
V:time~then
p7916
tp7917
Vsay-01
p7918
tp7919
I1
s(V'' :manner/WHADVP do :arg0/NP XXX-VB :arg1/PP :manner/. ''
p7920
V:root/ROOT~know-01
p7921
(V:arg0~you
p7922
V:arg1~that
p7923
V:manner~amr-unknown
p7924
V:manner~amr-unknown
p7925
tp7926
Vknow-01
p7927
tp7928
I1
s(V'' :arg1/S , '' XXX-VBD :arg0/NP .
p7929
V:root/ROOT~say-01
p7930
(V:arg0~prince
p7931
V:arg1~begin-01
p7932
tp7933
Vsay-01
p7934
tp7935
I1
s(VXXX-CC , :time/IN :op1/NP , :op2/S : '' :arg1/S . ''
p7936
V:root/ROOT~and
p7937
(V:op2~speak-01
p7938
tp7939
Vand
p7940
tp7941
I1
s(V'' i :arg1/ADVP , '' :arg0/NP XXX-VBD , '' :arg1/SBAR :location/NP :purpose/IN :arg0/PP :purpose/VP ...
p7942
V:root/ROOT~say-01
p7943
(V:arg0~he
p7944
V:arg1~wonder-01
p7945
tp7946
Vsay-01
p7947
tp7948
I1
s(V:domain/NP are :arg1-of/JJ XXX-NNS .
p7949
V:root/ROOT~creature
p7950
(V:arg1-of~weak-02
p7951
V:domain~flower
p7952
tp7953
Vcreature
p7954
tp7955
I1
s(V'' XXX-CC :arg1/NP :op2/VP ''
p7956
V:root/ROOT~and
p7957
(V:op2~bear-02
p7958
tp7959
Vand
p7960
tp7961
I1
s(VXXX-RB :domain/NP :arg1/VP .
p7962
V:root/ROOT~have-concession-91
p7963
(V:arg1~seem-01
p7964
tp7965
Vhave-concession-91
p7966
tp7967
I1
s(VXXX-CC :arg0/NP :op2/VP : '' :arg1/S ... ''
p7968
V:root/ROOT~and
p7969
(V:op2~add-01
p7970
tp7971
Vand
p7972
tp7973
I1
s(V:op1/S XXX-CC :op2/S ! ''
p7974
V:root/ROOT~and
p7975
(V:op1~turn-01
p7976
V:op2~change-01
p7977
tp7978
Vand
p7979
tp7980
I1
s(V:concession/NP throbs , XXX-CC :op2/VP ...
p7981
V:root/ROOT~and
p7982
(V:concession~silent
p7983
V:concession~silent
p7984
V:op1~throb-01
p7985
V:op2~gleam-01
p7986
tp7987
Vand
p7988
tp7989
I1
s(V:arg1/NP are XXX-IN :arg2/NP :time/SBAR .
p7990
V:root/ROOT~resemble-01
p7991
(V:arg1~you
p7992
V:arg2~fox
p7993
V:time~know-02
p7994
tp7995
Vresemble-01
p7996
tp7997
I1
s(V'' :arg1/S , '' :arg0/NP XXX-VBN :manner/PRT , :manner/ADVP .
p7998
V:root/ROOT~call-07
p7999
(V:arg0~king
p8000
V:arg1~make-02
p8001
V:manner~hasty
p8002
V:manner~hasty
p8003
tp8004
Vcall-07
p8005
tp8006
I1
s(V:arg1/NP :arg0/MD XXX-VB :arg2/NP , :arg1-of/IN :arg2/NP , :arg1/IN :arg2/PP .
p8007
V:root/ROOT~call-03
p8008
(V:arg0~step-01
p8009
V:arg1-of~resemble-01
p8010
V:arg1~out-06
p8011
V:arg2~i
p8012
tp8013
Vcall-03
p8014
tp8015
I1
s(V'' :arg1/S , '' :arg0/NP XXX-VBD .
p8016
V:root/ROOT~say-01
p8017
(V:arg0~fox
p8018
V:arg1~monotonous
p8019
tp8020
Vsay-01
p8021
tp8022
I1
s(Vi am :degree/DT :arg1/RB , '' :arg0/NP XXX-VBD .
p8023
V:root/ROOT~say-01
p8024
(V:arg0~he
p8025
V:arg1~alone
p8026
tp8027
Vsay-01
p8028
tp8029
I1
s(V'' XXX-CC , :mod/ADVP , :arg0/NP :op2/VP . ''
p8030
V:root/ROOT~and
p8031
(V:op2~eat-01
p8032
tp8033
Vand
p8034
tp8035
I1
s(V:arg1/NP XXX-VBP :arg1/ADVP :arg2/S !
p8036
V:root/ROOT~obligate-01
p8037
(V:arg1~i
p8038
V:arg2~do-02
p8039
tp8040
Vobligate-01
p8041
tp8042
I1
s(V'' it will be XXX-IN if , :arg1/PP , :arg0/NP :arg2/VP ''
p8043
V:root/ROOT~resemble-01
p8044
(V:arg1~give-01
p8045
tp8046
Vresemble-01
p8047
tp8048
I1
s(V'' :arg2-of/NP XXX-VBP - - :arg2-of/NP ...
p8049
V:root/ROOT~thing
p8050
(V:arg2-of~muzzle-01
p8051
V:arg2-of~muzzle-01
p8052
tp8053
Vthing
p8054
tp8055
I1
s(V:arg0/ADVP XXX-VBZ :arg1/NP ...
p8056
V:root/ROOT~frighten-01
p8057
(V:arg0~that
p8058
V:arg1~i
p8059
tp8060
Vfrighten-01
p8061
tp8062
I1
s(V'' XXX-RB :domain/PRP is . ''
p8063
V:root/ROOT~certain
p8064
(V:domain~it
p8065
tp8066
Vcertain
p8067
tp8068
I1
s(V:arg1/NP XXX-MD :arg2/VP .
p8069
V:root/ROOT~obligate-01
p8070
(V:arg1~you
p8071
V:arg2~return-01
p8072
tp8073
Vobligate-01
p8074
tp8075
I1
s(VXXX-CC nevertheless :arg0/NP :arg1/VP .
p8076
V:root/ROOT~have-concession-91
p8077
(V:arg1~start-01
p8078
tp8079
Vhave-concession-91
p8080
tp8081
I1
s(VXXX-CC :arg0/NP :op2/VP .
p8082
V:root/ROOT~and
p8083
(V:op2~laugh-01
p8084
tp8085
Vand
p8086
tp8087
I4
s(V:arg1/S , and :arg1/NP would :arg1/VB :arg1/NP XXX-IN :arg1/NP :arg1/S .
p8088
V:root/ROOT~cause-01
p8089
(V:arg0~need-01
p8090
V:arg1~feel-01
p8091
tp8092
Vcause-01
p8093
tp8094
I1
s(V'' :time/RB :arg1/PRP XXX-MD :arg2/VP .
p8095
V:root/ROOT~obligate-01
p8096
(V:arg1~you
p8097
V:arg2~work-01
p8098
V:time~now
p8099
tp8100
Vobligate-01
p8101
tp8102
I1
s(V:domain/NP is :polarity/RB :mod/ADVP an :mod/JJ XXX-NN !
p8103
V:root/ROOT~planet
p8104
(V:domain~planet/name
p8105
V:mod~ordinary
p8106
tp8107
Vplanet
p8108
tp8109
I1
s(V:polarity/SBAR , :arg0/NP XXX-VBD :duration/NP .
p8110
V:root/ROOT~hesitate-01
p8111
(V:arg0~prince
p8112
V:arg1-of~cause-01
p8113
V:duration~moment
p8114
tp8115
Vhesitate-01
p8116
tp8117
I1
s(V'' :arg1/S , '' XXX-VBD :arg0/NP . ''
p8118
V:root/ROOT~say-01
p8119
(V:arg0~geographer
p8120
V:arg1~record-01
p8121
tp8122
Vsay-01
p8123
tp8124
I1
s(V'' :arg1/S , '' :arg0/NP XXX-VBD :time/PP .
p8125
V:root/ROOT~say-01
p8126
(V:arg0~he
p8127
V:arg1~animal
p8128
V:time~at-last
p8129
tp8130
Vsay-01
p8131
tp8132
I1
s(V'' yes , XXX-DT 's it .
p8133
V:root/ROOT~that-is-it-00
p8134
g58
Vthat-is-it-00
p8135
tp8136
I1
s(V:domain/NP are :mod/JJ XXX-NNS :arg1-of/SBAR .
p8137
V:root/ROOT~hole
p8138
(V:arg1-of~dig-01
p8139
V:domain~well
p8140
V:mod~mere
p8141
tp8142
Vhole
p8143
tp8144
I1
s(VXXX-RB as :arg0/S i made :arg1/NP :arg2/ADVP .
p8145
V:root/ROOT~contrast-01
p8146
(V:arg1~step-01
p8147
V:arg2~dig-01
p8148
tp8149
Vcontrast-01
p8150
tp8151
I1
s(V'' :arg0/NP XXX-VBP :arg1/NP .
p8152
V:root/ROOT~know-02
p8153
(V:arg0~i
p8154
V:arg1~planet
p8155
tp8156
Vknow-02
p8157
tp8158
I1
s(V'' :op1/S :arg1/CC :op2/S , '' XXX-VBD :arg0/NP .
p8159
V:root/ROOT~propose-01
p8160
(V:arg0~prince
p8161
V:arg1~and
p8162
tp8163
Vpropose-01
p8164
tp8165
I1
s(V:ord/NP - - XXX-RB , :domain/NP :domain/VP :ord/.
p8166
V:root/ROOT~disturb-01
p8167
(V:domain~this
p8168
V:domain~this
p8169
V:ord~ordinal-entity
p8170
V:ord~ordinal-entity
p8171
tp8172
Vdisturb-01
p8173
tp8174
I1
s(Vas for me , :arg1/NP was XXX-VBN :arg0/PP .
p8175
V:root/ROOT~upset-01
p8176
(V:arg0~bolt
p8177
V:arg1~i
p8178
tp8179
Vupset-01
p8180
tp8181
I1
s.