(dp1
(V:domain/NP is :degree/RB :degree/RB XXX-JJ :arg1-of/S .
p2
V:root/ROOT~important
p3
(V:degree~too
p4
V:domain~geographer
p5
tp6
tp7
I1
s(V'' :time/RB :arg0/PRP XXX-MD :arg1/VP - - ''
p8
V:root/ROOT~possible-01
p9
(V:arg1~go-02
p10
V:time~now
p11
tp12
tp13
I1
s(V:location/ADVP , :time/ADVP , is a :mod/JJ XXX-NN .
p14
V:root/ROOT~mystery
p15
(V:location~here
p16
V:mod~great
p17
V:time~then
p18
tp19
tp20
I1
s(V'' XXX-UH ?
p21
V:root/ROOT~eh
p22
S'empty'
p23
tp24
I1
s(V'' are XXX-EX :arg0-of/NP :location/PP ? ''
p25
V:root/ROOT~person
p26
(V:arg0-of~hunt-01
p27
V:location~planet
p28
tp29
tp30
I1
s(V:arg0/NP XXX-VBP :arg1/NP .
p31
V:root/ROOT~occupy-01
p32
(V:arg0~man
p33
V:arg1~place
p34
tp35
tp36
I1
s(V'' :arg0/NP XXX-VBP :arg1/NP . ''
p37
V:root/ROOT~have-03
p38
(V:arg0~i
p39
V:arg1~thing
p40
V:mod~also
p41
tp42
tp43
I1
s(V'' :arg0/NP XXX-VB :arg1/NP .
p44
V:root/ROOT~follow-02
p45
(V:arg0~i
p46
V:arg1~profession
p47
tp48
tp49
I1
s(V:arg0/NP shall XXX-VB :arg2/NP :degree/SBAR !
p50
V:root/ROOT~show-01
p51
(V:arg0~i
p52
V:arg1~happy-01
p53
V:arg2~you
p54
tp55
tp56
I1
s(V'' :mod/S , '' :arg0/NP XXX-VBD , '' i :arg1/VP ''
p57
V:root/ROOT~say-01
p58
(V:arg0~he
p59
V:arg1~possible-01
p60
tp61
tp62
I1
s(V:arg0/ADVP XXX-VBZ :arg1/NP ...
p63
V:root/ROOT~frighten-01
p64
(V:arg0~that
p65
V:arg1~i
p66
tp67
tp68
I1
s(V'' :location/RB XXX-PRP is .
p69
V:root/ROOT~it
p70
(V:location~here
p71
tp72
tp73
I1
s(V:location/SBAR is :mod/ADJP that :arg0/NP XXX-MD :polarity/RB :arg1/VP .
p74
V:root/ROOT~possible-01
p75
(V:arg1-of~cause-01
p76
V:arg1~show-01
p77
V:polarity~-
p78
tp79
tp80
I1
s(V:time/ADVP would XXX-VB :arg1/NP .
p81
V:root/ROOT~come-03
p82
(V:arg1~turn-01
p83
V:time~first
p84
tp85
tp86
I1
s(V:mod/DT the XXX-NNS :domain/VP .
p87
V:root/ROOT~star
p88
(V:domain~well
p89
V:domain~well
p90
V:mod~all
p91
tp92
tp93
I1
s(V'' i am :polarity/RB :arg2/NP , '' :arg0/NP XXX-VBD , :manner/ADVP .
p94
V:root/ROOT~reply-01
p95
(V:arg0~flower
p96
V:arg2~weed
p97
V:manner~sweet-03
p98
tp99
tp100
I1
s(V'' :condition/IN :arg1/S , '' :arg0/NP XXX-VBD , '' he :arg1/VP .
p101
V:root/ROOT~say-01
p102
(V:arg0~he
p103
V:arg1~possible-01
p104
tp105
tp106
I1
s(V:arg0/ADVP XXX-VBD , '' :domain/S . ''
p107
V:root/ROOT~reply-01
p108
(V:arg0~i
p109
V:arg2~so
p110
tp111
tp112
I1
s(V:time/ADVP :arg0/NP XXX-VBD : '' :arg1/PRN .
p113
V:root/ROOT~add-01
p114
(V:arg0~she
p115
V:arg1~linger-01
p116
V:time~then
p117
tp118
tp119
I1
s(V:arg0/NP - :mod/PRN will XXX-VB :arg1/NP :arg1-of/IN :arg2/S - - ''
p120
V:root/ROOT~have-03
p121
(V:arg0~you
p122
V:arg1-of~resemble-01
p123
V:arg1~star
p124
tp125
tp126
I1
s(V:location/NP is :polarity/DT XXX-NN :location/ADVP :purpose/IN :purpose/NP .
p127
V:root/ROOT~room
p128
(V:location~here
p129
V:location~here
p130
V:polarity~-
p131
V:purpose~carriage
p132
V:purpose~carriage
p133
tp134
tp135
I1
s(V'' :arg0/NP XXX-VBZ :purpose/S ? ''
p136
V:root/ROOT~go-02
p137
(V:arg0~one
p138
V:purpose~see-01
p139
tp140
tp141
I1
s(VXXX-CC :arg0/NP :arg1/VP !
p142
V:root/ROOT~contrast-01
p143
(V:arg2~possible-01
p144
tp145
tp146
I1
s(V:arg2/S , XXX-CC :degree/S .
p147
V:root/ROOT~have-concession-91
p148
(V:arg1~deject-01
p149
V:arg2~visit-01
p150
tp151
tp152
I1
s(V:arg0/NP shall XXX-VB :arg1/NP .
p153
V:root/ROOT~know-04
p154
(V:arg0~i
p155
V:arg1~sound-02
p156
tp157
tp158
I1
s(V'' :domain/NP :op1/VP , XXX-CC :op2/VP , '' :domain/NP :mod/VP ''
p159
V:root/ROOT~and
p160
(V:op1~remark-01
p161
V:op2~add-01
p162
tp163
tp164
I1
s(V:arg0/NP XXX-VBD :arg1/NP .
p165
V:root/ROOT~say-01
p166
(V:arg0~i
p167
V:arg1~nothing
p168
tp169
tp170
I4
s(V'' :arg1-of/WHADVP :arg1/SQ :arg0/. '' XXX-VBD :arg0/NP .
p171
V:root/MULTI-SENTENCE~ask-01
p172
(V:arg0~prince
p173
V:arg1~sell-01
p174
tp175
tp176
I1
s(V'' :arg1/S , '' :arg0/NP XXX-VBD .
p177
V:root/ROOT~say-01
p178
(V:arg0~rose
p179
V:arg1~rose
p180
tp181
tp182
I1
s(V'' there is a XXX-NN ...
p183
V:root/ROOT~flower
p184
g23
tp185
I1
s(V:arg0/NP has :polarity/ADVP XXX-VBN :arg1/NP .
p186
V:root/ROOT~love-01
p187
(V:arg0~he
p188
V:arg1~anyone
p189
V:polarity~-
p190
V:time~ever
p191
tp192
tp193
I1
s(V'' the XXX-NNS :arg2/VP .
p194
V:root/ROOT~order-01
p195
(V:arg2~put-out-09
p196
tp197
tp198
I1
s(V:arg0/NP XXX-MD :arg1/VP ...
p199
V:root/ROOT~possible-01
p200
(V:arg1~say-01
p201
tp202
tp203
I1
s(Vit XXX-VBZ :arg1/SBAR .
p204
V:root/ROOT~seem-01
p205
(V:arg1~beautiful-02
p206
tp207
tp208
I1
s(V:arg0/LS XXX-VBD :arg2/PP :arg1/VP ... ''
p209
V:root/ROOT~say-01
p210
(V:arg0~i
p211
V:arg1~fear-01
p212
V:arg2~he
p213
tp214
tp215
I1
s(V:arg0/NP XXX-VBP :arg1/NP :time/ADJP :arg1-of/S .
p216
V:root/ROOT~buy-01
p217
(V:arg0~they
p218
V:arg1~thing
p219
V:location~shop
p220
tp221
tp222
I1
s(V:arg0-of/IN :arg1/NP , :arg0/NP are XXX-NNS .
p223
V:root/ROOT~guide-01
p224
(V:arg0~star
p225
V:arg1~some
p226
tp227
tp228
I1
s(V'' :domain/NP is an XXX-NN . ''
p229
V:root/ROOT~exchange-01
p230
(V:domain~it
p231
tp232
tp233
I1
s(V'' :arg1/S , '' XXX-VBD :arg0/NP .
p234
V:root/ROOT~say-01
p235
(V:arg0~switchman
p236
V:arg1~know-01
p237
tp238
tp239
I1
s(V'' XXX-CC :arg1/NP :op2/VP ''
p240
V:root/ROOT~and
p241
(V:op2~bear-02
p242
tp243
tp244
I1
s(V:time/PP :arg0/NP was :arg1-of/ADJP XXX-VBG :arg1/S .
p245
V:root/ROOT~try-01
p246
(V:arg0~i
p247
V:arg1~unscrew-01
p248
V:time~moment
p249
tp250
tp251
I1
s(V:arg0/NP XXX-VBD .
p252
V:root/ROOT~reply-01
p253
(V:arg0~i
p254
tp255
tp256
I1
s(V:arg0/NP XXX-MD :arg1/VP ... ''
p257
V:root/ROOT~recommend-01
p258
(V:arg1~look-01
p259
tp260
tp261
I1
s(V:arg0/NP :time/ADVP XXX-MD :arg1/S .
p262
V:root/ROOT~recommend-01
p263
(V:arg1~listen-01
p264
tp265
tp266
I1
s(V:arg1/NP had XXX-VBN .
p267
V:root/ROOT~fall-04
p268
(V:arg1~night
p269
tp270
tp271
I1
s(V'' XXX-VB :arg2/NP :quant/NP
p272
V:root/ROOT~give-01
p273
(V:arg0~you
p274
V:arg1~thing
p275
V:arg2~i
p276
V:purpose~drink-01
p277
tp278
tp279
I1
s(V'' :arg1/S - '' :arg0/NP XXX-VBD :arg2/PP .
p280
V:root/ROOT~say-01
p281
(V:arg0~prince
p282
V:arg1~fox
p283
V:arg2~i
p284
tp285
tp286
I1
s(V:time/ADVP :mod/DT :time/JJ :arg0/FW was XXX-VBG to myself : '' :arg1/S . ''
p287
V:root/ROOT~say-01
p288
(V:arg0~i
p289
V:arg1~knock-out-03
p290
V:arg2~coref
p291
V:time~instant
p292
V:time~instant
p293
tp294
tp295
I1
s(Vit is XXX-JJ :domain/S .
p296
V:root/ROOT~absurd
p297
(V:domain~look-01
p298
V:domain~look-01
p299
tp300
tp301
I1
s(VXXX-CD XXX-NNS .
p302
V:root/ROOT~temporal-quantity
p303
g23
tp304
I2
s(V:location/SBAR :arg1-of/VB :consist-of/IN an :mod/JJ :consist-of/NN XXX-NN .
p305
V:root/ROOT~wall
p306
(V:arg1-of~ruin-01
p307
V:consist-of~stone
p308
V:consist-of~stone
p309
V:location~beside
p310
V:location~beside
p311
V:mod~old
p312
tp313
tp314
I1
s(Vit XXX-VBD :arg2/PP :arg1/SBAR .
p315
V:root/ROOT~seem-01
p316
(V:arg1~carry-01
p317
V:arg2~i
p318
tp319
tp320
I1
s(VXXX-CC :arg0/NP :arg1/VP ''
p321
V:root/ROOT~contrast-01
p322
(V:arg2~possible-01
p323
tp324
tp325
I1
s(V'' :domain/NP :arg1/ADVP would :arg0/NP :arg1/S ? '' :arg0/NP XXX-VBD .
p326
V:root/MULTI-SENTENCE~ask-01
p327
(V:arg0~he
p328
V:arg1~advise-01
p329
tp330
tp331
I1
s(VXXX-NN !
p332
V:root/ROOT~phew
p333
g23
tp334
I1
s(V'' :arg1/ADVP , '' XXX-VBD :arg0/NP .
p335
V:root/ROOT~say-01
p336
(V:arg0~prince
p337
V:arg1~goodbye
p338
tp339
tp340
I1
s(V'' XXX-DT XXX-NN ? ''
p341
V:root/ROOT~temporal-quantity
p342
g23
tp343
I1
s(V:arg1/NP are :mod/ADVP :mod/ADVP XXX-VBN ... ''
p344
V:root/ROOT~arrange-01
p345
(V:arg1~petal
p346
V:mod~still
p347
V:polarity~-
p348
tp349
tp350
I1
s(V:domain/NP is :domain/DT :arg1-of/ADJP XXX-NN . ''
p351
V:root/ROOT~matter
p352
(V:arg1-of~differ-02
p353
V:domain~it
p354
V:domain~it
p355
tp356
tp357
I1
s(V'' :arg1-of/ADVP , '' XXX-VBD :arg0/NP .
p358
V:root/ROOT~say-01
p359
(V:arg0~prince
p360
V:arg1~morning
p361
tp362
tp363
I4
s(V'' XXX-RB .
p364
V:root/ROOT~certain
p365
g23
tp366
I1
s(V'' :arg1/ADVP , :mod/ADVP , '' :arg0/NP XXX-VBD .
p367
V:root/ROOT~say-01
p368
(V:arg0~king
p369
V:arg1~ah
p370
tp371
tp372
I1
s(V:arg0/NP XXX-VBD :arg1/NP :location/PP .
p373
V:root/ROOT~toss-01
p374
(V:arg0~he
p375
V:arg1~curl
p376
V:location~breeze
p377
tp378
tp379
I1
s(V:arg1/NP is XXX-IN :quant/NP :arg2/NP ...
p380
V:root/ROOT~resemble-01
p381
(V:arg1~it
p382
V:arg2~bell
p383
tp384
tp385
I1
s(V'' XXX-DT .
p386
V:root/ROOT~no
p387
g23
tp388
I2
s(V:arg1/NP was XXX-VBN :arg0/IN :arg0-of/NP .
p389
V:root/ROOT~inhabit-01
p390
(V:arg0~person
p391
V:arg1~planet
p392
tp393
tp394
I1
s(V:arg0/NP XXX-VBD :arg1-of/NP :arg2/PP .
p395
V:root/ROOT~take-01
p396
(V:arg0~i
p397
V:arg1~picture
p398
V:arg2~pocket
p399
tp400
tp401
I1
s(V'' what are :arg0/NP XXX-VBG :arg1/S :arg1/. ''
p402
V:root/ROOT~try-01
p403
(V:arg0~you
p404
V:arg1~say-01
p405
tp406
tp407
I2
s(VXXX-CC :arg0/NP :op2/VP ...
p408
V:root/ROOT~and
p409
(V:op2~see-01
p410
tp411
tp412
I1
s(V'' :arg1/S , '' :arg0/NP XXX-VBD , '' :arg2/CC they are :polarity/RB :arg2/NP .
p413
V:root/ROOT~answer-01
p414
(V:arg0~he
p415
V:arg2~contrast-01
p416
tp417
tp418
I1
s(Vwhen :arg0/NP XXX-VBN :arg1/PP he :time/VP .
p419
V:root/ROOT~succeed-01
p420
(V:arg0~i
p421
V:arg1~catch-up-04
p422
V:time~walk-01
p423
tp424
tp425
I1
s(VXXX-CC there is :location/NP :location/RB :location/WHADVP :arg1/S , and :arg0-of/RB :arg1/S .
p426
V:root/ROOT~contrast-01
p427
(V:arg2~possible-01
p428
tp429
tp430
I1
s(V'' yes , :arg0/NP XXX-VBP ... ''
p431
V:root/ROOT~know-01
p432
(V:arg0~i
p433
tp434
tp435
I3
s(V:op1/S , XXX-CC :op2/S .
p436
V:root/ROOT~and
p437
(V:op1~look-01
p438
V:op2~say-01
p439
tp440
tp441
I1
s(V'' what does that XXX-NN - - ' :arg1/VP :arg2/. ''
p442
V:root/ROOT~mean-01
p443
(V:arg1~admire-01
p444
V:arg2~amr-unknown
p445
tp446
tp447
I1
s(V:arg0/NP , XXX-RB , :arg2/VP
p448
V:root/ROOT~contrast-01
p449
(V:arg2~reply-01
p450
tp451
tp452
I1
s(VXXX-CC :time/ADVP :arg1/NP :op2/VP ...
p453
V:root/ROOT~and
p454
(V:op2~go-on-15
p455
V:time~now
p456
tp457
tp458
I1
s(V'' :domain/NP is :domain/DT :mod/NN XXX-NN :arg1-of/SBAR . ''
p459
V:root/ROOT~hat
p460
(V:arg1-of~wear-01
p461
V:domain~that
p462
V:domain~that
p463
V:mod~queer
p464
tp465
tp466
I1
s(VXXX-CC , :arg2/SBAR , '' :arg0/NP :polarity/ADVP :arg1/VP ! ''
p467
V:root/ROOT~contrast-01
p468
(V:arg2~say-01
p469
tp470
tp471
I1
s(V:location/PP :domain/NP are :arg1-of/ADVP :degree/RB :degree/RB XXX-JJ :compared-to/S .
p472
V:root/ROOT~small
p473
(V:arg1-of~obvious-01
p474
V:compared-to~clean-out-03
p475
V:degree~too
p476
V:domain~we
p477
V:location~earth
p478
tp479
tp480
I1
s(VXXX-CC :domain/NP :arg2/VP . ''
p481
V:root/ROOT~contrast-01
p482
(V:arg2~man
p483
tp484
tp485
I1
s(VXXX-CC :arg1/NP :op2/VP .
p486
V:root/ROOT~and
p487
(V:op2~true-01
p488
tp489
tp490
I1
s(V'' ' to XXX-VB :arg1/NP ? ''
p491
V:root/ROOT~establish-01
p492
(V:arg1~tie-01
p493
tp494
tp495
I1
s(VXXX-CC :arg0/NP :op2/VP .
p496
V:root/ROOT~and
p497
(V:op2~light-04
p498
tp499
tp500
I2
s(V'' :arg1/S , '' :arg0/NP XXX-VBD :time/PP .
p501
V:root/ROOT~say-01
p502
(V:arg0~he
p503
V:arg1~animal
p504
V:time~at-last
p505
tp506
tp507
I1
s(V'' XXX-IN :arg0/NP :condition-of/VP .
p508
V:root/ROOT~cause-01
p509
(V:arg1~lie-08
p510
tp511
tp512
I1
s(V:arg1/NP was XXX-VBN :op1/PP :location/IN :op3/NP .
p513
V:root/ROOT~bear-02
p514
(V:arg0~and
p515
V:arg1~sweet-05
p516
tp517
tp518
I1
s(Vand :arg0/NP XXX-VBD himself : '' :manner/ADVP :arg1/MD :arg0/NP :arg1/S :condition/NP :manner/. ''
p519
V:root/ROOT~ask-01
p520
(V:arg0~prince
p521
V:arg1~possible-01
p522
V:arg2~coref
p523
tp524
tp525
I1
s(V'' XXX-IN :op1/NP ? ''
p526
V:root/ROOT~over
p527
(V:op1~everything
p528
tp529
tp530
I1
s(V:polarity/SBAR , :arg0/NP XXX-VBD :duration/NP .
p531
V:root/ROOT~hesitate-01
p532
(V:arg0~prince
p533
V:arg1-of~cause-01
p534
V:duration~moment
p535
tp536
tp537
I1
s(V:arg1/NP XXX-VBD :manner/S : '' :arg0/S ? ''
p538
V:root/ROOT~come-01
p539
(V:arg1~word-01
p540
V:arg4~memory
p541
V:arg4~memory
p542
V:manner~reel-03
p543
tp544
tp545
I1
s(V'' :arg1-of/NP :arg2/ADVP , '' :arg0/NP XXX-VBD :manner/ADVP , :concession/IN :time/WHADVP :time/S he :concession/VP .
p546
V:root/ROOT~respond-01
p547
(V:arg0~prince
p548
V:arg2~morning
p549
V:concession~see-01
p550
V:concession~see-01
p551
V:manner~polite-01
p552
tp553
tp554
I1
s(V:arg0/NP was XXX-VBG :arg1/S .
p555
V:root/ROOT~begin-01
p556
(V:arg0~he
p557
V:arg1~fear-01
p558
V:time~flash-02
p559
tp560
tp561
I1
s(V'' a what XXX-. ''
p562
V:root/ROOT~amr-unknown
p563
g23
tp564
I1
s(V:location-of/S - :arg0/S .
p565
V:root/ROOT~and
p566
(V:op1~away
p567
V:op2~fear-01
p568
tp569
tp570
I1
s(V:arg0/NP :op1/VP XXX-CC :op2/VP .
p571
V:root/ROOT~and
p572
(V:op1~cross-02
p573
V:op2~meet-03
p574
tp575
tp576
I1
s(V:arg0/NP :manner/ADVP XXX-VBD out :arg1/NP .
p577
V:root/ROOT~clean-out-03
p578
(V:arg0~he
p579
V:arg1~volcano
p580
V:manner~careful
p581
tp582
tp583
I1
s(V:arg1/NP XXX-VBZ :arg2/S . ''
p584
V:root/ROOT~mean-01
p585
(V:arg1~it
p586
V:arg2~establish-01
p587
tp588
tp589
I1
s(V:arg0/NP XXX-VBP :polarity/RB :mod/ADVP :arg1/NP .
p590
V:root/ROOT~have-03
p591
(V:arg0~you
p592
V:arg1~foot
p593
V:mod~even
p594
V:polarity~-
p595
tp596
tp597
I1
s(V:arg1/NP XXX-VBD :direction/ADVP .
p598
V:root/ROOT~come-01
p599
(V:arg1~prince
p600
V:direction~back
p601
V:time~day
p602
tp603
tp604
I1
s(VXXX-NN :mod/NP .
p605
V:root/ROOT~chapter
p606
(V:mod~8
p607
tp608
tp609
I1
s(V'' :arg0/NP was just going to XXX-VB :arg1/PP :time/SBAR ... ''
p610
V:root/ROOT~look-01
p611
(V:arg0~i
p612
V:arg1~it
p613
V:time~speak-01
p614
tp615
tp616
I1
s(V'' :time/RB :arg1/PRP XXX-MD :arg2/VP .
p617
V:root/ROOT~obligate-01
p618
(V:arg1~you
p619
V:arg2~work-01
p620
V:time~now
p621
tp622
tp623
I1
s(V'' :arg0/NP shall XXX-VB as :arg1/IN :arg2/S .
p624
V:root/ROOT~look-02
p625
(V:arg0~i
p626
V:arg1~have-manner-91
p627
tp628
tp629
I1
s(VXXX-CC i :op2/VP - - :arg0/S ... ''
p630
V:root/ROOT~and
p631
(V:arg1-of~cause-01
p632
V:op2~oblige-02
p633
tp634
tp635
I1
s(VXXX-VB :arg0/NP . ''
p636
V:root/ROOT~admire-01
p637
(V:arg0~you
p638
V:arg1~i
p639
V:manner~same-01
p640
tp641
tp642
I1
s(V'' :arg1/NP :location/RB , '' :arg0/NP XXX-VBD , '' :location/IN :op1/NP . ''
p643
V:root/ROOT~say-01
p644
(V:arg0~voice
p645
V:arg1~i
p646
tp647
tp648
I1
s(V:arg0/NP :polarity/VBD :polarity/RB XXX-VB :arg1/NP .
p649
V:root/ROOT~understand-01
p650
(V:arg0~he
p651
V:arg1~sweet-05
p652
V:polarity~-
p653
V:polarity~-
p654
tp655
tp656
I1
s(V:arg1/NP are XXX-IN :arg2/NP :time/SBAR .
p657
V:root/ROOT~resemble-01
p658
(V:arg1~you
p659
V:arg2~fox
p660
V:time~know-02
p661
tp662
tp663
I1
s(V'' :domain/NP is a XXX-NN :arg0-of/SBAR . ''
p664
V:root/ROOT~scholar
p665
(V:arg0-of~know-01
p666
V:domain~geographer
p667
tp668
tp669
I1
s(V'' :arg0/NP , '' XXX-VBD :arg0/NP :manner/NP , :arg1/PP :polarity/VP :polarity/RB :arg1-of/S .
p670
V:root/ROOT~say-01
p671
(V:arg0~prince
p672
V:arg1~have-concession-91
p673
tp674
tp675
I1
s(V:arg0/NP had :time/ADVP :op2/VBN :quant/ADVP XXX-CC :mod/RB :arg1/RB !
p676
V:root/ROOT~and
p677
(V:op1~travel-01
p678
V:op2~travel-01
p679
V:time~already
p680
tp681
tp682
I1
s(V:arg2/S , '' :arg0/NP XXX-VBD on .
p683
V:root/ROOT~go-on-25
p684
(V:arg0~king
p685
V:arg1~obligate-01
p686
tp687
tp688
I1
s(V:arg0/NP XXX-VBD .
p689
V:root/ROOT~cry-01
p690
(V:arg0~i
p691
tp692
tp693
I1
s(V:arg0/NP XXX-VBN :arg1/NP :instrument/IN :subevent-of/NP .
p694
V:root/ROOT~raise-01
p695
(V:arg0~man
p696
V:arg1~hat
p697
V:mod~again
p698
V:subevent-of~salute-01
p699
tp700
tp701
I1
s(V:degree/NP is :degree/RB XXX-JJ :location/SBAR .
p702
V:root/ROOT~cold-01
p703
(V:degree~very
p704
V:degree~very
p705
V:location~live-01
p706
tp707
tp708
I1
s(Vbut :arg0/NP will XXX-NN :arg1/NP .
p709
V:root/ROOT~pardon-01
p710
(V:arg0~you
p711
V:arg1-of~cause-01
p712
V:arg1~he
p713
V:frequency~occasion-02
p714
V:frequency~occasion-02
p715
tp716
tp717
I1
s(V'' XXX-CC :arg1/WHNP :arg0/SQ :arg1/. ''
p718
V:root/ROOT~and
p719
(V:op2~cause-01
p720
tp721
tp722
I2
s(V:op1/VB XXX-TO be :arg1/ADJP ... :domain/S .
p723
V:root/ROOT~and
p724
(V:op1~try-01
p725
V:op2~leave-14
p726
tp727
tp728
I1
s(V'' :arg0/NP XXX-VBP ... it is :degree/RB :arg1/RB .
p729
V:root/ROOT~understand-01
p730
(V:arg0~you
p731
V:arg1~far
p732
tp733
tp734
I1
s(V:arg1/NP :time/ADVP XXX-VBP :mod/ADJP - :arg2/ADJP .
p735
V:root/ROOT~become-01
p736
(V:arg1~they
p737
V:arg2~fashion
p738
V:polarity~-
p739
V:time~ever
p740
tp741
tp742
I1
s(V'' :domain/NP is :degree/RB XXX-JJ :compared-to/PP . ''
p743
V:root/ROOT~heavy
p744
(V:compared-to~you
p745
V:degree~too
p746
V:domain~it
p747
tp748
tp749
I1
s(V:arg1/NP XXX-VBD :manner/ADJP :duration/PP .
p750
V:root/ROOT~remain-01
p751
(V:arg1~he
p752
V:duration~instant
p753
V:manner~move-01
p754
tp755
tp756
I1
s(V:degree/NP is :degree/RB :arg1-of/RB :arg1-of/IN :arg0/NP XXX-VBZ :poss/NP .
p757
V:root/ROOT~empty-01
p758
(V:arg0~ocean
p759
V:arg1-of~rare-02
p760
V:arg1-of~rare-02
p761
V:arg1~coref
p762
V:arg2~water
p763
tp764
tp765
I1
s(V:instrument/PP , :arg0/NP XXX-VBP :arg1/NP - :arg1/NP . ''
p766
V:root/ROOT~save-03
p767
(V:arg0~you
p768
V:arg1~rate-entity-91
p769
V:instrument~pill
p770
tp771
tp772
I1
s(V:arg0-of/S , :arg2/CC :op2/S . ''
p773
V:root/ROOT~obligate-01
p774
(V:arg2~and
p775
tp776
tp777
I1
s(V:arg0/NP :mod/ADVP XXX-VBD :arg1/PP .
p778
V:root/ROOT~look-02
p779
(V:arg0~they
p780
V:arg1~flower
p781
tp782
tp783
I1
s(V:arg2-of/ADVP , :arg1/NP :time/ADVP XXX-VBZ :path/NP . ''
p784
V:root/ROOT~pass-03
p785
(V:arg1~nobody
p786
V:arg2-of~fortunate-01
p787
V:path~way
p788
V:time~ever
p789
V:time~ever
p790
tp791
tp792
I1
s(V:arg0/NP XXX-VBP :arg1/SBAR ! ''
p793
V:root/ROOT~think-01
p794
(V:arg0~you
p795
V:arg1~that
p796
tp797
tp798
I1
s(V'' :arg1/ADVP , '' :arg0/NP XXX-VBD .
p799
V:root/ROOT~say-01
p800
(V:arg0~geographer
p801
V:arg1~exact
p802
tp803
tp804
I1
s(V:arg0/NP XXX-VBD :arg1/PP :location/NP , :arg0/PP , :arg0-of/S ...
p805
V:root/ROOT~look-01
p806
(V:arg0~he
p807
V:arg1~i
p808
V:location~there
p809
tp810
tp811
I1
s(V:arg1/S , and :arg1/NP would :arg1/VB :arg1/NP XXX-IN :arg1/NP :arg1/S .
p812
V:root/ROOT~cause-01
p813
(V:arg0~need-01
p814
V:arg1~feel-01
p815
tp816
tp817
I1
s(V:arg0/NP :manner/ADVP XXX-VBD :arg1/SBAR .
p818
V:root/ROOT~realize-01
p819
(V:arg0~businessman
p820
V:arg1~hopeful-03
p821
V:manner~sudden
p822
tp823
tp824
I1
s(V:op1/S , these would XXX-VB :arg0/PRT :purpose/S .
p825
V:root/ROOT~go-02
p826
(V:arg0~they
p827
V:purpose~sleep-01
p828
V:time~after
p829
tp830
tp831
I1
s(V:arg0/NP XXX-VBP :arg1/SBAR .
p832
V:root/ROOT~imagine-01
p833
(V:arg0~they
p834
V:arg1~fill-01
p835
tp836
tp837
I1
s(V'' XXX-CC :domain/ADVP :op2/VP ? ''
p838
V:root/ROOT~and
p839
(V:op2~all
p840
tp841
tp842
I1
s(V'' :manner/WHADVP is it XXX-JJ :arg0/PP :manner/. ''
p843
V:root/ROOT~possible-01
p844
(V:arg1~own-01
p845
V:manner~amr-unknown
p846
V:manner~amr-unknown
p847
tp848
tp849
I1
s(V'' XXX-NN !
p850
V:root/ROOT~hum
p851
g23
tp852
I4
s(V'' XXX-CC :arg0/NP ''
p853
V:root/ROOT~and
p854
(V:op1~believe-01
p855
tp856
tp857
I1
s(VXXX-CC :arg0/NP :op2/VP .
p858
V:root/ROOT~and
p859
(V:op2~put-out-09
p860
tp861
tp862
I2
s(V'' XXX-CC :arg1/NP .
p863
V:root/ROOT~contrast-01
p864
(V:arg2~resemble-01
p865
tp866
tp867
I1
s(V'' :arg0/NP , '' XXX-VBD :domain/NP , '' are :arg1/NP , :arg1-of/IN :arg2/NP , are :degree/RBS :arg0-of/VBN :arg0-of/IN :arg1/NP .
p868
V:root/ROOT~say-01
p869
(V:arg0~geographer
p870
V:arg1~book
p871
tp872
tp873
I1
s(Vis :arg0/NP :polarity/RB of :arg1/NP :compared-to/IN XXX-DT :arg1-of/JJ :arg1-of/NN - :part/VBN :compared-to/NP ?
p874
V:root/ROOT~have-03
p875
(V:arg0~this
p876
V:arg1~consequence
p877
V:polarity~-
p878
tp879
tp880
I1
s(V:domain/NP is :domain/DT :arg1-of/JJ XXX-NN .
p881
V:root/ROOT~occupation
p882
(V:arg1-of~beautiful-02
p883
V:domain~that
p884
V:domain~that
p885
tp886
tp887
I1
s(V:domain/NP is :degree/RB :degree/RBR XXX-JJ :domain/S .
p888
V:root/ROOT~difficult
p889
(V:compared-to~judge-01
p890
V:degree~more
p891
V:domain~judge-01
p892
V:domain~judge-01
p893
tp894
tp895
I1
s(V:time/S , :arg0/NP XXX-VBP :mod/RB :arg1/VP .
p896
V:root/ROOT~need-01
p897
(V:arg0~you
p898
V:arg1~walk-01
p899
V:purpose~be-located-at-91
p900
tp901
tp902
I1
s(V'' :arg1/IN :arg1/S XXX-VBD :arg0-of/NP .
p903
V:root/ROOT~say-01
p904
(V:arg0~person
p905
V:arg1~cause-01
p906
tp907
tp908
I1
s(V:arg1/NP XXX-VBD :arg1-of/NP .
p909
V:root/ROOT~wait-01
p910
(V:arg1-of~long-03
p911
V:arg1~i
p912
tp913
tp914
I1
s(V'' :arg1/S , '' :arg0/NP XXX-VBD .
p915
V:root/ROOT~say-01
p916
(V:arg0~fox
p917
V:arg1~monotonous
p918
tp919
tp920
I1
s(V'' i :arg1/MD :arg1/S , '' :arg0/NP XXX-VBD :arg2/PP :time/NP-TMP . ''
p921
V:root/ROOT~confide-01
p922
(V:arg0~he
p923
V:arg1~recommend-01
p924
V:arg2~i
p925
V:time~day
p926
tp927
tp928
I1
s(Vi am :degree/DT :arg1/RB , '' :arg0/NP XXX-VBD .
p929
V:root/ROOT~say-01
p930
(V:arg0~he
p931
V:arg1~alone
p932
tp933
tp934
I1
s(VXXX-CC :arg1/NP :polarity/VP .
p935
V:root/ROOT~contrast-01
p936
(V:arg1~satisfy-01
p937
tp938
tp939
I1
s(V'' do :polarity/RB XXX-VB .
p940
V:root/ROOT~go-02
p941
(V:arg0~you
p942
V:polarity~-
p943
tp944
tp945
I1
s(V:arg0/NP XXX-VBD :arg1-of/ADVP :arg1-of/IN :arg1/S .
p946
V:root/ROOT~realize-01
p947
(V:arg0~i
p948
V:arg1-of~clear-06
p949
V:arg1-of~clear-06
p950
V:arg1~event
p951
tp952
tp953
I1
s(V:arg0/NP :polarity/VBP :polarity/RB XXX-VB :arg1/NP .
p954
V:root/ROOT~believe-01
p955
(V:arg0~i
p956
V:arg1~anything
p957
V:polarity~-
p958
V:polarity~-
p959
tp960
tp961
I1
s(V'' :arg1/NP has XXX-VBN out . ''
p962
V:root/ROOT~go-out-18
p963
(V:arg1~cigarette
p964
tp965
tp966
I1
s(V'' :mod/IN :arg1/NP , '' XXX-VBD :arg0/NP :domain/PP , :time/SBAR .
p967
V:root/ROOT~say-01
p968
(V:arg0~prince
p969
V:arg1~scorn-01
p970
V:arg2~coref
p971
V:time~continue-01
p972
tp973
tp974
I1
s(V'' good morning - :arg1-of/ADJP :arg1/NP-TMP , '' XXX-VBD :arg0/SBAR .
p975
V:root/ROOT~answer-01
p976
(V:arg0~echo-01
p977
V:arg1~morning
p978
tp979
tp980
I1
s(VXXX-RB :arg0/NP will depend :poss/IN :arg1/NP .
p981
V:root/ROOT~depend-01
p982
(V:arg0~live-01
p983
V:arg1~justice
p984
tp985
tp986
I1
s(V:arg0/NP XXX-MD :polarity/RB :arg1/VP .
p987
V:root/ROOT~possible-01
p988
(V:arg1~say-01
p989
V:polarity~-
p990
tp991
tp992
I1
s(VXXX-CC , :time/IN :op1/S , :arg0/NP :op1/VP !
p993
V:root/ROOT~and
p994
(V:op1~yawn-01
p995
V:op2~say-01
p996
V:time~after
p997
tp998
tp999
I1
s(Vit was :time/ADVP that :arg1/NP XXX-VBD .
p1000
V:root/ROOT~appear-01
p1001
(V:arg1~fox
p1002
V:time~then
p1003
tp1004
tp1005
I1
s(VXXX-CC :arg0/NP :degree/ADVP :op2/VP ...
p1006
V:root/ROOT~and
p1007
(V:op2~say-01
p1008
tp1009
tp1010
I1
s(V:arg2/NP-TMP :arg1/NP XXX-VBP :op1/S :arg2/CC :op2/VP ! ''
p1011
V:root/ROOT~obligate-01
p1012
(V:arg1~i
p1013
V:arg2~and
p1014
V:frequency~rate-entity-91
p1015
V:frequency~rate-entity-91
p1016
tp1017
tp1018
I1
s(VXXX-CC :arg0/NP :op2/VP ''
p1019
V:root/ROOT~and
p1020
(V:op2~have-03
p1021
tp1022
tp1023
I1
s(VXXX-VB :arg1/PP :manner/ADVP that :purpose/S :arg0/NP :condition/VP .
p1024
V:root/ROOT~look-01
p1025
(V:arg0~you
p1026
V:arg1~it
p1027
V:manner~careful
p1028
V:purpose~recognize-02
p1029
tp1030
tp1031
I1
s(VXXX-CC :arg1/NP was :polarity/RB :arg2/IN :arg0/S .
p1032
V:root/ROOT~contrast-01
p1033
(V:arg2~cause-01
p1034
tp1035
tp1036
I1
s(V'' :arg1/S ... :op2/S .
p1037
V:root/ROOT~and
p1038
(V:op1~bad-05
p1039
V:op2~good-04
p1040
tp1041
tp1042
I1
s(V'' XXX-CC :arg1/NP .
p1043
V:root/ROOT~contrast-01
p1044
(V:arg2~obligate-01
p1045
tp1046
tp1047
I1
s(V:time/ADVP :arg0/NP XXX-VBD :direction/ADVP :direction/PP , :manner/IN :mod/NP : '' :arg1/S !
p1048
V:root/ROOT~flash-01
p1049
(V:arg0~prince
p1050
V:arg1~believe-01
p1051
V:arg2~i
p1052
V:direction~back
p1053
V:direction~back
p1054
V:manner~resent-01
p1055
V:manner~resent-01
p1056
V:time~then
p1057
tp1058
tp1059
I1
s(V'' XXX-CC :domain/ADVP :arg2/VP ! ''
p1060
V:root/ROOT~contrast-01
p1061
(V:arg2~geographer
p1062
tp1063
tp1064
I1
s(V'' and :arg0/NP XXX-VB :arg1/NP ? ''
p1065
V:root/ROOT~obey-01
p1066
(V:arg0~star
p1067
V:arg1~you
p1068
tp1069
tp1070
I1
s(VXXX-IN :arg0/NP :arg1/VP .
p1071
V:root/ROOT~cause-01
p1072
(V:arg1~tame-01
p1073
tp1074
tp1075
I1
s(VXXX-CC so :arg0/NP :op2/VP ... :arg2/S .
p1076
V:root/ROOT~and
p1077
(V:op2~love-01
p1078
tp1079
tp1080
I1
s(V:arg1/NP were :direction/IN the XXX-PRP$ :direction/NN :arg4/PP ? ''
p1081
V:root/ROOT~go-02
p1082
(V:arg1~you
p1083
V:arg4~place
p1084
V:direction~back
p1085
V:direction~back
p1086
tp1087
tp1088
I1
s(V:arg1/S , '' XXX-VBD :arg0/NP .
p1089
V:root/ROOT~say-01
p1090
(V:arg0~snake
p1091
V:arg1~large
p1092
tp1093
tp1094
I1
s(V:domain/NP is :polarity/RB :mod/ADVP an :mod/JJ XXX-NN !
p1095
V:root/ROOT~planet
p1096
(V:domain~planet/name
p1097
V:mod~ordinary
p1098
tp1099
tp1100
I1
s(Vthere are :polarity/DT XXX-NNS :location/PP .
p1101
V:root/ROOT~person
p1102
(V:location~desert
p1103
V:polarity~-
p1104
tp1105
tp1106
I1
s(V'' :op1/S , '' :arg0/NP XXX-VBD :arg2-of/PP , '' :arg1/CC :op2/S .
p1107
V:root/ROOT~say-01
p1108
(V:arg0~prince
p1109
V:arg1~and
p1110
V:arg2~coref
p1111
tp1112
tp1113
I1
s(V'' XXX-NNS ? ''
p1114
V:root/ROOT~fly
p1115
g23
tp1116
I1
s(VXXX-CC :arg2/VP .
p1117
V:root/ROOT~contrast-01
p1118
(V:arg2~waste-01
p1119
tp1120
tp1121
I1
s(V'' :arg1/PP , '' XXX-VBD :arg0/NP , :arg1-of/PP .
p1122
V:root/ROOT~say-01
p1123
(V:arg0~king
p1124
V:arg1-of~simple-02
p1125
V:arg1~everything
p1126
tp1127
tp1128
I1
s(V:time/SBAR :arg0/NP :manner/ADVP XXX-VBD :arg1/NP .
p1129
V:root/ROOT~salute-01
p1130
(V:arg0~he
p1131
V:arg1~person
p1132
V:manner~respect-01
p1133
V:time~arrive-01
p1134
tp1135
tp1136
I1
s(Vbut :arg0/NP was XXX-VBG ...
p1137
V:root/ROOT~wonder-01
p1138
(V:arg0~prince
p1139
tp1140
tp1141
I1
s(VXXX-CC :arg0/NP :op2/VP : '' :arg1/S .
p1142
V:root/ROOT~and
p1143
(V:op2~hear-01
p1144
tp1145
tp1146
I1
s(V'' XXX-UH ! ''
p1147
V:root/ROOT~oh
p1148
g23
tp1149
I2
s(V'' :domain/NP is :degree/NP XXX-JJ :domain/IN :arg2/NP ... ''
p1150
V:root/ROOT~lonely
p1151
(V:degree~little
p1152
V:domain~be-located-at-91
p1153
V:domain~be-located-at-91
p1154
tp1155
tp1156
I1
s(V:arg0/NP shall XXX-VB :degree/PP .
p1157
V:root/ROOT~look-02
p1158
(V:arg0~i
p1159
V:arg1~have-manner-91
p1160
V:degree~little
p1161
tp1162
tp1163
I1
s(VXXX-CC :arg0/NP :arg2/VP .
p1164
V:root/ROOT~contrast-01
p1165
(V:arg2~see-01
p1166
tp1167
tp1168
I1
s(V:degree/NP will be a :mod/ADJP XXX-NN :arg1/SBAR ''
p1169
V:root/ROOT~trick-01
p1170
(V:arg0~i
p1171
V:arg1~you
p1172
V:mod~shabby
p1173
tp1174
tp1175
I1
s(V'' :arg1/NP is :arg0/PRP$ XXX-JJ .
p1176
V:root/ROOT~present-01
p1177
(V:arg0~i
p1178
V:arg1~that
p1179
tp1180
tp1181
I1
s(VXXX-CC :arg2/S : '' at :mod/S , :arg1/CC :mod/S !
p1182
V:root/ROOT~contrast-01
p1183
(V:arg2~say-01
p1184
tp1185
tp1186
I1
s(V'' :domain/NP is the :mod/ADJP XXX-NN :compared-to/PP .
p1187
V:root/ROOT~thing
p1188
(V:domain~that
p1189
V:mod~difficult
p1190
tp1191
tp1192
I1
s(V'' am :polarity/NP :arg1/ADJP ? '' :arg0/NP XXX-VBD , :manner/ADVP .
p1193
V:root/MULTI-SENTENCE~respond-01
p1194
(V:arg0~flower
p1195
V:arg1~beautiful-02
p1196
V:manner~sweet-03
p1197
tp1198
tp1199
I1
s(V:ord/NP - - XXX-RB , :domain/NP :domain/VP :ord/.
p1200
V:root/ROOT~disturb-01
p1201
(V:domain~this
p1202
V:domain~this
p1203
V:ord~ordinal-entity
p1204
V:ord~ordinal-entity
p1205
tp1206
tp1207
I1
s(V'' :arg1/S , '' XXX-VBD :arg0/NP .
p1208
V:root/ROOT~say-01
p1209
(V:arg0~snake
p1210
V:arg1~possible-01
p1211
tp1212
tp1213
I1
s(V'' :arg1/NP am :mod/RB XXX-JJ . ''
p1214
V:root/ROOT~happy-01
p1215
(V:arg1~i
p1216
V:mod~so
p1217
V:polarity~-
p1218
tp1219
tp1220
I1
s(V:arg0/NP should be :arg0/JJ , for XXX-NN , :arg1/S .
p1221
V:root/ROOT~exemplify-01
p1222
(V:arg0~possible-01
p1223
tp1224
tp1225
I1
s(V:condition/SBAR , it is :arg1-of/JJ to XXX-VB :time/IN :arg1/NP .
p1226
V:root/ROOT~look-01
p1227
(V:arg1-of~sweet-04
p1228
V:arg1~sky
p1229
V:condition~love-01
p1230
tp1231
tp1232
I1
s(V:arg1/SBAR :arg1/WHNP be :arg2/. '' XXX-VBD :arg0/NP .
p1233
V:root/MULTI-SENTENCE~inquire-01
p1234
(V:arg0~prince
p1235
V:arg1~be-temporally-at-91
p1236
tp1237
tp1238
I1
s(V'' XXX-CC :arg0/NP :arg2/VP - - ''
p1239
V:root/ROOT~contrast-01
p1240
(V:arg2~see-01
p1241
tp1242
tp1243
I1
s(V:arg1/NP had XXX-VBN :time-of/PP .
p1244
V:root/ROOT~come-01
p1245
(V:arg1~she
p1246
V:time-of~seed
p1247
tp1248
tp1249
I1
s(V'' :arg1/CC :arg2/WHNP :arg1/SQ ? '' XXX-VBN :arg0/NP , :time/ADVP he :op1/VP .
p1250
V:root/MULTI-SENTENCE~repeat-01
p1251
(V:arg0~prince
p1252
V:arg1~contrast-01
p1253
tp1254
tp1255
I1
s(V:domain/NP were the :quant/CD XXX-NNS , :arg1-of/SBAR .
p1256
V:root/ROOT~volcano
p1257
(V:arg1-of~come-04
p1258
V:domain~mountain
p1259
V:quant~3
p1260
tp1261
tp1262
I1
s(V'' XXX-RB , :arg1/NP :arg2/VP .
p1263
V:root/ROOT~have-concession-91
p1264
(V:arg2~obligate-01
p1265
tp1266
tp1267
I1
s(V'' :arg2/S , '' :arg0/NP :op1/VP , XXX-CC :manner/ADVP :op2/VP .
p1268
V:root/ROOT~and
p1269
(V:op1~answer-01
p1270
V:op2~gather-01
p1271
tp1272
tp1273
I1
s(VXXX-CC :domain/NP :op2/VP .
p1274
V:root/ROOT~and
p1275
(V:op2~silent
p1276
tp1277
tp1278
I2
s(V:arg0/NP is a XXX-NN , :arg0-of/PP , :arg0-of/PP .
p1279
V:root/ROOT~rite
p1280
(V:arg0-of~exemplify-01
p1281
V:arg1-of~have-03
p1282
tp1283
tp1284
I1
s(V'' :arg1/S , '' :arg0-of/NP XXX-VBD , :arg0-of/S .
p1285
V:root/ROOT~confess-01
p1286
(V:arg0~person
p1287
V:arg1~forget-01
p1288
tp1289
tp1290
I1
s(V:condition/SBAR , i XXX-MD :op2/VP .
p1291
V:root/ROOT~possible-01
p1292
(V:arg1~and
p1293
V:condition~own-01
p1294
tp1295
tp1296
I1
s(V'' :arg1/S - - :arg0/S , '' :arg0/NP XXX-VBD .
p1297
V:root/ROOT~say-01
p1298
(V:arg0~snake
p1299
V:arg1~pity-01
p1300
tp1301
tp1302
I1
s(V'' :arg2/S , '' :arg0/NP XXX-VBD .
p1303
V:root/ROOT~reply-01
p1304
(V:arg0~prince
p1305
V:arg2~want-01
p1306
tp1307
tp1308
I1
s(V:arg1/NP was XXX-VBN :ord/IN :arg0/NP .
p1309
V:root/ROOT~inhabit-01
p1310
(V:arg0~man
p1311
V:arg1~planet
p1312
tp1313
tp1314
I1
s(V'' :mod/DT :arg0/NN , '' :arg0/NP XXX-VBD :arg2/SBAR ''
p1315
V:root/ROOT~say-01
p1316
(V:arg0~prince
p1317
V:arg1~reason-01
p1318
V:arg2~coref
p1319
tp1320
tp1321
I1
s(V'' :arg0/NP XXX-NN :arg1/NP :arg2/PP .
p1322
V:root/ROOT~order-01
p1323
(V:arg0~i
p1324
V:arg1~you
p1325
V:arg2~yawn-01
p1326
tp1327
tp1328
I1
s(V:arg0/NP XXX-VBD :arg0/ADVP :arg1-of/IN :arg2/S .
p1329
V:root/ROOT~feel-01
p1330
(V:arg0~prince
p1331
V:arg1~obligate-01
p1332
V:time~at-once
p1333
tp1334
tp1335
I1
s(V'' XXX-VB :arg1/NP
p1336
V:root/ROOT~leave-02
p1337
(V:arg0~you
p1338
V:arg1~it
p1339
V:arg2~i
p1340
tp1341
tp1342
I1
s(V'' :arg0/NP will be :degree/RB XXX-JJ !
p1343
V:root/ROOT~amuse-01
p1344
(V:arg0~that
p1345
V:degree~so
p1346
tp1347
tp1348
I1
s(V:arg1/NP XXX-MD :polarity/RB :arg1/VP .
p1349
V:root/ROOT~possible-01
p1350
(V:arg1~move-01
p1351
V:polarity~-
p1352
tp1353
tp1354
I1
s(V:arg0/NP :polarity/VBD :polarity/RB XXX-VB .
p1355
V:root/ROOT~answer-01
p1356
(V:arg0~i
p1357
V:polarity~-
p1358
V:polarity~-
p1359
tp1360
tp1361
I1
s(V:time/ADVP :arg0/NP XXX-VBD , :mod/ADVP : '' :arg1/S ...
p1362
V:root/ROOT~say-01
p1363
(V:arg0~he
p1364
V:arg1~flower
p1365
V:mod~again
p1366
V:time~then
p1367
tp1368
tp1369
I1
s(V:arg0/NP :polarity/VBD :polarity/RB XXX-VB :op1/WHADVP :manner-of/S .
p1370
V:root/ROOT~know-01
p1371
(V:arg0~i
p1372
V:arg1~and
p1373
V:polarity~-
p1374
V:polarity~-
p1375
tp1376
tp1377
I1
s(V'' XXX-RB .
p1378
V:root/ROOT~exact
p1379
g23
tp1380
I1
s(V:arg0/NP are XXX-JJ :arg1/PP ''
p1381
V:root/ROOT~responsible-03
p1382
(V:arg0~you
p1383
V:arg1~rose
p1384
tp1385
tp1386
I1
s(V:arg1/NP XXX-VBD :frequency/RB :mod/RBR .
p1387
V:root/ROOT~flush-03
p1388
(V:arg1~prince
p1389
V:mod~again
p1390
tp1391
tp1392
I1
s(V'' :arg2/NP - - :arg2/WHPP XXX-VBP you :arg1/VP :arg1/. ''
p1393
V:root/ROOT~say-01
p1394
(V:arg1~rule-03
p1395
V:arg2~person
p1396
tp1397
tp1398
I1
s(V:arg1-of/S , :arg0/NP would XXX-VB :arg1/SBAR - - the rose :arg1-of/IN :arg0-of/S .
p1399
V:root/ROOT~think-01
p1400
(V:arg0~person
p1401
V:arg1-of~sure-02
p1402
V:arg1-of~sure-02
p1403
V:arg1~look-02
p1404
tp1405
tp1406
I1
s(V'' :arg1/S , '' :arg0/NP XXX-VBD :arg2/PP .
p1407
V:root/ROOT~say-01
p1408
(V:arg0~king
p1409
V:arg1~know-01
p1410
V:arg2~he
p1411
tp1412
tp1413
I1
s(V'' :arg1/S , '' :arg0/NP XXX-VBD .
p1414
V:root/ROOT~say-01
p1415
(V:arg0~snake
p1416
V:arg1~beautiful-02
p1417
tp1418
tp1419
I1
s(V:arg0/NP :mod/ADVP XXX-VBD :arg1/NP .
p1420
V:root/ROOT~have-03
p1421
(V:arg0~he
p1422
V:arg1~volcano
p1423
V:mod~also
p1424
tp1425
tp1426
I1
s(V'' :arg1/ADVP , '' XXX-VBD :arg0/NP .
p1427
V:root/ROOT~say-01
p1428
(V:arg0~prince
p1429
V:arg1~no
p1430
tp1431
tp1432
I1
s(VXXX-NN :arg2/SBAR ... ''
p1433
V:root/ROOT~order-01
p1434
(V:arg0~you
p1435
V:arg1~sun
p1436
V:arg2~set-11
p1437
tp1438
tp1439
I1
s(V:arg0/NP XXX-MD :polarity/RB :mod/VP ''
p1440
V:root/ROOT~possible-01
p1441
(V:arg1~travel-01
p1442
V:mod~even
p1443
V:polarity~-
p1444
tp1445
tp1446
I1
s(VXXX-NN :mod/NP .
p1447
V:root/ROOT~chapter
p1448
(V:mod~15
p1449
tp1450
tp1451
I1
s(V:time/SBAR , he was :degree/ADVP XXX-JJ :arg0/S .
p1452
V:root/ROOT~surprise-01
p1453
(V:arg0~see-01
p1454
V:arg1~prince
p1455
V:degree~much
p1456
V:time~arrive-01
p1457
tp1458
tp1459
I1
s(V'' :arg1/NP is XXX-JJ :example/IN :arg2/NP : :op3/NP ... ''
p1460
V:root/ROOT~ready-02
p1461
(V:arg1~everything
p1462
V:arg2~use-01
p1463
tp1464
tp1465
I1
s(V:arg0/NP :polarity/VBP :polarity/RB XXX-VB myself :arg2/PP .
p1466
V:root/ROOT~amuse-01
p1467
(V:arg0~i
p1468
V:arg1~coref
p1469
V:arg2~balderdash
p1470
V:polarity~-
p1471
V:polarity~-
p1472
tp1473
tp1474
I1
s(Vdo :polarity/RB XXX-VB :purpose/S .
p1475
V:root/ROOT~come-01
p1476
(V:arg1~you
p1477
V:polarity~-
p1478
V:purpose~see-01
p1479
tp1480
tp1481
I1
s(V:arg2/NP was :quant/ADVP :arg1/ADJP , for it was becoming :arg0/ADJP XXX-IN :arg1/S .
p1482
V:root/ROOT~cause-01
p1483
(V:arg0~clear-06
p1484
V:arg1~worry-01
p1485
tp1486
tp1487
I1
s(V'' :arg1-of/ADVP , '' XXX-VBD :arg0/NP .
p1488
V:root/ROOT~say-01
p1489
(V:arg0~rose
p1490
V:arg1~morning
p1491
tp1492
tp1493
I1
s(V'' :arg0/NP :mod/RB :arg2/NP :domain/PRN that has :arg1/NN to XXX-VB :arg1/PP ! ''
p1494
V:root/ROOT~say-01
p1495
(V:arg0~i
p1496
V:arg1~concern-02
p1497
V:arg2~man
p1498
tp1499
tp1500
I1
s(V:time/SBAR , he XXX-VBD :arg1-of/IN :arg1/S .
p1501
V:root/ROOT~feel-01
p1502
(V:arg0~prince
p1503
V:arg1~love-01
p1504
V:time~watch-01
p1505
tp1506
tp1507
I1
s(V:arg0/NP runs the XXX-NN :arg2/PP ...
p1508
V:root/ROOT~risk-01
p1509
(V:arg0~one
p1510
V:arg2~weep-01
p1511
V:condition~let-01
p1512
V:condition~let-01
p1513
tp1514
tp1515
I1
s(VXXX-CC :arg0/NP :op2/VP .
p1516
V:root/ROOT~and
p1517
(V:op2~understand-01
p1518
tp1519
tp1520
I1
s(V'' :quant/NP :op1/IN :arg1/NP , '' :arg0/NP XXX-VBD , '' :arg1-of/SBAR . ''
p1521
V:root/ROOT~say-01
p1522
(V:arg0~he
p1523
V:arg1~object
p1524
tp1525
tp1526
I1
s(V'' :arg0/NP have :polarity/RB yet :polarity/VBN a :arg1-of/JJ XXX-NN :arg1/PP .
p1527
V:root/ROOT~tour-01
p1528
(V:arg0~i
p1529
V:arg1-of~complete-02
p1530
V:arg1~kingdom
p1531
V:polarity~-
p1532
V:polarity~-
p1533
tp1534
tp1535
I1
s(V'' :domain/NP is :polarity/RB :arg1/ADJP :degree/ADVP :arg0-of/. '' XXX-VBD :arg1/NP .
p1536
V:root/MULTI-SENTENCE~say-01
p1537
(V:arg0~person
p1538
V:arg1~funny
p1539
tp1540
tp1541
I1
s(VXXX-VB :arg0/NP ?
p1542
V:root/ROOT~ask-01
p1543
(V:arg0~you
p1544
V:arg1~or
p1545
V:arg2~coref
p1546
tp1547
tp1548
I1
s(V'' is :domain/IN XXX-DT that :arg1-of/VP ? ''
p1549
V:root/ROOT~all
p1550
(V:arg1-of~need-01
p1551
V:domain~that
p1552
tp1553
tp1554
I1
s(V'' yes , :arg1/NP is XXX-JJ , ''
p1555
V:root/ROOT~true-01
p1556
(V:arg1~that
p1557
tp1558
tp1559
I1
s(VXXX-CC :arg0/NP :op2/VP ''
p1560
V:root/ROOT~and
p1561
(V:op2~love-02
p1562
tp1563
tp1564
I1
s(V:time/PP :arg0/NP XXX-VBP to myself : :arg1-of/VP :arg2/PP :arg1/.
p1565
V:root/ROOT~say-01
p1566
(V:arg0~i
p1567
V:arg1~have-polarity-91
p1568
V:arg2~coref
p1569
V:time~one
p1570
tp1571
tp1572
I1
s(V'' there :time/ADVP - - XXX-WDT :mod/VP ... ''
p1573
V:root/ROOT~that
p1574
(V:mod~all
p1575
V:time~now
p1576
tp1577
tp1578
I1
s(V:arg1/NP :op1/VP XXX-CC :op2/VP .
p1579
V:root/ROOT~and
p1580
(V:op1~sit-down-02
p1581
V:op2~pant-01
p1582
tp1583
tp1584
I1
s(V:arg1/S , XXX-CC :arg2/S : '' :arg1/S . ''
p1585
V:root/ROOT~contrast-01
p1586
(V:arg1~sad-02
p1587
V:arg2~tell-01
p1588
tp1589
tp1590
I1
s(V:arg0/NP XXX-JJ :mod/NP :arg1/NP .
p1591
V:root/ROOT~perfume-01
p1592
(V:arg0~thing
p1593
V:arg1~planet
p1594
tp1595
tp1596
I1
s(V'' :arg1/INTJ , '' XXX-VBD :arg0/NP , '' :concession/CC :arg1/S .
p1597
V:root/ROOT~say-01
p1598
(V:arg0~prince
p1599
V:arg1~yes
p1600
tp1601
tp1602
I1
s(V'' :domain/S , '' :arg0/NP XXX-VBD , '' :arg0/NP :arg0/VP . ''
p1603
V:root/ROOT~say-01
p1604
(V:arg0~he
p1605
V:arg1~all-right
p1606
tp1607
tp1608
I1
s(V'' :arg0/NP :op1/VP XXX-CC :op2/VP .
p1609
V:root/ROOT~and
p1610
(V:op1~count-01
p1611
V:op2~recount-01
p1612
tp1613
tp1614
I1
s(V'' :arg0/NP :arg1/FW you , '' XXX-VBD :arg0/NP , :arg0-of/S , '' :arg1/CC :arg1/S :arg0/. ''
p1615
V:root/ROOT~say-01
p1616
(V:arg0~prince
p1617
V:arg1~contrast-01
p1618
tp1619
tp1620
I1
s(V:arg0/NP are XXX-JJ :arg1/SBAR ? ''
p1621
V:root/ROOT~sure-02
p1622
(V:arg0~you
p1623
V:arg1~suffer-01
p1624
tp1625
tp1626
I1
s(VXXX-CC :arg0/NP :arg2/VP .
p1627
V:root/ROOT~contrast-01
p1628
(V:arg2~require-01
p1629
tp1630
tp1631
I1
s(Vthere was a XXX-NN :arg2/PP .
p1632
V:root/ROOT~moment
p1633
(V:arg1-of~compose-01
p1634
tp1635
tp1636
I1
s(V'' to whom :arg2/SQ :arg1/. '' :arg0/NP XXX-VBD , :manner/ADVP .
p1637
V:root/MULTI-SENTENCE~retort-01
p1638
(V:arg0~businessman
p1639
V:arg2~belong-01
p1640
V:manner~peevish
p1641
tp1642
tp1643
I1
s(VXXX-CC :condition/SBAR !
p1644
V:root/ROOT~and
p1645
(V:op1~oh
p1646
tp1647
tp1648
I1
s(V'' you are :polarity/RB XXX-JJ , :arg0/NP , ''
p1649
V:root/ROOT~fair-01
p1650
(V:arg0~prince
p1651
V:polarity~-
p1652
tp1653
tp1654
I1
s(V'' :manner/WHADVP do :arg0/NP XXX-VB :arg1/PP :manner/. ''
p1655
V:root/ROOT~know-01
p1656
(V:arg0~you
p1657
V:arg1~that
p1658
V:manner~amr-unknown
p1659
V:manner~amr-unknown
p1660
tp1661
tp1662
I1
s(V'' :arg1-of/WHADVP is XXX-IN :arg0/. ''
p1663
V:root/ROOT~that
p1664
(V:arg1-of~cause-01
p1665
tp1666
tp1667
I1
s(VXXX-CC :arg0/NP :op2/VP : '' :arg1/S ... ''
p1668
V:root/ROOT~and
p1669
(V:op2~add-01
p1670
tp1671
tp1672
I1
s(V'' :arg1/S , '' XXX-VBD :arg1/NP .
p1673
V:root/ROOT~say-01
p1674
(V:arg0~person
p1675
V:arg1~lucky
p1676
tp1677
tp1678
I1
s(V:degree/WRB XXX-JJ :arg1/NP are ! ''
p1679
V:root/ROOT~beautiful-02
p1680
(V:arg1~you
p1681
V:degree~so
p1682
tp1683
tp1684
I1
s(VXXX-CC nevertheless :arg0/NP :arg1/VP .
p1685
V:root/ROOT~have-concession-91
p1686
(V:arg1~start-01
p1687
tp1688
tp1689
I1
s(V:arg1/NP XXX-VBZ :arg2/NP , here :location/SBAR ! ''
p1690
V:root/ROOT~last-01
p1691
(V:arg1~temporal-quantity
p1692
V:arg2~temporal-quantity
p1693
V:location~live-01
p1694
V:mod~only
p1695
tp1696
tp1697
I1
s(V:polite/S , '' XXX-VBD :arg0/NP .
p1698
V:root/ROOT~say-01
p1699
(V:arg0~prince
p1700
V:arg1~excuse-01
p1701
tp1702
tp1703
I1
s(V'' XXX-CC :arg1/NP :op2/VP , :arg2/NP :op2/VP ''
p1704
V:root/ROOT~contrast-01
p1705
(V:arg2~and
p1706
tp1707
tp1708
I1
s(V'' XXX-CC :arg1/S :arg0/. ''
p1709
V:root/ROOT~contrast-01
p1710
(V:arg2~cause-01
p1711
tp1712
tp1713
I1
s(V'' i , '' XXX-VBD :arg0/NP .
p1714
V:root/ROOT~reply-01
p1715
(V:arg0~prince
p1716
V:arg1~like-01
p1717
tp1718
tp1719
I1
s(V'' :arg1-of/VBN :arg1/NP XXX-VBZ :mod/ADVP :arg2/PP .
p1720
V:root/ROOT~rest-02
p1721
(V:arg1~authority
p1722
V:arg2~reason-01
p1723
V:mod~first-of-all
p1724
tp1725
tp1726
I1
s(V:arg1/NP was :degree/NP XXX-VBN .
p1727
V:root/ROOT~discourage-01
p1728
(V:arg1~he
p1729
V:degree~little
p1730
tp1731
tp1732
I1
s(Vso :arg1/NP :arg1-of/VBD :time/ADVP XXX-VBN :arg2/S .
p1733
V:root/ROOT~come-04
p1734
(V:arg1-of~cause-01
p1735
V:arg1~prince
p1736
V:arg2~doubt-01
p1737
V:concession~will
p1738
V:concession~will
p1739
V:time~soon
p1740
V:time~soon
p1741
tp1742
tp1743
I1
s(V:domain/NP was :arg1-of/ADVP :degree/RB XXX-JJ .
p1744
V:root/ROOT~angry
p1745
(V:arg1-of~real-04
p1746
V:degree~very
p1747
V:domain~he
p1748
tp1749
tp1750
I1
s(V:domain/NP :arg0-of/VP XXX-.
p1751
V:root/ROOT~person
p1752
(V:arg0-of~explore-01
p1753
V:domain~you
p1754
tp1755
tp1756
I1
s(V:time/S - - :time/S , '' XXX-VBD :arg0/NP .
p1757
V:root/ROOT~say-01
p1758
(V:arg0~prince
p1759
V:arg1~come-01
p1760
tp1761
tp1762
I1
s(VXXX-CC :arg0/NP :op2/VP .
p1763
V:root/ROOT~and
p1764
(V:op2~take-01
p1765
tp1766
tp1767
I1
s(VXXX-NN :mod/NP .
p1768
V:root/ROOT~chapter
p1769
(V:mod~16
p1770
tp1771
tp1772
I1
s(V'' :arg0/NP XXX-VBP :arg1/NP ? ''
p1773
V:root/ROOT~own-01
p1774
(V:arg0~you
p1775
V:arg1~star
p1776
tp1777
tp1778
I1
s(V:time/NP will be :poss/PRP$ XXX-NN . ''
p1779
V:root/ROOT~anniversary
p1780
(V:poss~it
p1781
V:time~tomorrow
p1782
tp1783
tp1784
I1
s(Vfive - hundred - XXX-CC :op1/PRN - :arg1/S ...
p1785
V:root/ROOT~and
p1786
(V:op1~501000000
p1787
V:op2~possible-01
p1788
tp1789
tp1790
I1
s(VXXX-CC :ord/NP :mod/VP .
p1791
V:root/ROOT~and
p1792
(V:op2~thunder-01
p1793
tp1794
tp1795
I1
s(Vfor what :arg0/NP :mod/ADVP XXX-VBD upon was :arg1/SBAR .
p1796
V:root/ROOT~insist-01
p1797
(V:arg0~king
p1798
V:arg1~respect-01
p1799
V:mod~fundamental
p1800
tp1801
tp1802
I1
s(V:arg0/S XXX-VBD :arg1/NP ?
p1803
V:root/ROOT~eat-01
p1804
(V:arg0~sheep
p1805
V:arg1~flower
p1806
tp1807
tp1808
I1
s(V'' :arg1/NP is :mod/JJ is :instrument/JJ :arg1/TO :instrument/NP , '' :arg0/NP XXX-VBN , :arg1-of/SBAR .
p1809
V:root/ROOT~repeat-01
p1810
(V:arg0~prince
p1811
V:arg1~possible-01
p1812
V:purpose~remember-01
p1813
tp1814
tp1815
I1
s(V'' :arg1-of/NP :arg1/VBP been XXX-VBN :arg0/IN :arg1-of/NP .
p1816
V:root/ROOT~make-01
p1817
(V:arg0~person
p1818
V:arg1~thing
p1819
tp1820
tp1821
I1
s(V:arg1/NP was XXX-VBN .
p1822
V:root/ROOT~tire-01
p1823
(V:arg1~he
p1824
tp1825
tp1826
I1
s(V:mod/WHPP :time/NP now was :op1/NP , :op2/NP , XXX-CC :op3/NP , or :op4/NP ?
p1827
V:root/ROOT~or
p1828
(V:op1~hammer
p1829
V:op2~bolt
p1830
V:op3~thirst-01
p1831
V:op4~die-01
p1832
V:time~moment
p1833
tp1834
tp1835
I1
s(V:arg1-of/NP are XXX-VBN :direction/PRT :time/ADVP :instrument/PP .
p1836
V:root/ROOT~put-01
p1837
(V:arg1~thing
p1838
V:direction~down
p1839
V:instrument~pencil
p1840
V:time~first
p1841
tp1842
tp1843
I1
s(V:op1/S XXX-CC :op2/S .
p1844
V:root/ROOT~and
p1845
(V:op1~activity-06
p1846
V:op2~extinct
p1847
tp1848
tp1849
I1
s(V:arg0-of/NP :arg0/VP , XXX-CC :op2/VP .
p1850
V:root/ROOT~and
p1851
(V:op1~end-01
p1852
V:op2~shut-up-06
p1853
tp1854
tp1855
I1
s(V'' :arg1/S , '' XXX-VBD :arg0/NP .
p1856
V:root/ROOT~say-01
p1857
(V:arg0~geographer
p1858
V:arg1~know-01
p1859
tp1860
tp1861
I1
s(VXXX-NN :mod/NP .
p1862
V:root/ROOT~chapter
p1863
(V:mod~18
p1864
tp1865
tp1866
I1
s(V'' :arg1/S , '' :arg0/NP XXX-VBD .
p1867
V:root/ROOT~say-01
p1868
(V:arg0~he
p1869
V:arg1~beautiful-02
p1870
tp1871
tp1872
I1
s(VXXX-CC there is :arg2/NP ... :time/SBAR .
p1873
V:root/ROOT~contrast-01
p1874
(V:arg2~thing
p1875
tp1876
tp1877
I1
s(V'' :domain/NP are XXX-WP :arg0-of/S , :arg1/NP .
p1878
V:root/ROOT~thing
p1879
(V:arg0-of~make-02
p1880
V:domain~they
p1881
tp1882
tp1883
I1
s(VXXX-WP :mod/S :arg1-of/VP ... ''
p1884
V:root/ROOT~see-01
p1885
(V:arg1-of~possible-01
p1886
V:arg1~thing
p1887
tp1888
tp1889
I1
s(V'' :arg0/NP XXX-VB :arg1/NP .
p1890
V:root/ROOT~ask-02
p1891
(V:arg0~i
p1892
V:arg1~forgive-01
p1893
V:arg2~you
p1894
tp1895
tp1896
I1
s(V:op2/NP was :extent/NP XXX-IN :arg0/NP :arg1/PP .
p1897
V:root/ROOT~accommodate-01
p1898
(V:arg0~it
p1899
V:arg1~and
p1900
V:extent~enough
p1901
tp1902
tp1903
I1
s(V'' XXX-CC :arg1/ADVP - - you :arg2/VP :extent/.
p1904
V:root/ROOT~contrast-01
p1905
(V:arg2~come-01
p1906
tp1907
tp1908
I1
s(V'' :arg0/NP shall :arg1/VB :arg2/NP , '' :arg0/NP XXX-VBN .
p1909
V:root/ROOT~answer-01
p1910
(V:arg0~king
p1911
V:arg2~have-condition-91
p1912
tp1913
tp1914
I1
s(V:arg1/NP were XXX-VBN :poss/IN :arg0/S .
p1915
V:root/ROOT~choke-up-04
p1916
(V:arg0~sob-01
p1917
V:arg1~word
p1918
tp1919
tp1920
I1
s(VXXX-CC :arg0/NP :arg2/VP ...
p1921
V:root/ROOT~contrast-01
p1922
(V:arg2~go-on-25
p1923
tp1924
tp1925
I1
s(V:arg0/NP XXX-VBP :arg1/SBAR .
p1926
V:root/ROOT~believe-01
p1927
(V:arg0~i
p1928
V:arg1~take-01
p1929
tp1930
tp1931
I1
s(Vand :arg0/NP will XXX-VB :degree/WHADVP :arg1/S . ''
p1932
V:root/ROOT~see-01
p1933
(V:arg0~you
p1934
V:arg1~obey-01
p1935
tp1936
tp1937
I1
s(V'' :arg1/NP are :polarity/RB :degree/RB XXX-JJ .
p1938
V:root/ROOT~powerful-02
p1939
(V:arg1~you
p1940
V:degree~very
p1941
tp1942
tp1943
I1
s(V'' if i ordered a general , '' :arg0/NP would XXX-VB , :condition-of/PP , '' :arg1/SBAR , and :condition-of/S .
p1944
V:root/ROOT~say-01
p1945
(V:arg0-of~exemplify-01
p1946
V:arg0-of~exemplify-01
p1947
V:arg0~he
p1948
V:arg1~order-01
p1949
tp1950
tp1951
I1
s(V:arg2/NP , XXX-RB , :arg0/VP : '' :polarity/PRN - :arg1/S ?
p1952
V:root/ROOT~contrast-01
p1953
(V:arg2~question-01
p1954
tp1955
tp1956
I1
s(Vfor XXX-NN , :condition/IN :arg1/S , :arg0/NP :arg0/VP . ''
p1957
V:root/ROOT~exemplify-01
p1958
(V:arg0~require-01
p1959
tp1960
tp1961
I1
s(V:arg0/NP :op1/VP , XXX-CC :op2/VP : '' :mod/IN :arg2/S .
p1962
V:root/ROOT~and
p1963
(V:op1~breathe-02
p1964
V:op2~say-01
p1965
tp1966
tp1967
I1
s(VXXX-IN :arg1/NP . ''
p1968
V:root/ROOT~belong-01
p1969
(V:arg1~nobody
p1970
tp1971
tp1972
I1
s(V:time/PP :polarity/VP :op1/VB XXX-CC :op2/VB :arg1/NP .
p1973
V:root/ROOT~or
p1974
(V:op1~see-01
p1975
V:op2~hear-01
p1976
V:time~ever
p1977
tp1978
tp1979
I1
s(V:domain/NP is :polarity/RB :domain/NP who :arg0-of/VBZ XXX-RP :purpose/S .
p1980
V:root/ROOT~person
p1981
(V:arg0-of~go-02
p1982
V:domain~geographer
p1983
V:domain~geographer
p1984
tp1985
tp1986
I1
s(V:arg1/NP XXX-VBD :location/ADVP :location/RB :op1/NP .
p1987
V:root/ROOT~sit-down-02
p1988
(V:arg1~i
p1989
V:location~beside
p1990
V:location~beside
p1991
tp1992
tp1993
I1
s(V:arg1-of/JJ XXX-NN . ''
p1994
V:root/ROOT~evening
p1995
(V:arg1-of~good-02
p1996
tp1997
tp1998
I2
s(V:mod/INTJ , XXX-DT .
p1999
V:root/ROOT~no
p2000
(V:mod~oh
p2001
tp2002
tp2003
I2
s(V'' :arg1-of/ADVP , '' :arg0/NP XXX-VBD :manner/ADVP .
p2004
V:root/ROOT~say-01
p2005
(V:arg0~he
p2006
V:arg1~morning
p2007
V:manner~courtesy
p2008
tp2009
tp2010
I1
s(VXXX-NN :mod/NP .
p2011
V:root/ROOT~chapter
p2012
(V:mod~22
p2013
tp2014
tp2015
I1
s(V:degree/NP is :degree/RB :arg1-of/RB :arg1-of/IN :arg0/NP XXX-VBZ :arg2-of/NP .
p2016
V:root/ROOT~change-01
p2017
(V:arg0~mountain
p2018
V:arg1-of~rare-02
p2019
V:arg1-of~rare-02
p2020
V:arg1~location
p2021
tp2022
tp2023
I1
s(V'' :arg1/S , '' :arg0/NP XXX-VBD :arg2/PP .
p2024
V:root/ROOT~say-01
p2025
(V:arg0~gentleman
p2026
V:arg1~geographer
p2027
V:arg2~he
p2028
tp2029
tp2030
I1
s(VXXX-CC :op2/S : '' i am :arg2/ADJP , :mod/ADVP .
p2031
V:root/ROOT~contrast-01
p2032
(V:arg2~and
p2033
tp2034
tp2035
I1
s(V:arg0/NP XXX-MD :mod/ADVP :arg1/VP . ''
p2036
V:root/ROOT~recommend-01
p2037
(V:arg1~fill-01
p2038
tp2039
tp2040
I1
s(V:arg0/NP XXX-VBD .
p2041
V:root/ROOT~smile-01
p2042
(V:arg0~prince
p2043
tp2044
tp2045
I1
s(V'' :op1/NP XXX-VBD :arg0/NP , '' :degree/NP is :polarity/RB :op2/ADJP .
p2046
V:root/ROOT~say-01
p2047
(V:arg0~prince
p2048
V:arg1~and
p2049
tp2050
tp2051
I1
s(V'' XXX-CC :time/NP .
p2052
V:root/ROOT~and
p2053
(V:op2~look-01
p2054
tp2055
tp2056
I1
s(V:arg0/NP :time/ADVP XXX-VBP :arg1/NP .
p2057
V:root/ROOT~hear-01
p2058
(V:arg0~person
p2059
V:arg1~anything
p2060
V:polarity~-
p2061
V:time~ever
p2062
tp2063
tp2064
I1
s(V'' :time/FRAG :arg1/NP :time/ADVP makes :arg3/NP , XXX-CC :op2/S .
p2065
V:root/ROOT~and
p2066
(V:op1~turn-01
p2067
V:op2~have-03
p2068
V:time~then
p2069
tp2070
tp2071
I1
s(V:arg1-of/S , :arg1/NP was XXX-VBN :arg2/PP .
p2072
V:root/ROOT~seat-01
p2073
(V:arg1~he
p2074
V:arg2~throne
p2075
tp2076
tp2077
I1
s(V'' :arg1/S , '' XXX-VBD :arg0/NP .
p2078
V:root/ROOT~say-01
p2079
(V:arg0~prince
p2080
V:arg1~have-03
p2081
tp2082
tp2083
I1
s(V'' :arg0/NP am XXX-VBG :arg1/IN :arg2/NP .
p2084
V:root/ROOT~look-01
p2085
(V:arg0~i
p2086
V:arg1~person/have-rel-role-91
p2087
tp2088
tp2089
I1
s(V:arg0/NP XXX-VBD .
p2090
V:root/ROOT~cough-01
p2091
(V:arg0~flower
p2092
tp2093
tp2094
I1
s(V:op1/CD :arg1/CC :op2/CD XXX-VBP :arg2/NP .
p2095
V:root/ROOT~equal-01
p2096
(V:arg1~sum-of
p2097
V:arg2~12
p2098
tp2099
tp2100
I1
s(Vand it XXX-VBZ :arg0/S . ''
p2101
V:root/ROOT~tire-01
p2102
(V:arg0~walk-01
p2103
V:arg1~coref
p2104
tp2105
tp2106
I1
s(VXXX-RB that is :arg1/IN :arg0/S . ''
p2107
V:root/ROOT~possible-01
p2108
(V:arg1~cause-01
p2109
tp2110
tp2111
I1
s(V:arg0/NP XXX-VBD :arg1/NP .
p2112
V:root/ROOT~have-03
p2113
(V:arg0~he
p2114
V:arg1~air
p2115
tp2116
tp2117
I1
s(Vso :time/ADVP :arg0/NP :instrument/VBD a :instrument/NN XXX-NN :arg1/PP .
p2118
V:root/ROOT~sketch-01
p2119
(V:arg0~i
p2120
V:arg1~muzzle
p2121
V:instrument~pencil
p2122
V:instrument~pencil
p2123
V:time~then
p2124
tp2125
tp2126
I1
s(V'' :arg1/S , '' :arg0/NP XXX-VBD :arg3/NP :arg3/NP-TMP .
p2127
V:root/ROOT~continue-02
p2128
(V:arg0~he
p2129
V:arg1~own-01
p2130
V:arg2~businessman
p2131
V:arg3~converse-01
p2132
V:arg3~converse-01
p2133
tp2134
tp2135
I1
s(V'' that XXX-VBZ :arg1/IN :arg2/S .
p2136
V:root/ROOT~mean-01
p2137
(V:arg1~that
p2138
V:arg2~write-01
p2139
tp2140
tp2141
I1
s(V:op1/S , XXX-CC :op2/S .
p2142
V:root/ROOT~and
p2143
(V:op1~fall-04
p2144
V:op2~begin-01
p2145
V:time~trudge-01
p2146
tp2147
tp2148
I1
s(V:arg1/NP was a thing for the :mod/JJ :arg0/NN to XXX-VB at .
p2149
V:root/ROOT~marvel-01
p2150
(V:arg0~prince
p2151
V:arg1~power
p2152
tp2153
tp2154
I1
s(V:arg0/NP :polarity/ADVP XXX-VBD :arg1/VP .
p2155
V:root/ROOT~let-01
p2156
(V:arg0~prince
p2157
V:arg1~go-01
p2158
V:polarity~-
p2159
V:time~once
p2160
tp2161
tp2162
I1
s(V:arg0/NP will XXX-VB :arg0/NP :arg2/NP ! ''
p2163
V:root/ROOT~make-02
p2164
(V:arg0~i
p2165
V:arg1~have-org-role-91
p2166
tp2167
tp2168
I1
s(VXXX-CC so :arg1/NP will be :op2/IN if :time/S ! ''
p2169
V:root/ROOT~and
p2170
(V:op2~resemble-01
p2171
tp2172
tp2173
I1
s(V:arg1/NP was XXX-VBN :manner/IN :arg0/NP .
p2174
V:root/ROOT~astonish-01
p2175
(V:arg0~understand-01
p2176
V:arg1~i
p2177
tp2178
tp2179
I1
s(V:arg1/NP :arg0/MD XXX-VB :arg2/NP , :arg1-of/IN :arg2/NP , :arg1/IN :arg2/PP .
p2180
V:root/ROOT~call-03
p2181
(V:arg0~step-01
p2182
V:arg1-of~resemble-01
p2183
V:arg1~out-06
p2184
V:arg2~i
p2185
tp2186
tp2187
I1
s(V'' XXX-WDT :arg1-of/VP :domain/. ''
p2188
V:root/ROOT~thing
p2189
(V:arg1-of~promise-01
p2190
V:domain~amr-unknown
p2191
tp2192
tp2193
I1
s(VXXX-CC :condition/SBAR , :arg1/S , and :arg2/S . ''
p2194
V:root/ROOT~contrast-01
p2195
(V:arg2~vacation-01
p2196
tp2197
tp2198
I1
s(V'' what does that XXX-NN - :arg1/VP :arg2/. ''
p2199
V:root/ROOT~mean-01
p2200
(V:arg1~ephemeral
p2201
V:arg2~amr-unknown
p2202
tp2203
tp2204
I2
s(V'' :domain/NP is :degree/RB XXX-JJ :domain/.
p2205
V:root/ROOT~funny
p2206
(V:degree~very
p2207
V:domain~that
p2208
V:domain~that
p2209
tp2210
tp2211
I1
s(VXXX-NN :mod/NP .
p2212
V:root/ROOT~chapter
p2213
(V:mod~11
p2214
tp2215
tp2216
I1
s(V:location-of/NP :location-of/MD be XXX-RB :time/NP-TMP . ''
p2217
V:root/ROOT~there
p2218
(V:location-of~i
p2219
V:location-of~i
p2220
V:time~date-entity
p2221
tp2222
tp2223
I1
s(V:arg0/NP XXX-VBD :op2/NP .
p2224
V:root/ROOT~feel-01
p2225
(V:arg0~i
p2226
V:arg1~and
p2227
tp2228
tp2229
I1
s(V:time/WHADVP i was :time/NP , :op1/NP of :arg0/NP , :op2/NP of :poss/NP , :op3/NP , :poss/VBN to XXX-VB :arg0/PRT , :manner/ADVP , :arg1/NP :arg1-of/VP .
p2230
V:root/ROOT~make-up-07
p2231
(V:arg0~and
p2232
V:arg1~radiant
p2233
V:manner~so
p2234
V:time~boy
p2235
V:time~boy
p2236
tp2237
tp2238
I1
s(V:op1/S ; XXX-CC :op2/S ...
p2239
V:root/ROOT~and
p2240
(V:op1~hold-01
p2241
V:op2~seem-01
p2242
tp2243
tp2244
I1
s(V'' :arg0/S , XXX-CC :op2/S .
p2245
V:root/ROOT~or
p2246
(V:op1~sleep-01
p2247
V:op2~yawn-01
p2248
tp2249
tp2250
I1
s(V'' i am :polarity/RB :degree/ADVP :arg1/ADJP , '' :arg0/NP XXX-VBD on , '' :arg1/CC :arg2/S .
p2251
V:root/ROOT~go-on-25
p2252
(V:arg0~she
p2253
V:arg1~contrast-01
p2254
tp2255
tp2256
I1
s(V:arg0/NP XXX-MD :polarity/RB :arg1/VP .
p2257
V:root/ROOT~obligate-01
p2258
(V:arg1~bite-01
p2259
tp2260
tp2261
I1
s(V:arg1/NP was :manner/ADVP XXX-VBN :arg3/PP .
p2262
V:root/ROOT~stir-02
p2263
(V:arg1~geographer
p2264
V:arg3~excite-01
p2265
V:manner~sudden
p2266
tp2267
tp2268
I1
s(VXXX-CC , besides , :arg3/S ... ''
p2269
V:root/ROOT~and
p2270
(V:op1~make-01
p2271
tp2272
tp2273
I1
s(V'' :arg1-of/ADVP , '' XXX-VBD :arg0/NP .
p2274
V:root/ROOT~say-01
p2275
(V:arg0~person
p2276
V:arg1~morning
p2277
tp2278
tp2279
I1
s(V:mod/NP was XXX-IN :arg1/NP .
p2280
V:root/ROOT~resemble-01
p2281
(V:arg1~well
p2282
V:arg2~well
p2283
tp2284
tp2285
I1
s(V:arg0/NP have :arg1/ADVP to XXX-VB :arg2/PP .
p2286
V:root/ROOT~say-01
p2287
(V:arg0~field
p2288
V:arg1~nothing
p2289
V:arg2~i
p2290
tp2291
tp2292
I1
s(V:arg0/NP XXX-VBD :arg1/NP , :op1/NP :time/RB .
p2293
V:root/ROOT~see-01
p2294
(V:arg0~i
p2295
V:arg1~they
p2296
V:time~before
p2297
tp2298
tp2299
I1
s(V'' :op1/NP , :op3/PP - - :arg1-of/WHNP XXX-VBZ them :arg1/NP :arg0/VP :polarity/. ''
p2300
V:root/ROOT~give-01
p2301
(V:arg0~something
p2302
V:arg1~beautiful-02
p2303
V:arg2~and
p2304
tp2305
tp2306
I1
s(V:arg1/NP XXX-VBD :arg3/PP :time/SBAR : '' :condition/S .
p2307
V:root/ROOT~turn-02
p2308
(V:arg1~face
p2309
V:arg2~red-02
p2310
V:arg3~white-03
p2311
V:time~continue-02
p2312
tp2313
tp2314
I1
s(V:arg0/NP XXX-MD :arg1/S ...
p2315
V:root/ROOT~recommend-01
p2316
(V:arg1~run-02
p2317
tp2318
tp2319
I1
s(V:arg1/NP was XXX-JJ :arg2/PP , :arg1-of/IN :arg2/NP .
p2320
V:root/ROOT~good-04
p2321
(V:arg1~it
p2322
V:arg2~heart
p2323
tp2324
tp2325
I1
s(V:location/ADVP , :arg0-of/S , was one of :arg2-of/DT :arg1-of/JJ XXX-NNS :arg1-of/WHNP :arg2-of/S .
p2326
V:root/ROOT~snake
p2327
(V:arg0-of~face-01
p2328
V:arg1-of~yellow-02
p2329
V:arg1-of~yellow-02
p2330
V:arg2-of~take-10
p2331
V:arg2-of~take-10
p2332
V:location~before
p2333
V:location~before
p2334
tp2335
tp2336
I1
s(V'' :arg1/WHADVP :arg1/SQ :arg2/. '' :arg0/NP XXX-VBD , :manner/ADVP .
p2337
V:root/MULTI-SENTENCE~ask-01
p2338
(V:arg0~prince
p2339
V:arg1~be-located-at-91
p2340
V:manner~polite-01
p2341
tp2342
tp2343
I1
s(V:time/ADVP :arg0/NP XXX-VBD :arg1/NP :arg2/PP .
p2344
V:root/ROOT~mop-01
p2345
(V:arg0~he
p2346
V:arg1~forehead
p2347
V:arg2~handkerchief
p2348
V:time~then
p2349
tp2350
tp2351
I1
s(V:arg0/NP XXX-VBP :arg2/SBAR .
p2352
V:root/ROOT~beg-01
p2353
(V:arg0~i
p2354
V:arg1~you
p2355
V:arg2~excuse-01
p2356
tp2357
tp2358
I1
s(VXXX-NN :mod/NP .
p2359
V:root/ROOT~chapter
p2360
(V:mod~13
p2361
tp2362
tp2363
I1
s(VXXX-TO :arg0/NP , :domain/NP :mod/VP .
p2364
V:root/ROOT~opine-01
p2365
(V:arg0~you
p2366
V:arg1~fox
p2367
tp2368
tp2369
I1
s(V'' :arg1/S , '' XXX-VBD :arg0/NP .
p2370
V:root/ROOT~say-01
p2371
(V:arg0~prince
p2372
V:arg1~know-01
p2373
tp2374
tp2375
I1
s(V'' :arg1/WHADVP :arg1/SQ :arg0/. '' XXX-VBD :arg0/NP .
p2376
V:root/MULTI-SENTENCE~demand-01
p2377
(V:arg0~prince
p2378
V:arg1~cause-01
p2379
tp2380
tp2381
I1
s(V:arg1/NP was :mod/ADVP XXX-VBG :purpose/S .
p2382
V:root/ROOT~come-01
p2383
(V:arg1~i
p2384
V:mod~just
p2385
V:purpose~tell-01
p2386
tp2387
tp2388
I1
s(V:arg1/NP would be :degree/RB XXX-VBN .
p2389
V:root/ROOT~complicate-01
p2390
(V:arg1~that
p2391
V:degree~too
p2392
tp2393
tp2394
I1
s(V:op1/S , XXX-CC :op2/S .
p2395
V:root/ROOT~and
p2396
(V:op1~tame-01
p2397
V:op2~tame-01
p2398
tp2399
tp2400
I1
s(VXXX-NN :mod/NP .
p2401
V:root/ROOT~chapter
p2402
(V:mod~19
p2403
tp2404
tp2405
I1
s(V'' :op1/S :arg1/CC :op2/S , '' XXX-VBD :arg0/NP .
p2406
V:root/ROOT~propose-01
p2407
(V:arg0~prince
p2408
V:arg1~and
p2409
tp2410
tp2411
I1
s(V:time/NP-TMP :arg0/NP :polarity/VBD :polarity/RB XXX-VB :arg1/S .
p2412
V:root/ROOT~see-01
p2413
(V:arg0~i
p2414
V:arg1~set-out-07
p2415
V:polarity~-
p2416
V:polarity~-
p2417
V:time~date-entity
p2418
V:time~date-entity
p2419
tp2420
tp2421
I1
s(V'' XXX-CC :arg2/NP ''
p2422
V:root/ROOT~contrast-01
p2423
(V:arg2~animal
p2424
tp2425
tp2426
I1
s(V:domain/NP is XXX-JJ .
p2427
V:root/ROOT~difficult
p2428
(V:domain~it
p2429
tp2430
tp2431
I1
s(Vare :arg1/NP :mod/ADVP :arg2/NP ?
p2432
V:root/ROOT~be-located-at-91
p2433
(V:arg1~you
p2434
V:arg2~there
p2435
V:mod~still
p2436
tp2437
tp2438
I1
s(V'' XXX-CC :op2/VP ? ''
p2439
V:root/ROOT~and
p2440
(V:op2~change-01
p2441
tp2442
tp2443
I1
s(V:condition/SBAR , then you are XXX-RB :arg1-of/NP . ''
p2444
V:root/ROOT~wise
p2445
(V:arg1-of~true-01
p2446
V:condition~succeed-01
p2447
V:domain~you
p2448
tp2449
tp2450
I1
s(V'' XXX-RB the :arg1/NP are they ? ''
p2451
V:root/ROOT~have-purpose-91
p2452
(V:arg1-of~have-condition-91
p2453
V:arg1~thorn
p2454
V:arg2~amr-unknown
p2455
tp2456
tp2457
I1
s(V:arg0/NP XXX-VB :arg1/NP .
p2458
V:root/ROOT~have-03
p2459
(V:arg0~i
p2460
V:arg1~sheep
p2461
tp2462
tp2463
I1
s(V:arg2/NP are the XXX-NN :arg1/PP .
p2464
V:root/ROOT~source-01
p2465
(V:arg1~misunderstand-01
p2466
V:arg2~word
p2467
tp2468
tp2469
I1
s(V'' the :arg1/NNS - - :arg2/WHNP XXX-NN are they ? ''
p2470
V:root/ROOT~use-01
p2471
(V:arg1~thorn
p2472
V:arg2~amr-unknown
p2473
tp2474
tp2475
I1
s(V:arg0/NP was :polarity/RB XXX-JJ :op2/S .
p2476
V:root/ROOT~possible-01
p2477
(V:arg1~explain-01
p2478
V:polarity~-
p2479
tp2480
tp2481
I1
s(V:arg0/NP XXX-MD - - ''
p2482
V:root/ROOT~possible-01
p2483
(V:arg1~do-02
p2484
tp2485
tp2486
I1
s(VXXX-CC :arg0/NP :op2/VP .
p2487
V:root/ROOT~and
p2488
(V:op2~hear-01
p2489
tp2490
tp2491
I1
s(V:arg0/NP :op1/VP , XXX-CC :op2/VP .
p2492
V:root/ROOT~and
p2493
(V:op1~look-01
p2494
V:op2~put-01
p2495
tp2496
tp2497
I1
s(V'' :arg0/NP XXX-VBZ :arg1/NP . ''
p2498
V:root/ROOT~have-03
p2499
(V:arg0~it
p2500
V:arg1~reputation
p2501
tp2502
tp2503
I1
s(V:arg1/LS , :arg0-of/PP , am :degree/RB XXX-JJ :arg0/S :arg0/VP ... ''
p2504
V:root/ROOT~glad-02
p2505
(V:arg0~have-rel-role-91
p2506
V:arg1~i
p2507
V:degree~very
p2508
tp2509
tp2510
I1
s(V'' XXX-RB , :arg0/NP :arg1/VP !
p2511
V:root/ROOT~ah-01
p2512
(V:arg1~interest-01
p2513
tp2514
tp2515
I1
s(V:time/IN :duration/NP :arg0/NP :duration/VBD XXX-JJ :arg1/PP .
p2516
V:root/ROOT~tire-01
p2517
(V:arg0~prince
p2518
V:arg1~monotony
p2519
V:time~after
p2520
tp2521
tp2522
I1
s(V'' as for me , '' XXX-VBD :arg0/NP :destination/PP :arg1/NP-TMP :arg1/S . ''
p2523
V:root/ROOT~say-01
p2524
(V:arg0~prince
p2525
V:arg1~walk-01
p2526
V:arg2~coref
p2527
tp2528
tp2529
I1
s(V:arg1/S - - XXX-CC :arg2/S ?
p2530
V:root/ROOT~contrast-01
p2531
(V:arg1~answer-01
p2532
V:arg2~flush-03
p2533
tp2534
tp2535
I1
s(V'' XXX-RB , ''
p2536
V:root/ROOT~ah
p2537
g23
tp2538
I2
s(V'' XXX-CC :domain/NP .
p2539
V:root/ROOT~contrast-01
p2540
(V:arg2~person
p2541
tp2542
tp2543
I1
s(V:mod/ADVP XXX-DT .
p2544
V:root/ROOT~that
p2545
(V:mod~just
p2546
tp2547
tp2548
I1
s(V:arg0/NP :polarity/VBP :polarity/RB XXX-VB :arg1/S .
p2549
V:root/ROOT~need-01
p2550
(V:arg0~i
p2551
V:arg1~live-01
p2552
V:polarity~-
p2553
V:polarity~-
p2554
tp2555
tp2556
I1
s(V'' :arg0/NP XXX-VBP :arg2/NP - - it is :mod/ADVP :arg0/PP .
p2557
V:root/ROOT~tell-01
p2558
(V:arg0~i
p2559
V:arg1~cause-01
p2560
V:arg2~you
p2561
tp2562
tp2563
I1
s(V:op1/S ; XXX-CC :op2/S .
p2564
V:root/ROOT~and
p2565
(V:op1~remember-01
p2566
V:op2~want-01
p2567
tp2568
tp2569
I1
s(V'' :arg1/S , '' XXX-VBD :arg0-of/NP .
p2570
V:root/ROOT~reply-01
p2571
(V:arg0~person
p2572
V:arg2~cause-01
p2573
tp2574
tp2575
I1
s(Voh , XXX-UH !
p2576
V:root/ROOT~yes
p2577
g23
tp2578
I1
s(V:location/IN :quant/NP :arg0/NP shall be XXX-VBG .
p2579
V:root/ROOT~laugh-01
p2580
(V:arg0~i
p2581
V:location~star
p2582
V:location~star
p2583
tp2584
tp2585
I1
s(V'' :arg1/S , '' XXX-VBD :arg0/NP .
p2586
V:root/ROOT~say-01
p2587
(V:arg0~fox
p2588
V:arg1~forget-01
p2589
tp2590
tp2591
I1
s(V'' :arg1-of/ADVP , '' :arg0/NP XXX-VBD :arg2/PP .
p2592
V:root/ROOT~say-01
p2593
(V:arg0~prince
p2594
V:arg1~morning
p2595
V:arg2~he
p2596
tp2597
tp2598
I1
s(VXXX-CC :arg0/NP :arg2/VP .
p2599
V:root/ROOT~contrast-01
p2600
(V:arg2~cast-01
p2601
tp2602
tp2603
I1
s(VXXX-CC :arg0/NP :op1/VP .
p2604
V:root/ROOT~and
p2605
(V:op2~and
p2606
tp2607
tp2608
I1
s(V'' :purpose/S , '' XXX-VBD :arg0/NP a king :arg2/IN :arg1/NP .
p2609
V:root/ROOT~say-01
p2610
(V:arg0~king
p2611
V:arg1~approach-01
p2612
tp2613
tp2614
I1
s(V:arg1/CC :arg1-of/IN :arg0/S , :arg0/NP XXX-VBD :mod/RP :arg1/NP :arg0/NP :op1/VP ... :op2/S
p2615
V:root/ROOT~pluck-01
p2616
(V:arg0-of~cause-01
p2617
V:arg0~he
p2618
V:arg1-of~cause-01
p2619
V:arg1~courage
p2620
V:mod~up
p2621
tp2622
tp2623
I1
s(V'' :arg1/S , '' XXX-VBD :arg0/NP .
p2624
V:root/ROOT~say-01
p2625
(V:arg0~fox
p2626
V:arg1~live-01
p2627
tp2628
tp2629
I1
s(V:ord/NP was :quant/NP , XXX-WRB :time-of/S :arg3/VP .
p2630
V:root/ROOT~be-temporally-at-91
p2631
(V:arg1~disturb-01
p2632
V:arg2~before
p2633
tp2634
tp2635
I1
s(V:op1/INTJ , :op2/VP XXX-.
p2636
V:root/ROOT~and
p2637
(V:op1~oh
p2638
V:op2~look-01
p2639
tp2640
tp2641
I1
s(V:arg1/NP am :degree/ADVP XXX-RB .
p2642
V:root/ROOT~awake-03
p2643
(V:arg1~i
p2644
V:degree~scarce
p2645
tp2646
tp2647
I1
s(V:arg0/NP XXX-VBD to myself .
p2648
V:root/ROOT~say-01
p2649
(V:arg0~i
p2650
V:arg2~coref
p2651
tp2652
tp2653
I1
s(V'' :arg1/S , '' XXX-VBD :arg0/NP .
p2654
V:root/ROOT~say-01
p2655
(V:arg0~fox
p2656
V:arg1~understand-01
p2657
tp2658
tp2659
I1
s(VXXX-CC :quant/S , :mod/NP :arg1-of/ADJP , :location/PP !
p2660
V:root/ROOT~and
p2661
(V:op1~they
p2662
tp2663
tp2664
I1
s(V'' what is it that :arg0/NP are XXX-VBG for :arg1/. ''
p2665
V:root/ROOT~look-01
p2666
(V:arg0~you
p2667
V:arg1~amr-unknown
p2668
tp2669
tp2670
I1
s(V:manner/ADVP , :conj-as-if/PP , :arg0/NP XXX-VBD : '' :polarity/S ? ''
p2671
V:root/ROOT~demand-01
p2672
(V:arg0~he
p2673
V:arg1~eat-01
p2674
V:arg2-of~lead-up-05
p2675
V:conj-as-if~bear-02
p2676
V:manner~abrupt
p2677
V:manner~abrupt
p2678
tp2679
tp2680
I1
s(V:arg0/NP will XXX-VB .
p2681
V:root/ROOT~suffer-01
p2682
(V:arg0~you
p2683
tp2684
tp2685
I1
s(V:arg0/NP XXX-VBP - - :degree/WHADJP :arg1/S . ''
p2686
V:root/ROOT~remember-01
p2687
(V:arg0~you
p2688
V:arg1~good-02
p2689
tp2690
tp2691
I1
s(VXXX-CC there :op2/VP .
p2692
V:root/ROOT~and
p2693
(V:op2~sweet-05
p2694
tp2695
tp2696
I1
s(VXXX-CC :arg1/S : '' :arg1/S .
p2697
V:root/ROOT~have-concession-91
p2698
(V:arg1~say-01
p2699
tp2700
tp2701
I1
s(VXXX-CC , :time/IN :time/S , :arg0/NP :op2/VP .
p2702
V:root/ROOT~and
p2703
(V:op2~find-01
p2704
tp2705
tp2706
I1
s(VXXX-NN :mod/NP .
p2707
V:root/ROOT~chapter
p2708
(V:mod~14
p2709
tp2710
tp2711
I1
s(V'' :arg1/S , '' :arg0/NP XXX-VBD :arg2/PP .
p2712
V:root/ROOT~say-01
p2713
(V:arg0~flower-01
p2714
V:arg1~love-01
p2715
V:arg2~he
p2716
tp2717
tp2718
I1
s(V:arg1/NP is XXX-IN :arg2/NP .
p2719
V:root/ROOT~resemble-01
p2720
(V:arg1~it
p2721
V:arg2~that
p2722
tp2723
tp2724
I1
s(V'' :arg1/S , '' XXX-VBD :arg0/NP .
p2725
V:root/ROOT~say-01
p2726
(V:arg0~prince
p2727
V:arg1~begin-01
p2728
tp2729
tp2730
I1
s(V:arg0/NP , :mod/ADVP , shall XXX-VB :arg1/PP .
p2731
V:root/ROOT~look-01
p2732
(V:arg0~i
p2733
V:arg1~star
p2734
tp2735
tp2736
I1
s(V:mod/INTJ , XXX-DT ! ''
p2737
V:root/ROOT~no
p2738
(V:mod~oh
p2739
tp2740
tp2741
I1
s(VXXX-CC :frequency/NP
p2742
V:root/ROOT~and
p2743
(V:op2~sense-01
p2744
tp2745
tp2746
I1
s(VXXX-RB !
p2747
V:root/ROOT~ah
p2748
g23
tp2749
I1
s(V'' XXX-CC :arg0/NP .
p2750
V:root/ROOT~contrast-01
p2751
(V:arg2~have-03
p2752
tp2753
tp2754
I1
s(V'' :arg2/S , '' XXX-VBD :arg0/NP .
p2755
V:root/ROOT~reply-01
p2756
(V:arg0~businessman
p2757
V:arg2~administer-01
p2758
tp2759
tp2760
I1
s(V:arg1/NP was :mod/ADVP XXX-DT :polarity/JJ :arg2/NN :arg2-of/PP .
p2761
V:root/ROOT~resemble-01
p2762
(V:arg1~water
p2763
V:arg2~thing
p2764
V:mod~indeed
p2765
V:polarity~-
p2766
tp2767
tp2768
I1
s(V:arg0/NP XXX-VBP :polarity/RB :arg0-of/NP .
p2769
V:root/ROOT~have-03
p2770
(V:arg0~i
p2771
V:arg1~person
p2772
V:polarity~-
p2773
tp2774
tp2775
I1
s(Vand , :manner/ADVP , :arg0/NP XXX-VBD :arg1/NP .
p2776
V:root/ROOT~show-01
p2777
(V:arg0~she
p2778
V:arg1~thorn
p2779
V:manner~naive
p2780
tp2781
tp2782
I1
s(V:arg0/NP :arg1-of/VBD XXX-VBN :arg1/NP :arg1-of/SBAR .
p2783
V:root/ROOT~loosen-01
p2784
(V:arg0~i
p2785
V:arg1~muffler
p2786
tp2787
tp2788
I1
s(V:arg0/NP :op1/VP , :op2/VP , XXX-CC :op3/VP .
p2789
V:root/ROOT~and
p2790
(V:op1~laugh-01
p2791
V:op2~touch-01
p2792
V:op3~set-08
p2793
tp2794
tp2795
I1
s(V'' :arg1/S , '' :arg0/NP XXX-VBD .
p2796
V:root/ROOT~add-01
p2797
(V:arg0~prince
p2798
V:arg1~beautiful-02
p2799
tp2800
tp2801
I1
s(VXXX-CC :mod/PP :domain/NP :arg2/VP .
p2802
V:root/ROOT~contrast-01
p2803
(V:arg2~important
p2804
tp2805
tp2806
I1
s(V'' :arg1/S , '' XXX-VBD :arg0/NP .
p2807
V:root/ROOT~say-01
p2808
(V:arg0~fox
p2809
V:arg1~so
p2810
tp2811
tp2812
I2
s(V:domain/NP are :mod/JJ XXX-NNS :arg1-of/SBAR .
p2813
V:root/ROOT~hole
p2814
(V:arg1-of~dig-01
p2815
V:domain~well
p2816
V:mod~mere
p2817
tp2818
tp2819
I1
s(V:domain/NP was :arg0-of/DT XXX-NN :mod/PP .
p2820
V:root/ROOT~flower
p2821
(V:arg0-of~have-03
p2822
V:domain~it
p2823
V:mod~account
p2824
tp2825
tp2826
I1
s(V:arg0/NP will XXX-VB :arg2/NP :arg1/NP .
p2827
V:root/ROOT~draw-01
p2828
(V:arg0~i
p2829
V:arg1~railing
p2830
V:arg2~you
p2831
tp2832
tp2833
I1
s(V:arg0/NP will XXX-VB to :arg1/NN :accompanier/PP .
p2834
V:root/ROOT~want-01
p2835
(V:arg0~you
p2836
V:arg1~laugh-01
p2837
tp2838
tp2839
I1
s(V:domain/NP was :mod/ADVP :domain/DT XXX-NN :arg1-of/IN :quant/NP .
p2840
V:root/ROOT~fox
p2841
(V:arg1-of~resemble-01
p2842
V:domain~he
p2843
V:domain~he
p2844
V:mod~only
p2845
tp2846
tp2847
I1
s(V'' XXX-CC what :op1/SQ :arg1/. ''
p2848
V:root/ROOT~and
p2849
(V:op1~do-02
p2850
tp2851
tp2852
I1
s(VXXX-CC :arg0/NP :arg2/VP .
p2853
V:root/ROOT~contrast-01
p2854
(V:arg2~laugh-01
p2855
tp2856
tp2857
I1
s(V:domain/NP are :arg1-of/JJ XXX-NNS .
p2858
V:root/ROOT~creature
p2859
(V:arg1-of~weak-02
p2860
V:domain~flower
p2861
tp2862
tp2863
I1
s(V'' but :location/NP is XXX-NN :location/ADVP :arg1-of/S ! ''
p2864
V:root/ROOT~nobody
p2865
(V:arg1-of~judge-01
p2866
V:location~here
p2867
V:location~here
p2868
tp2869
tp2870
I1
s(V'' :arg0/NP have been XXX-VBG :arg1/NP :duration/PP .
p2871
V:root/ROOT~grow-03
p2872
(V:arg0~flower
p2873
V:arg1~thorn
p2874
V:duration~multiple
p2875
tp2876
tp2877
I1
s(VXXX-TO :arg0/NP , :domain/NP :arg1/VP .
p2878
V:root/ROOT~opine-01
p2879
(V:arg0~they
p2880
V:arg1~subject
p2881
tp2882
tp2883
I1
s(V:arg0/NP XXX-VBD :arg1-of/NP :op2/IN :arg2/NP .
p2884
V:root/ROOT~cast-01
p2885
(V:arg0~she
p2886
V:arg1~and
p2887
V:arg2~i
p2888
tp2889
tp2890
I1
s(V:arg1-of/S ; XXX-CC :op2/S ... ''
p2891
V:root/ROOT~and
p2892
(V:op1~resemble-01
p2893
V:op2~true-01
p2894
tp2895
tp2896
I1
s(VXXX-CC :arg1/NP :op1/VP .
p2897
V:root/ROOT~and
p2898
(V:op1~embarrass-01
p2899
tp2900
tp2901
I1
s(VXXX-CC :condition/IN :arg0/S , it :arg2/VP .
p2902
V:root/ROOT~contrast-01
p2903
(V:arg2~shine-01
p2904
tp2905
tp2906
I1
s(V'' :arg1-of/ADVP , '' XXX-VBD :arg0/NP .
p2907
V:root/ROOT~say-01
p2908
(V:arg0~flower-01
p2909
V:arg1~morning
p2910
tp2911
tp2912
I1
s(V:arg0/NP XXX-MD :arg1/S .
p2913
V:root/ROOT~recommend-01
p2914
(V:arg1~guess-01
p2915
tp2916
tp2917
I1
s(V:arg0/NP XXX-VBD :arg1/SBAR .
p2918
V:root/ROOT~believe-01
p2919
(V:arg0~he
p2920
V:arg1~want-01
p2921
tp2922
tp2923
I1
s(V:arg1/S ; XXX-CC you :arg2/VP ... ''
p2924
V:root/ROOT~contrast-01
p2925
(V:arg1~wish-01
p2926
V:arg2~want-01
p2927
tp2928
tp2929
I1
s(VXXX-CC :domain/NP :arg2/VP .
p2930
V:root/ROOT~contrast-01
p2931
(V:arg2~silent
p2932
tp2933
tp2934
I1
s(Vthere is :polarity/DT XXX-NN :duration/IN :manner/NP . ''
p2935
V:root/ROOT~time
p2936
(V:duration~live-01
p2937
V:duration~live-01
p2938
V:polarity~-
p2939
V:purpose~dream-01
p2940
tp2941
tp2942
I1
s(V'' :condition/S , :time/RB :time/PP :arg0/NP shall XXX-VB :arg1/S .
p2943
V:root/ROOT~begin-01
p2944
(V:arg0~i
p2945
V:arg1~happy-01
p2946
V:condition~come-01
p2947
V:condition~come-01
p2948
V:time~date-entity
p2949
V:time~date-entity
p2950
tp2951
tp2952
I1
s(V:arg0/NP XXX-MD :op1/S .
p2953
V:root/ROOT~recommend-01
p2954
(V:arg1~and
p2955
tp2956
tp2957
I1
s(V:arg0/NP XXX-VBN :arg1/NP :ord/IN :arg2/NP .
p2958
V:root/ROOT~answer-01
p2959
(V:arg0~i
p2960
V:arg1~you
p2961
V:arg2~thing
p2962
tp2963
tp2964
I1
s(V'' i :arg1/ADVP , '' :arg0/NP XXX-VBD , '' :arg1/SBAR :location/NP :purpose/IN :arg0/PP :purpose/VP ...
p2965
V:root/ROOT~say-01
p2966
(V:arg0~he
p2967
V:arg1~wonder-01
p2968
tp2969
tp2970
I1
s(VXXX-CC , :op1/S , :arg0/NP :op2/VP .
p2971
V:root/ROOT~and
p2972
(V:op2~sharpen-01
p2973
tp2974
tp2975
I1
s(V:arg1/NP will be XXX-IN :arg2/NP ''
p2976
V:root/ROOT~resemble-01
p2977
(V:arg1~it
p2978
V:arg2~time
p2979
tp2980
tp2981
I1
s(VXXX-RB :domain/NP :arg1/VP :domain/.
p2982
V:root/ROOT~cause-01
p2983
(V:arg1~day
p2984
tp2985
tp2986
I1
s(V:arg0/NP :time/ADVP :op1/VP , XXX-CC :op2/VP .
p2987
V:root/ROOT~and
p2988
(V:op1~stop-01
p2989
V:op2~begin-01
p2990
tp2991
tp2992
I1
s(V:arg1/S , XXX-CC :arg2/S .
p2993
V:root/ROOT~contrast-01
p2994
(V:arg1~same-01
p2995
V:arg2~draw-01
p2996
tp2997
tp2998
I1
s(VXXX-NN :mod/NP .
p2999
V:root/ROOT~chapter
p3000
(V:mod~20
p3001
tp3002
tp3003
I1
s(VXXX-CC :arg0/NP :op1/VP ! ''
p3004
V:root/ROOT~and
p3005
(V:op1~think-01
p3006
tp3007
tp3008
I1
s(V:arg0/NP had XXX-VB :arg1/NP :arg1/VP .
p3009
V:root/ROOT~let-01
p3010
(V:arg0~i
p3011
V:arg1~drop-01
p3012
tp3013
tp3014
I1
s(V:arg0/NP :polarity/VBD :polarity/RB XXX-VB :arg1/SBAR .
p3015
V:root/ROOT~know-01
p3016
(V:arg0~he
p3017
V:arg1~simplify-01
p3018
V:polarity~-
p3019
V:polarity~-
p3020
tp3021
tp3022
I1
s(V:domain/NP was an :mod/JJ XXX-NN .
p3023
V:root/ROOT~monarch
p3024
(V:domain~he
p3025
V:mod~absolute
p3026
tp3027
tp3028
I1
s(V'' :arg0/NP XXX-MD :polarity/RB :arg1/VP . ''
p3029
V:root/ROOT~possible-01
p3030
(V:arg1~tell-01
p3031
V:mod~either
p3032
V:polarity~-
p3033
tp3034
tp3035
I1
s(V'' :arg1/ADVP , '' :arg0/NP XXX-VBD .
p3036
V:root/ROOT~say-01
p3037
(V:arg0~he
p3038
V:arg1~goodbye
p3039
tp3040
tp3041
I1
s(V'' :arg0/NP XXX-VBP :arg1/S . ''
p3042
V:root/ROOT~want-01
p3043
(V:arg0~i
p3044
V:arg1~get-05
p3045
tp3046
tp3047
I1
s(V:op1/S , XXX-CC :op2/S : '' :concession/PRN , :concession/RB if :arg1/S .
p3048
V:root/ROOT~and
p3049
(V:op1~follow-02
p3050
V:op2~answer-01
p3051
tp3052
tp3053
I1
s(V'' :arg1/S , '' :arg0/NP XXX-VBD .
p3054
V:root/ROOT~reply-01
p3055
(V:arg0~man
p3056
V:arg1~hat
p3057
tp3058
tp3059
I1
s(V'' XXX-CC :purpose/WHADVP :arg2/SQ :purpose/. ''
p3060
V:root/ROOT~contrast-01
p3061
(V:arg2~speak-01
p3062
tp3063
tp3064
I1
s(V'' it was :arg1-of/ADJP to XXX-VB .
p3065
V:root/ROOT~come-01
p3066
(V:arg1-of~wrong-02
p3067
V:arg1~you
p3068
tp3069
tp3070
I1
s(VXXX-CC :arg0/NP :arg2/VP .
p3071
V:root/ROOT~contrast-01
p3072
(V:arg2~know-01
p3073
tp3074
tp3075
I2
s(V:arg1/NP XXX-VBD down .
p3076
V:root/ROOT~sit-down-02
p3077
(V:arg1~he
p3078
tp3079
tp3080
I1
s(V'' :arg0/NP XXX-VBZ :arg1/S . ''
p3081
V:root/ROOT~cause-01
p3082
(V:arg0~it
p3083
V:arg1~good-04
p3084
tp3085
tp3086
I1
s(Vit would be :arg1/PRP$ XXX-NN . ''
p3087
V:root/ROOT~fault-01
p3088
(V:arg1~i
p3089
tp3090
tp3091
I1
s(V:arg0/NP XXX-VBD :mod/ADVP .
p3092
V:root/ROOT~laugh-01
p3093
(V:arg0~he
p3094
V:mod~again
p3095
tp3096
tp3097
I1
s(VXXX-CC :arg0/NP :poss/VP .
p3098
V:root/ROOT~and
p3099
(V:op2~look-01
p3100
tp3101
tp3102
I1
s(V:op1/S , XXX-CC :op2/S . ''
p3103
V:root/ROOT~and
p3104
(V:op1~come-01
p3105
V:op2~give-01
p3106
tp3107
tp3108
I1
s(VXXX-TO :arg0/NP , :domain/NP :arg1/VP .
p3109
V:root/ROOT~opine-01
p3110
(V:arg0~i
p3111
V:arg1~unique
p3112
tp3113
tp3114
I1
s(V:arg0/NP XXX-VBD :arg1/PP
p3115
V:root/ROOT~say-01
p3116
(V:arg0~i
p3117
V:arg1~frighten-01
p3118
V:arg2~he
p3119
tp3120
tp3121
I1
s(V:arg1/S , '' XXX-VBD :arg0/NP .
p3122
V:root/ROOT~reply-01
p3123
(V:arg0~prince
p3124
V:arg2~possible-01
p3125
V:manner~embarrass-01
p3126
tp3127
tp3128
I1
s(V'' it is :arg1/ADJP :arg1/S , '' :arg0/NP XXX-VBD :arg2/PP .
p3129
V:root/ROOT~say-01
p3130
(V:arg0~monarch
p3131
V:arg1~contrary-01
p3132
V:arg2~he
p3133
tp3134
tp3135
I1
s(V:location/PP :arg1/NP had :time/ADVP been :degree/RB XXX-JJ .
p3136
V:root/ROOT~simple-02
p3137
(V:arg1~flower
p3138
V:degree~very
p3139
V:location~planet
p3140
V:time~always
p3141
tp3142
tp3143
I1
s(V'' :domain/NP am all :mod/FRAG , '' XXX-VBD :arg0/SBAR .
p3144
V:root/ROOT~answer-01
p3145
(V:arg0~echo-01
p3146
V:arg2~alone
p3147
tp3148
tp3149
I1
s(V:arg0/NP XXX-MD :manner/ADVP :op2/VP .
p3150
V:root/ROOT~recommend-01
p3151
(V:arg1~and
p3152
tp3153
tp3154
I1
s(VXXX-CC :time/SBAR :arg1/NP :op2/VP .
p3155
V:root/ROOT~and
p3156
(V:op2~tear-01
p3157
tp3158
tp3159
I1
s(V:direction/SBAR , i XXX-VBD :location/IN :arg1/NP , :arg0-of/IN :arg1/NP .
p3160
V:root/ROOT~see-01
p3161
(V:arg0~i
p3162
V:arg1~sit-01
p3163
V:time~return-01
p3164
tp3165
tp3166
I1
s(Vwhat :arg0/NP :polarity/VBD :polarity/RB XXX-VB :arg2/NP was :frequency/SBAR :arg3/NP !
p3167
V:root/ROOT~dare-01
p3168
(V:arg0~prince
p3169
V:arg2~confess-01
p3170
V:polarity~-
p3171
V:polarity~-
p3172
tp3173
tp3174
I1
s(VXXX-CC :time/PP :domain/NP :arg2/VP .
p3175
V:root/ROOT~contrast-01
p3176
(V:arg2~seem-01
p3177
tp3178
tp3179
I1
s(V'' XXX-NN :topic/VP ! ''
p3180
V:root/ROOT~minister
p3181
(V:topic~justice
p3182
tp3183
tp3184
I1
s(V:arg0/NP are XXX-VBG :arg1/NP :arg0/IN :arg2/NP . ''
p3185
V:root/ROOT~flatten-01
p3186
(V:arg0~child
p3187
V:arg1-of~cause-01
p3188
V:arg1~nose
p3189
tp3190
tp3191
I1
s(V:arg0/NP have :polarity/RB been :degree/RB XXX-JJ in :arg1/WHNP :arg1-of/S .
p3192
V:root/ROOT~honest-01
p3193
(V:arg0~i
p3194
V:arg1~thing
p3195
V:degree~altogether
p3196
tp3197
tp3198
I1
s(V'' XXX-RB :domain/PRP is . ''
p3199
V:root/ROOT~certain
p3200
(V:domain~it
p3201
tp3202
tp3203
I1
s(V:arg0/NP has :polarity/ADVP XXX-VBN :arg1/NP .
p3204
V:root/ROOT~smell-01
p3205
(V:arg0~he
p3206
V:arg1~flower
p3207
V:polarity~-
p3208
V:time~ever
p3209
tp3210
tp3211
I1
s(V'' :arg1/ADVP , '' :arg0/NP XXX-VBD :mod/ADVP .
p3212
V:root/ROOT~say-01
p3213
(V:arg0~he
p3214
V:arg1~goodbye
p3215
V:mod~again
p3216
tp3217
tp3218
I1
s(V:op1/S , XXX-CC :op2/S .
p3219
V:root/ROOT~and
p3220
(V:op1~put-out-09
p3221
V:op2~light-04
p3222
tp3223
tp3224
I1
s(V:beneficiary/PP , :arg1/NP was XXX-IN :arg2/NP .
p3225
V:root/ROOT~resemble-01
p3226
(V:arg1~it
p3227
V:arg2~spring
p3228
V:beneficiary~i
p3229
tp3230
tp3231
I1
s(V:arg1/S , XXX-CC :arg1/S .
p3232
V:root/ROOT~and
p3233
(V:op1~alike-05
p3234
V:op2~alike-05
p3235
tp3236
tp3237
I1
s(V:arg0/NP will :time/ADVP have been XXX-JJ :arg1/S .
p3238
V:root/ROOT~possible-01
p3239
(V:arg1~fasten-01
p3240
V:polarity~-
p3241
V:time~ever
p3242
tp3243
tp3244
I1
s(V:arg4/NP-TMP :arg0/NP XXX-VBP :arg2/PP .
p3245
V:root/ROOT~dance-01
p3246
(V:arg0~they
p3247
V:arg2~girl
p3248
V:frequency~rate-entity-91
p3249
tp3250
tp3251
I1
s(V:arg0/NP XXX-VBD :op1/VP , :arg1/CC :op2/VP .
p3252
V:root/ROOT~feel-01
p3253
(V:arg0~i
p3254
V:arg1~and
p3255
tp3256
tp3257
I1
s(VXXX-CC :time/ADVP :arg1/NP :op2/VP .
p3258
V:root/ROOT~and
p3259
(V:op2~dare-01
p3260
V:time~now
p3261
tp3262
tp3263
I1
s(V:arg1/PP , i am XXX-VBN :arg0/PP .
p3264
V:root/ROOT~concern-01
p3265
(V:arg0~matter
p3266
V:arg1~i
p3267
tp3268
tp3269
I1
s(V:condition/SBAR , :arg0/NP would :arg1-of/VB been XXX-JJ :arg1/S .
p3270
V:root/ROOT~possible-01
p3271
(V:arg1~watch-01
p3272
V:condition~master
p3273
tp3274
tp3275
I1
s(V'' :time/PP :arg0/FW XXX-VBP :arg1/S .
p3276
V:root/ROOT~want-01
p3277
(V:arg0~i
p3278
V:arg1~put-01
p3279
tp3280
tp3281
I1
s(V:arg0/NP XXX-MD :time/ADVP :arg2/VP .
p3282
V:root/ROOT~have-rel-role-91
p3283
(V:arg0~you
p3284
V:arg1~i
p3285
V:arg2~friend
p3286
V:time~always
p3287
tp3288
tp3289
I1
s(V'' :arg0/NP :op1/VP , XXX-CC :op2/S ... ''
p3290
V:root/ROOT~and
p3291
(V:op1~wake-01
p3292
V:op2~sing-01
p3293
tp3294
tp3295
I1
s(V'' i have :polarity/NP :arg1/ADJP , '' :arg0/NP XXX-VBD :arg1/TO :arg2/NP .
p3296
V:root/ROOT~say-01
p3297
(V:arg0~he
p3298
V:arg1~remain-01
p3299
V:arg2~king
p3300
tp3301
tp3302
I1
s(V'' yes , :mod/ADVP XXX-NNS that :arg0-of/VP . ''
p3303
V:root/ROOT~flower
p3304
(V:arg0-of~have-03
p3305
V:mod~even
p3306
tp3307
tp3308
I1
s(VXXX-CC :domain/NP is :mod/ADVP :arg2/ADJP .
p3309
V:root/ROOT~contrast-01
p3310
(V:arg2~small
p3311
tp3312
tp3313
I1
s(V:time/ADVP :arg0/NP XXX-VBD :arg1/NP :purpose/ADVP .
p3314
V:root/ROOT~force-02
p3315
(V:arg0~she
p3316
V:arg1~cough-01
p3317
V:degree~more
p3318
V:degree~more
p3319
V:purpose~suffer-01
p3320
V:time~then
p3321
tp3322
tp3323
I1
s(V'' :arg1/S , '' XXX-VBD :arg0/NP .
p3324
V:root/ROOT~sigh-01
p3325
(V:arg0~fox
p3326
V:arg1~perfect-02
p3327
tp3328
tp3329
I1
s(V:arg1/NP XXX-VBZ :location/PRT :location/IN :location/NP , :op2/VP , :op3/VP .
p3330
V:root/ROOT~and
p3331
(V:op1~sit-down-02
p3332
V:op2~see-01
p3333
V:op3~hear-01
p3334
tp3335
tp3336
I1
s(VXXX-NN :mod/NP .
p3337
V:root/ROOT~chapter
p3338
(V:mod~25
p3339
tp3340
tp3341
I1
s(V'' :arg1/S , '' :arg0/NP XXX-VBD .
p3342
V:root/ROOT~say-01
p3343
(V:arg0~fox
p3344
V:arg1~possible-01
p3345
tp3346
tp3347
I1
s(VXXX-CC , :arg1-of/IN :arg0/S , :arg0/NP :arg1/VP .
p3348
V:root/ROOT~have-concession-91
p3349
(V:arg1~make-02
p3350
tp3351
tp3352
I1
s(VXXX-RB the :arg0/NN :arg1/VP ...
p3353
V:root/ROOT~possible-01
p3354
(V:arg1~eat-01
p3355
tp3356
tp3357
I1
s(V:arg0/NP has :polarity/ADVP XXX-VBN :arg1/PP .
p3358
V:root/ROOT~look-01
p3359
(V:arg0~he
p3360
V:arg1~star
p3361
V:polarity~-
p3362
V:time~ever
p3363
tp3364
tp3365
I1
s(V:arg0/NP XXX-VBD , '' :arg1/S that it is :mod/ADVP :arg1/NP - - :arg2/NP-TMP :op3/NP ... ''
p3366
V:root/ROOT~say-01
p3367
(V:arg0~i
p3368
V:arg1~tell-01
p3369
tp3370
tp3371
I1
s(V:time/ADVP :arg1/NP am XXX-JJ .
p3372
V:root/ROOT~happy-01
p3373
(V:arg1~i
p3374
V:time~then
p3375
tp3376
tp3377
I1
s(V:arg0/NP was XXX-VBG , then , :arg1/S - ''
p3378
V:root/ROOT~say-01
p3379
(V:arg0~i
p3380
V:arg1~501000000
p3381
tp3382
tp3383
I1
s(VXXX-CC :arg0/NP :op2/VP .
p3384
V:root/ROOT~and
p3385
(V:op2~realize-01
p3386
tp3387
tp3388
I1
s(VXXX-NN :mod/NP .
p3389
V:root/ROOT~chapter
p3390
(V:mod~23
p3391
tp3392
tp3393
I1
s(V'' XXX-CC :arg1/WHNP :arg3/SQ ? ''
p3394
V:root/ROOT~and
p3395
(V:op2~do-02
p3396
tp3397
tp3398
I2
s(V:arg0/NP XXX-VBD :arg1/PP : '' :arg0/S .
p3399
V:root/ROOT~go-on-25
p3400
(V:arg0~prince
p3401
V:arg1~explain-01
p3402
tp3403
tp3404
I1
s(V'' the planet earth , '' XXX-VBD :arg0/NP .
p3405
V:root/ROOT~reply-01
p3406
(V:arg0~geographer
p3407
V:arg2~planet/name
p3408
tp3409
tp3410
I1
s(V:arg0/NP is XXX-WRB :arg0/S .
p3411
V:root/ROOT~cause-01
p3412
(V:arg0~that
p3413
V:arg1~trouble-01
p3414
tp3415
tp3416
I1
s(V:op2/NP was :ord/NP XXX-JJR :ord/PP .
p3417
V:root/ROOT~large
p3418
(V:domain~planet
p3419
V:quant~product-of
p3420
tp3421
tp3422
I1
s(V'' :arg1/S , '' XXX-VBD :arg0/NP .
p3423
V:root/ROOT~think-01
p3424
(V:arg0~prince
p3425
V:arg1~entertain-01
p3426
tp3427
tp3428
I1
s(V'' :arg0/NP shall :polarity/RB XXX-VB :arg1/NP , ''
p3429
V:root/ROOT~leave-15
p3430
(V:arg0~i
p3431
V:arg1~you
p3432
V:polarity~-
p3433
tp3434
tp3435
I1
s(V:arg1/NP would be XXX-VBN :arg1-of/IN :arg2/NP .
p3436
V:root/ROOT~regulate-01
p3437
(V:arg1~move-01
p3438
tp3439
tp3440
I1
s(VXXX-CC :arg0/NP :op2/VP .
p3441
V:root/ROOT~and
p3442
(V:op2~sad-02
p3443
tp3444
tp3445
I1
s(V'' :arg1/NP am :polarity/RB XXX-VBN . ''
p3446
V:root/ROOT~tame-01
p3447
(V:arg1~i
p3448
V:polarity~-
p3449
tp3450
tp3451
I1
s(V'' the XXX-NN ? ''
p3452
V:root/ROOT~screen
p3453
g23
tp3454
I1
s(V:arg0/NP XXX-MD :arg1/VP .
p3455
V:root/ROOT~possible-01
p3456
(V:arg1~see-01
p3457
tp3458
tp3459
I1
s(V'' XXX-VBZ :arg0/NP :arg1/NP ? ''
p3460
V:root/ROOT~have-03
p3461
(V:arg0~it
p3462
V:arg1~mountain
p3463
tp3464
tp3465
I1
s(VXXX-IN , :mod/S , :domain/NP :arg1/VP .
p3466
V:root/ROOT~opine-01
p3467
(V:arg0~man
p3468
V:arg1~person
p3469
tp3470
tp3471
I1
s(VXXX-NN :mod/NP .
p3472
V:root/ROOT~chapter
p3473
(V:mod~17
p3474
tp3475
tp3476
I1
s(V:arg0/NP XXX-VBP :arg1/WHNP :arg1-of/S ...
p3477
V:root/ROOT~repeat-01
p3478
(V:arg0~they
p3479
V:arg1~thing
p3480
tp3481
tp3482
I1
s(V:arg0/NP XXX-VBD :arg2/S , :arg1-of/FRAG '' :arg1/S :arg1/PP ...
p3483
V:root/ROOT~say-01
p3484
(V:arg0~he
p3485
V:arg1-of~instead-of-91
p3486
V:arg1~descend-01
p3487
V:arg2~i
p3488
tp3489
tp3490
I1
s(V'' a XXX-NN ! ''
p3491
V:root/ROOT~mushroom
p3492
g23
tp3493
I1
s(VXXX-CC :arg0/NP :op2/VP .
p3494
V:root/ROOT~and
p3495
(V:op2~moan-01
p3496
tp3497
tp3498
I1
s(V:time/IN :op1/NP , :arg0/NP XXX-VBD :arg1/NP .
p3499
V:root/ROOT~climb-01
p3500
(V:arg0~prince
p3501
V:arg1~mountain
p3502
V:time~after
p3503
tp3504
tp3505
I1
s(VXXX-CC you , :arg0/PP , :op2/VP .
p3506
V:root/ROOT~and
p3507
(V:op2~need-01
p3508
tp3509
tp3510
I1
s(VXXX-VB :arg1/PP .
p3511
V:root/ROOT~look-01
p3512
(V:arg0~you
p3513
V:arg1~planet
p3514
tp3515
tp3516
I1
s(V:domain/NP XXX-MD , you :mod/VP .
p3517
V:root/ROOT~possible-01
p3518
(V:arg1~baobab
p3519
tp3520
tp3521
I1
s(V'' :arg1-of/JJ XXX-NN .
p3522
V:root/ROOT~morning
p3523
(V:arg1-of~good-02
p3524
tp3525
tp3526
I1
s(V'' :arg0/S , '' :arg0/NP XXX-VBD to himself .
p3527
V:root/ROOT~say-01
p3528
(V:arg0~prince
p3529
V:arg1~entertain-01
p3530
V:arg2~coref
p3531
tp3532
tp3533
I1
s(VXXX-PRP :location/VP ... ''
p3534
V:root/ROOT~you
p3535
(V:location~there
p3536
tp3537
tp3538
I1
s(V'' XXX-CC :op3/NP ? ''
p3539
V:root/ROOT~and
p3540
(V:op2~and
p3541
tp3542
tp3543
I1
s(V'' :arg1/S , '' :arg0/NP XXX-VBD :arg2/PP , :time/PP .
p3544
V:root/ROOT~say-01
p3545
(V:arg0~she
p3546
V:arg1~silly
p3547
V:arg2~he
p3548
V:time~at-last
p3549
tp3550
tp3551
I1
s(V:arg0/NP XXX-VBD :arg2/PP , :arg1-of/ADVP '' the :arg1/VP ''
p3552
V:root/ROOT~say-01
p3553
(V:arg0~he
p3554
V:arg1-of~instead-of-91
p3555
V:arg1~important
p3556
V:arg2~i
p3557
tp3558
tp3559
I1
s(V'' :arg2-of/NP XXX-VBP - - :arg2-of/NP ...
p3560
V:root/ROOT~thing
p3561
(V:arg2-of~muzzle-01
p3562
V:arg2-of~muzzle-01
p3563
tp3564
tp3565
I1
s(V'' :arg0/NP XXX-VB :arg5/PRT :arg1/NP . ''
p3566
V:root/ROOT~send-03
p3567
(V:arg0~i
p3568
V:arg1~train
p3569
V:arg5~and
p3570
V:arg5~and
p3571
tp3572
tp3573
I1
s(V'' :arg0/NP :time/VBZ :time/ADVP been XXX-CC :op2/ADJP .
p3574
V:root/ROOT~and
p3575
(V:op1~hunger-01
p3576
V:op2~thirst-01
p3577
V:time~ever
p3578
V:time~ever
p3579
tp3580
tp3581
I1
s(V:arg1-of/ADVP , :arg0/NP XXX-VBD :arg1/NP .
p3582
V:root/ROOT~tend-01
p3583
(V:arg0~he
p3584
V:arg1-of~cause-01
p3585
V:arg1~flower
p3586
tp3587
tp3588
I1
s(VXXX-CC :op1/S : '' :domain/S .
p3589
V:root/ROOT~and
p3590
(V:op1~answer-01
p3591
tp3592
tp3593
I1
s(VXXX-CC then , too , :arg1/NP :op2/VP .
p3594
V:root/ROOT~and
p3595
(V:op2~begin-01
p3596
tp3597
tp3598
I1
s(V'' :arg1/S , '' XXX-VBD :arg0/NP .
p3599
V:root/ROOT~say-01
p3600
(V:arg0~prince
p3601
V:arg1~lucky
p3602
tp3603
tp3604
I1
s(V:arg0/NP :source-of/MD XXX-VB :arg1/NP :beneficiary/PP ! ''
p3605
V:root/ROOT~describe-01
p3606
(V:arg0~you
p3607
V:arg1~planet
p3608
V:beneficiary~i
p3609
tp3610
tp3611
I1
s(V:frequency/RB :mod/RB :arg0/NP XXX-VBD :arg1/SBAR .
p3612
V:root/ROOT~feel-01
p3613
(V:arg0~i
p3614
V:arg1~freeze-01
p3615
V:mod~again
p3616
tp3617
tp3618
I1
s(VXXX-CC :arg0/NP :op1/VP - :arg1-of/S .
p3619
V:root/ROOT~and
p3620
(V:op1~have-03
p3621
tp3622
tp3623
I1
s(VXXX-CC :arg0/NP :op2/VP .
p3624
V:root/ROOT~and
p3625
(V:op2~go-02
p3626
tp3627
tp3628
I3
s(V:arg0/NP :polarity/VBD :polarity/RB XXX-VB :arg0/NP :arg1/PP :instrument/PP .
p3629
V:root/ROOT~want-01
p3630
(V:arg0~i
p3631
V:arg1~tire-01
p3632
V:polarity~-
p3633
V:polarity~-
p3634
tp3635
tp3636
I1
s(V:duration/PP :arg0/NP :arg1-of/VBP been XXX-VBG :arg1-of/NP .
p3637
V:root/ROOT~eat-01
p3638
(V:arg0~sheep
p3639
V:arg1-of~have-concession-91
p3640
V:arg1-of~have-concession-91
p3641
V:arg1~they
p3642
V:duration~multiple
p3643
tp3644
tp3645
I1
s(V:time/PP :arg0/NP put :arg1/NP :time/IN :arg1-of/JJ XXX-NN .
p3646
V:root/ROOT~order-03
p3647
(V:arg0~he
p3648
V:arg1-of~perfect-02
p3649
V:arg1~planet
p3650
V:time~date-entity
p3651
V:time~date-entity
p3652
tp3653
tp3654
I1
s(V:arg1/NP am XXX-VBN :arg0/PP .
p3655
V:root/ROOT~concern-01
p3656
(V:arg0~matter
p3657
V:arg1~i
p3658
tp3659
tp3660
I1
s(V:arg0/NP :polarity/VBP :polarity/RB :degree/VB :degree/RB XXX-NN .
p3661
V:root/ROOT~exercise-02
p3662
(V:arg0~i
p3663
V:degree~enough
p3664
V:degree~enough
p3665
tp3666
tp3667
I1
s(VXXX-NN :mod/NP .
p3668
V:root/ROOT~chapter
p3669
(V:mod~10
p3670
tp3671
tp3672
I1
s(V:condition/SBAR , :arg1/NP take XXX-RP :op1/NP : it is yours .
p3673
V:root/ROOT~and
p3674
(V:condition~get-01
p3675
V:op1~patent-01
p3676
V:op2~belong-01
p3677
tp3678
tp3679
I1
s(V:arg0/NP am XXX-JJ :arg1/PP ''
p3680
V:root/ROOT~responsible-03
p3681
(V:arg0~i
p3682
V:arg1~flower
p3683
tp3684
tp3685
I1
s(V:arg1/NP :polarity/VBZ :polarity/RB XXX-VB . ''
p3686
V:root/ROOT~change-01
p3687
(V:arg1~it
p3688
V:polarity~-
p3689
V:polarity~-
p3690
tp3691
tp3692
I1
s(V'' XXX-RB !
p3693
V:root/ROOT~ah
p3694
g23
tp3695
I5
s(V:op1/S , XXX-CC :op2/S .
p3696
V:root/ROOT~and
p3697
(V:op1~make-02
p3698
V:op2~look-01
p3699
tp3700
tp3701
I1
s(V:arg0/NP XXX-VBD :arg2/PP : '' :arg1/S .
p3702
V:root/ROOT~say-01
p3703
(V:arg0~i
p3704
V:arg1~endanger-01
p3705
V:arg2~he
p3706
tp3707
tp3708
I1
s(V'' :arg1/S , '' XXX-VBD :arg0/NP .
p3709
V:root/ROOT~say-01
p3710
(V:arg0~fox
p3711
V:arg1~possible-01
p3712
tp3713
tp3714
I1
s(VXXX-RB , :arg0/NP :mod/ADVP :arg1/VP .
p3715
V:root/ROOT~have-concession-91
p3716
(V:arg1~have-03
p3717
tp3718
tp3719
I1
s(V:arg0/NP is :degree/RB XXX-JJ .
p3720
V:root/ROOT~disturb-01
p3721
(V:arg0~it
p3722
V:degree~very
p3723
tp3724
tp3725
I1
s(Vthere is :polarity/NN XXX-JJ :polarity/IN :arg0/NP ... ''
p3726
V:root/ROOT~sad-02
p3727
(V:arg0~shell
p3728
V:polarity~-
p3729
V:polarity~-
p3730
tp3731
tp3732
I1
s(V:arg0/NP was XXX-VBG :arg1/NP :location/PP ...
p3733
V:root/ROOT~hide-01
p3734
(V:arg0~home
p3735
V:arg1~secret
p3736
V:location~deep-02
p3737
tp3738
tp3739
I1
s(V'' :arg1/S , '' :arg0/NP XXX-VBD :mod/ADVP .
p3740
V:root/ROOT~speak-01
p3741
(V:arg0~snake
p3742
V:arg1~send-01
p3743
V:mod~again
p3744
tp3745
tp3746
I1
s(V:arg1/NP :op1/VP , XXX-CC :op2/VP .
p3747
V:root/ROOT~and
p3748
(V:op1~sit-down-02
p3749
V:op2~raise-01
p3750
tp3751
tp3752
I1
s(Vthere is :polarity/DT XXX-NN :poss/PP :beneficiary/PP ''
p3753
V:root/ROOT~room
p3754
(V:beneficiary~person
p3755
V:polarity~-
p3756
V:poss~it
p3757
tp3758
tp3759
I1
s(V'' what do :arg0/NP XXX-VBP :arg3/PP :arg1/. ''
p3760
V:root/ROOT~do-02
p3761
(V:arg0~i
p3762
V:arg1~amr-unknown
p3763
V:arg3~they
p3764
tp3765
tp3766
I1
s(VXXX-CC :arg0/NP :arg2/VP .
p3767
V:root/ROOT~contrast-01
p3768
(V:arg2~receive-01
p3769
tp3770
tp3771
I1
s(V'' :arg0/NP XXX-MD :arg1/VP .
p3772
V:root/ROOT~possible-01
p3773
(V:arg1~help-01
p3774
V:condition~grow-02
p3775
tp3776
tp3777
I1
s(V:arg0/NP :polarity/VBD :polarity/RB XXX-VB :arg1/NP , :concession-of/CC :concession-of/S .
p3778
V:root/ROOT~understand-01
p3779
(V:arg0~i
p3780
V:arg1~answer
p3781
V:concession-of~say-01
p3782
V:concession-of~say-01
p3783
V:polarity~-
p3784
V:polarity~-
p3785
tp3786
tp3787
I1
s(V'' :arg1/S , '' XXX-VBD :arg0/NP .
p3788
V:root/ROOT~say-01
p3789
(V:arg0~switchman
p3790
V:arg1~pursue-01
p3791
tp3792
tp3793
I1
s(VXXX-NN :mod/NP .
p3794
V:root/ROOT~chapter
p3795
(V:mod~12
p3796
tp3797
tp3798
I1
s(V:arg1/NP XXX-MD :arg2/VP .
p3799
V:root/ROOT~obligate-01
p3800
(V:arg1~you
p3801
V:arg2~return-01
p3802
tp3803
tp3804
I1
s(V:domain/NP was XXX-JJ .
p3805
V:root/ROOT~tiny
p3806
(V:domain~planet
p3807
tp3808
tp3809
I1
s(VXXX-CC it :arg2/VP .
p3810
V:root/ROOT~contrast-01
p3811
(V:arg2~come-upon-26
p3812
tp3813
tp3814
I1
s(V'' :arg1/S , '' XXX-VBD :arg0/NP .
p3815
V:root/ROOT~say-01
p3816
(V:arg0~prince
p3817
V:arg1~go-02
p3818
tp3819
tp3820
I1
s(VXXX-CC :arg0/NP :polarity/VP .
p3821
V:root/ROOT~contrast-01
p3822
(V:arg2~answer-01
p3823
tp3824
tp3825
I1
s(V:arg0/NP made :arg1/NP :degree/NP XXX-JJ .
p3826
V:root/ROOT~shame-01
p3827
(V:arg0~that
p3828
V:arg1~i
p3829
V:degree~little
p3830
tp3831
tp3832
I1
s(V:arg1/SBAR XXX-VBZ ... ''
p3833
V:root/ROOT~need-01
p3834
(V:arg0~he
p3835
V:arg1~sunshine
p3836
V:mod~all
p3837
tp3838
tp3839
I1
s(Vthe XXX-NNS . ''
p3840
V:root/ROOT~star
p3841
g23
tp3842
I1
s(V'' :arg1-of/ADVP , '' XXX-VBD :arg0/NP .
p3843
V:root/ROOT~say-01
p3844
(V:arg0~switchman
p3845
V:arg1~morning
p3846
tp3847
tp3848
I1
s(V:concession/NP throbs , XXX-CC :op2/VP ...
p3849
V:root/ROOT~and
p3850
(V:concession~silent
p3851
V:concession~silent
p3852
V:op1~throb-01
p3853
V:op2~gleam-01
p3854
tp3855
tp3856
I1
s(V'' :arg1/NP is XXX-JJ .
p3857
V:root/ROOT~possible-01
p3858
(V:arg1~that
p3859
tp3860
tp3861
I1
s(VXXX-NN !
p3862
V:root/ROOT~hum
p3863
g23
tp3864
I1
s(VXXX-IN :arg1/NP :poss/NP :arg1/VP .
p3865
V:root/ROOT~resemble-01
p3866
(V:arg1~color
p3867
V:arg2~color
p3868
V:time~rise-01
p3869
tp3870
tp3871
I1
s(Vand :arg0/NP XXX-VBD again :arg1/S .
p3872
V:root/ROOT~begin-01
p3873
(V:arg0~he
p3874
V:arg1~clap-01
p3875
V:mod~again
p3876
tp3877
tp3878
I1
s(V'' :arg1/ADVP , '' XXX-VBD :arg0/NP .
p3879
V:root/ROOT~say-01
p3880
(V:arg0~snake
p3881
V:arg1~date-entity
p3882
tp3883
tp3884
I1
s(V:arg0/NP :op1/VP , XXX-CC :op2/VP .
p3885
V:root/ROOT~and
p3886
(V:op1~take-01
p3887
V:op2~rock-01
p3888
tp3889
tp3890
I1
s(VXXX-VB :arg1/S . ''
p3891
V:root/ROOT~allow-01
p3892
(V:arg0~you
p3893
V:arg1~go-on-15
p3894
tp3895
tp3896
I1
s(VXXX-NN :mod/NP .
p3897
V:root/ROOT~chapter
p3898
(V:mod~7
p3899
tp3900
tp3901
I1
s(V:arg1/S , XXX-CC :domain/S . ''
p3902
V:root/ROOT~contrast-01
p3903
(V:arg1~day
p3904
V:arg2~place
p3905
tp3906
tp3907
I1
s(Vand :condition/IN :op2/NP - who will :condition/VB XXX-IN :arg1/NP :arg0/.
p3908
V:root/ROOT~call-on-05
p3909
(V:arg0~amr-unknown
p3910
V:arg1~i
p3911
V:condition~call-on-05
p3912
V:condition~call-on-05
p3913
tp3914
tp3915
I1
s(VXXX-CC :arg0/NP :op2/VP .
p3916
V:root/ROOT~and
p3917
(V:op2~have-03
p3918
tp3919
tp3920
I2
s(V:op1/NP who was :arg1-of/PP :op2/PP - :mod/RB :mod/DT :quant/CD would XXX-VB :arg3-of/ADJP :op2/VP : :frequency/S .
p3921
V:root/ROOT~live-01
p3922
(V:arg0~and
p3923
V:arg1-of~cause-01
p3924
V:arg3-of~free-04
p3925
tp3926
tp3927
I1
s(V:arg0/NP XXX-VBD away :source/PP :manner/IN :polarity/S .
p3928
V:root/ROOT~get-away-08
p3929
(V:arg0~he
p3930
V:manner~sound-02
p3931
V:manner~sound-02
p3932
V:source~i
p3933
tp3934
tp3935
I1
s(V:arg1-of/JJ XXX-NN . ''
p3936
V:root/ROOT~morning
p3937
(V:arg1-of~good-02
p3938
tp3939
tp3940
I1
s(VXXX-CC :time/RB :op2/S
p3941
V:root/ROOT~and
p3942
(V:op2~look-01
p3943
V:op3~see-01
p3944
tp3945
tp3946
I1
s(V'' :arg1-of/NP XXX-NN . ''
p3947
V:root/ROOT~morning
p3948
(V:arg1-of~good-02
p3949
tp3950
tp3951
I2
s(V:arg0/LS XXX-VB :arg1/NP :time/PP .
p3952
V:root/ROOT~hear-01
p3953
(V:arg0~i
p3954
V:arg1~he
p3955
V:time~date-entity
p3956
tp3957
tp3958
I1
s(VXXX-CC :arg0/NP :op2/VP :domain/. ''
p3959
V:root/ROOT~and
p3960
(V:op2~leave-12
p3961
tp3962
tp3963
I1
s(V:op1/S , XXX-CC :op3/VP ... ''
p3964
V:root/ROOT~and
p3965
(V:op1~rush-01
p3966
V:op2~excite-01
p3967
V:op3~turn-01
p3968
V:time~then
p3969
tp3970
tp3971
I1
s(VXXX-CC :arg1/NP are :arg2/PP :arg0/PP ''
p3972
V:root/ROOT~contrast-01
p3973
(V:arg2~use-01
p3974
tp3975
tp3976
I1
s(V:arg1/S , XXX-CC :arg2/S .
p3977
V:root/ROOT~contrast-01
p3978
(V:arg1~open-01
p3979
V:arg2~find-01
p3980
tp3981
tp3982
I1
s(V:arg0/NP :polarity/VBP :polarity/RB XXX-VB :arg1/NP :time/ADVP . ''
p3983
V:root/ROOT~want-01
p3984
(V:arg0~i
p3985
V:arg1~it
p3986
V:polarity~-
p3987
V:polarity~-
p3988
V:time~anymore
p3989
tp3990
tp3991
I1
s(V:arg1/NP will be XXX-VBG :arg2/PP :location/ADVP .
p3992
V:root/ROOT~wait-01
p3993
(V:arg1~i
p3994
V:arg2~you
p3995
V:location~here
p3996
tp3997
tp3998
I1
s(V'' :arg0/NP shall XXX-VB :arg1/NP .
p3999
V:root/ROOT~have-03
p4000
(V:arg0~you
p4001
V:arg1~sunset
p4002
tp4003
tp4004
I1
s(V:arg0/NP :polarity/VBD :polarity/RB XXX-VB .
p4005
V:root/ROOT~know-01
p4006
(V:arg0~i
p4007
V:polarity~-
p4008
V:polarity~-
p4009
tp4010
tp4011
I1
s(V:arg0/LS XXX-VB :arg1/SBAR ? ''
p4012
V:root/ROOT~suppose-01
p4013
(V:arg0~i
p4014
V:arg1~have-03
p4015
tp4016
tp4017
I1
s(V:op1/S , XXX-CC :op2/S .
p4018
V:root/ROOT~and
p4019
(V:op1~adore-01
p4020
V:op2~please-01
p4021
tp4022
tp4023
I1
s(V'' do :arg2/NP :arg1/DT XXX-NN .
p4024
V:root/ROOT~kind-01
p4025
(V:arg0~you
p4026
V:arg1~this
p4027
V:arg2~i
p4028
tp4029
tp4030
I1
s(V:time/ADVP :arg1/NP is XXX-VBN :degree/NP .
p4031
V:root/ROOT~comfort-01
p4032
(V:arg1~sorrow-01
p4033
V:degree~little
p4034
V:time~now
p4035
tp4036
tp4037
I1
s(V:arg0/NP XXX-VBD .
p4038
V:root/ROOT~say-01
p4039
(V:arg0~i
p4040
tp4041
tp4042
I5
s(V:arg1/NP XXX-VBD :degree/IN :manner/ADVP :compared-to/SBAR .
p4043
V:root/ROOT~fall-01
p4044
(V:arg1~he
p4045
V:manner~gentle
p4046
tp4047
tp4048
I1
s(V:location/NP are a - XXX-NN :arg0/PP ''
p4049
V:root/ROOT~bloom-01
p4050
(V:arg0~flower
p4051
V:location~star
p4052
tp4053
tp4054
I1
s(V'' :source/IN :compared-to/NP :arg1-of/ADVP , '' :arg0/NP XXX-VBD to himself , '' i :arg1/VP ''
p4055
V:root/ROOT~say-01
p4056
(V:arg0~he
p4057
V:arg1~possible-01
p4058
V:arg2~coref
p4059
tp4060
tp4061
I1
s(V'' :arg0/NP have XXX-NNS :arg1-of/SBAR , ''
p4062
V:root/ROOT~plan-01
p4063
(V:arg0~you
p4064
V:arg1~thing
p4065
tp4066
tp4067
I1
s(VXXX-CC :condition/IN :arg1-of/NP :condition/VP . ''
p4068
V:root/ROOT~and
p4069
(V:op2~order-02
p4070
tp4071
tp4072
I1
s(V:arg0/NP XXX-WDT :consist-of/S :manner/PP .
p4073
V:root/ROOT~cause-01
p4074
(V:arg0~object
p4075
V:arg1~dream-01
p4076
tp4077
tp4078
I1
s(V'' five - hundred - and - one million , six - hundred - twenty - :arg2/NP - XXX-CD - one .
p4079
V:root/ROOT~have-quant-91
p4080
(V:arg2~501622731
p4081
tp4082
tp4083
I1
s(V'' :arg0/NP XXX-MD :polarity/RB :arg1/VP .
p4084
V:root/ROOT~possible-01
p4085
(V:arg1~help-02
p4086
V:polarity~-
p4087
tp4088
tp4089
I1
s(V:arg0/NP XXX-VBD , :mod/ADVP , :arg2/PP , :purpose/SBAR .
p4090
V:root/ROOT~begin-01
p4091
(V:arg0~he
p4092
V:arg2~visit-01
p4093
V:mod~therefore
p4094
V:purpose~add-02
p4095
tp4096
tp4097
I1
s(V:arg1/NP was XXX-VBN :arg0/PP .
p4098
V:root/ROOT~surprise-01
p4099
(V:arg0~absent-01
p4100
V:arg1~he
p4101
tp4102
tp4103
I1
s(Vthen XXX-EX :polarity/VP ? ''
p4104
V:root/ROOT~person
p4105
(V:location~planet/name
p4106
V:polarity~-
p4107
tp4108
tp4109
I1
s(V:condition/SBAR , they would XXX-VB up :arg0-of/PP .
p4110
V:root/ROOT~rise-up-03
p4111
(V:arg0~person
p4112
V:arg1~coref
p4113
V:condition~order-01
p4114
tp4115
tp4116
I1
s(V:arg0/NP XXX-JJ :quant/CD :arg1/NNS , :arg0/SBAR :frequency/IN :arg3/NP -lrb- :arg3/SBAR ; :arg0/NP :polarity/ADVP :arg0/VP -rrb- .
p4117
V:root/ROOT~own-01
p4118
(V:arg0~i
p4119
V:arg1~volcano
p4120
tp4121
tp4122
I1
s(V:arg0/NP XXX-VBD :arg1/TO :arg2/NP , '' :op1/PRN ; :op1/S ; :op2/S ; :concession-of/CC :op3/S ! ''
p4123
V:root/ROOT~say-01
p4124
(V:arg0~i
p4125
V:arg1~and
p4126
V:arg2~prince
p4127
tp4128
tp4129
I1
s(V'' :mod/JJ XXX-NN , ''
p4130
V:root/ROOT~man
p4131
(V:mod~little
p4132
tp4133
tp4134
I2
s(V'' it makes it XXX-JJ :arg1/SBAR , :condition/SBAR . ''
p4135
V:root/ROOT~possible-01
p4136
(V:arg1~buy-01
p4137
V:condition~discover-01
p4138
tp4139
tp4140
I1
s(VXXX-CC :direction/ADVP :arg2/RB :direction/RB :domain/NP is :degree/. ''
p4141
V:root/ROOT~contrast-01
p4142
(V:arg2~far
p4143
tp4144
tp4145
I1
s(Vit XXX-VBD :arg2/PP , :mod/ADVP , that there was :arg1/ADJP :location/PP .
p4146
V:root/ROOT~seem-01
p4147
(V:arg1~fragile
p4148
V:arg2~i
p4149
V:mod~even
p4150
tp4151
tp4152
I1
s(V:degree/NP is :degree/RB XXX-JJ . ''
p4153
V:root/ROOT~heavy
p4154
(V:degree~too
p4155
V:degree~too
p4156
tp4157
tp4158
I1
s(VXXX-CC :arg1/NP :arg2/VP .
p4159
V:root/ROOT~contrast-01
p4160
(V:arg2~come-01
p4161
tp4162
tp4163
I1
s(V'' :domain/NP is :degree/RB XXX-JJ .
p4164
V:root/ROOT~poetry
p4165
(V:degree~rather
p4166
V:domain~it
p4167
tp4168
tp4169
I1
s(V:arg1/NP was XXX-VBN .
p4170
V:root/ROOT~disappoint-01
p4171
(V:arg1~prince
p4172
tp4173
tp4174
I1
s(V:arg0/NP XXX-VBD :arg1/NP :manner/PP .
p4175
V:root/ROOT~adjust-01
p4176
(V:arg0~she
p4177
V:arg1~petal
p4178
V:manner~one-by-one
p4179
tp4180
tp4181
I1
s(V'' :arg1-of/ADVP , '' :arg0/NP XXX-VBD .
p4182
V:root/ROOT~say-01
p4183
(V:arg0~he
p4184
V:arg1~morning
p4185
tp4186
tp4187
I1
s(V'' XXX-IN :arg2/NP ? ''
p4188
V:root/ROOT~be-located-at-91
p4189
(V:arg2~planet
p4190
tp4191
tp4192
I1
s(V'' XXX-UH , ''
p4193
V:root/ROOT~yes
p4194
g23
tp4195
I1
s(V:domain/NP was :degree/JJ a XXX-JJ :arg0/NN ...
p4196
V:root/ROOT~pride-01
p4197
(V:arg0~flower
p4198
V:degree~such
p4199
tp4200
tp4201
I1
s(V:op1/CC :time/NP , :source/IN :source/NP :arg1-of/VBN :source/IN :mod/NP :source/VBD where , :arg2/S ; XXX-CC :op2/S :arg1/VP .
p4202
V:root/ROOT~and
p4203
(V:op1~contrast-01
p4204
V:op2~watch-over-03
p4205
tp4206
tp4207
I1
s(V:arg0/NP XXX-VBD :arg1/S .
p4208
V:root/ROOT~find-out-03
p4209
(V:arg0~he
p4210
V:arg1~be-located-at-91
p4211
tp4212
tp4213
I1
s(V'' :arg1/S , '' :arg0/NP XXX-VBD .
p4214
V:root/ROOT~object-01
p4215
(V:arg0~prince
p4216
V:arg1~tiger
p4217
tp4218
tp4219
I1
s(V'' a XXX-NN , ''
p4220
V:root/ROOT~sheep
p4221
g23
tp4222
I1
s(V'' XXX-DT . ''
p4223
V:root/ROOT~no
p4224
g23
tp4225
I2
s(V:arg0/NP XXX-MD :polarity/RB :arg1/VP .
p4226
V:root/ROOT~possible-01
p4227
(V:arg1~carry-01
p4228
V:polarity~-
p4229
tp4230
tp4231
I1
s(V'' :arg0/NP XXX-VBP :arg1/NP .
p4232
V:root/ROOT~have-03
p4233
(V:arg0~i
p4234
V:arg1~reason
p4235
tp4236
tp4237
I1
s(V:quant/NP XXX-. ''
p4238
V:root/ROOT~amr-unknown
p4239
(V:quant~multiple
p4240
tp4241
tp4242
I1
s(V:domain/NP is :degree/RB XXX-JJ :domain/.
p4243
V:root/ROOT~naive
p4244
(V:degree~so
p4245
V:domain~she
p4246
V:domain~she
p4247
tp4248
tp4249
I1
s(V'' it would have been :arg1/ADJP :arg1/S , '' XXX-VBD :arg0/NP .
p4250
V:root/ROOT~say-01
p4251
(V:arg0~fox
p4252
V:arg1~good-02
p4253
tp4254
tp4255
I1
s(V:arg1/NP XXX-VBD :arg2/NP :arg1-of/ADJP , :arg1/NP :arg1-of/VP .
p4256
V:root/ROOT~stand-01
p4257
(V:arg1~he
p4258
V:arg2~there
p4259
tp4260
tp4261
I1
s(V'' XXX-JJ :arg0/PP ! ''
p4262
V:root/ROOT~shame-01
p4263
(V:arg0~drink-01
p4264
tp4265
tp4266
I1
s(V'' :arg1/ADVP , '' :arg0/NP XXX-VBD :arg2/PP .
p4267
V:root/ROOT~say-01
p4268
(V:arg0~he
p4269
V:arg1~goodbye
p4270
V:arg2~flower
p4271
tp4272
tp4273
I1
s(V:arg1/S , XXX-CC :arg1/S .
p4274
V:root/ROOT~and
p4275
(V:op1~hear-01
p4276
V:op2~possible-01
p4277
tp4278
tp4279
I1
s(Vand :time/ADVP :arg0/NP XXX-VBP :arg1/SBAR . ''
p4280
V:root/ROOT~think-01
p4281
(V:arg0~i
p4282
V:arg1~go-02
p4283
V:time~now
p4284
tp4285
tp4286
I1
s(V'' XXX-UH !
p4287
V:root/ROOT~oh
p4288
g23
tp4289
I1
s(V'' XXX-CC :arg2/NP ''
p4290
V:root/ROOT~contrast-01
p4291
(V:arg2~wind
p4292
tp4293
tp4294
I1
s(V'' :arg1/S , '' :arg0/NP XXX-VBD :domain/PP , :time/SBAR .
p4295
V:root/ROOT~say-01
p4296
(V:arg0~prince
p4297
V:arg1~strange
p4298
V:arg2~coref
p4299
V:time~continue-01
p4300
tp4301
tp4302
I1
s(V'' :mod/ADVP XXX-NNS that :arg0-of/VP ? ''
p4303
V:root/ROOT~flower
p4304
(V:arg0-of~have-03
p4305
V:mod~even
p4306
tp4307
tp4308
I1
s(Vthe :mod/JJ :arg0/NN XXX-MD :arg1/VP - :arg2/CC :op2/ADJP - - she was :degree/.
p4309
V:root/ROOT~possible-01
p4310
(V:arg1~guess-01
p4311
tp4312
tp4313
I1
s(VXXX-CC :arg0/NP :arg2/VP .
p4314
V:root/ROOT~contrast-01
p4315
(V:arg2~have-03
p4316
tp4317
tp4318
I1
s(V'' what does :arg1/NP XXX-VB :arg2/. ''
p4319
V:root/ROOT~mean-01
p4320
(V:arg1~this
p4321
V:arg2~amr-unknown
p4322
tp4323
tp4324
I1
s(V:arg1/NP XXX-MD be :arg2/PP - - about - - :op1/SBAR .
p4325
V:root/ROOT~be-temporally-at-91
p4326
(V:arg1~that
p4327
V:arg2~about
p4328
tp4329
tp4330
I1
s(V:arg0/NP XXX-VBP :arg1/NP .
p4331
V:root/ROOT~have-03
p4332
(V:arg0~i
p4333
V:arg1~volcano
p4334
tp4335
tp4336
I1
s(VXXX-CC :arg1/NP :arg2/VP ''
p4337
V:root/ROOT~contrast-01
p4338
(V:arg2~sit-01
p4339
tp4340
tp4341
I1
s(V:arg0/NP XXX-VBD :arg1/NP .
p4342
V:root/ROOT~tolerate-01
p4343
(V:arg0~he
p4344
V:arg1~disobey-01
p4345
V:polarity~-
p4346
tp4347
tp4348
I1
s(V'' :polarity/S XXX-VBD :arg0/NP , who :arg0-of/VP .
p4349
V:root/ROOT~say-01
p4350
(V:arg0~king
p4351
V:arg1~go-02
p4352
tp4353
tp4354
I1
s(V'' :arg1/S , '' XXX-VBD :arg1/NP .
p4355
V:root/ROOT~say-01
p4356
(V:arg0~person
p4357
V:arg1~want-01
p4358
tp4359
tp4360
I1
s(V'' :op1/S ; :domain/NP is :op2/NP , '' :arg0/NP XXX-VBN .
p4361
V:root/ROOT~answer-01
p4362
(V:arg0~snake
p4363
V:arg2~and
p4364
tp4365
tp4366
I1
s(V:arg0/NP XXX-VBD :arg1/NP .
p4367
V:root/ROOT~remember-01
p4368
(V:arg0~i
p4369
V:arg1~fox
p4370
tp4371
tp4372
I1
s(Vas for me , :arg1/NP was XXX-VBN :arg0/PP .
p4373
V:root/ROOT~upset-01
p4374
(V:arg0~bolt
p4375
V:arg1~i
p4376
tp4377
tp4378
I1
s(V'' :arg2/CC :arg1/NP :arg0/NP XXX-JJ .
p4379
V:root/ROOT~interrupt-01
p4380
(V:arg0~prince
p4381
V:arg2~contrast-01
p4382
tp4383
tp4384
I1
s(VXXX-CC :arg0/NP :arg2/VP .
p4385
V:root/ROOT~contrast-01
p4386
(V:arg2~interrupt-01
p4387
tp4388
tp4389
I2
s(VXXX-PRP :arg1/VP .
p4390
V:root/ROOT~pass-03
p4391
(V:arg1~year
p4392
V:time~since
p4393
tp4394
tp4395
I1
s(V:time/ADVP , :arg1/NP of china XXX-CC siberia :op1/VP , :source/CC :time/RB :op2/S .
p4396
V:root/ROOT~and
p4397
(V:op1~enter-01
p4398
V:op2~wave-02
p4399
tp4400
tp4401
I1
s(V:arg0/NP XXX-VBD .
p4402
V:root/ROOT~demand-01
p4403
(V:arg0~i
p4404
tp4405
tp4406
I2
s(V:arg0/NP shall XXX-VB :time/NP .
p4407
V:root/ROOT~feel-01
p4408
(V:arg0~i
p4409
V:arg1~and
p4410
V:time~advance-01
p4411
tp4412
tp4413
I1
s(V'' :arg2/S , '' XXX-VBD :arg1/NP .
p4414
V:root/ROOT~reply-01
p4415
(V:arg0~person
p4416
V:arg2~order-01
p4417
tp4418
tp4419
I2
s(V:arg0/NP XXX-VBD .
p4420
V:root/ROOT~yawn-01
p4421
(V:arg0~prince
p4422
tp4423
tp4424
I1
s(V'' :domain/S , '' :arg0/NP XXX-VBD .
p4425
V:root/ROOT~say-01
p4426
(V:arg0~snake
p4427
V:arg1~lonely
p4428
tp4429
tp4430
I1
s(V'' where :arg1/SQ :arg3/. '' :arg0/NP XXX-VBD :arg2/PP .
p4431
V:root/MULTI-SENTENCE~say-01
p4432
(V:arg0~gentleman
p4433
V:arg1~come-01
p4434
V:arg2~he
p4435
tp4436
tp4437
I1
s(V'' XXX-NN .
p4438
V:root/ROOT~nothing
p4439
g23
tp4440
I1
s(V:arg0/NP made a XXX-NN , :arg0-of/SBAR .
p4441
V:root/ROOT~gesture-01
p4442
(V:arg0-of~take-in-23
p4443
V:arg0~king
p4444
tp4445
tp4446
I1
s(VXXX-NN :mod/ADVP !
p4447
V:root/ROOT~yawn-01
p4448
(V:arg0~you
p4449
V:mod~again
p4450
tp4451
tp4452
I1
s(V:arg0/NP XXX-VBP :arg2/NP ... ''
p4453
V:root/ROOT~confuse-01
p4454
(V:arg0~you
p4455
V:arg2~everything
p4456
tp4457
tp4458
I1
s(VXXX-CC :arg1/NP :op2/VP .
p4459
V:root/ROOT~and
p4460
(V:op2~overcome-01
p4461
tp4462
tp4463
I1
s(V:arg0/NP XXX-VBP :arg1/PP . ''
p4464
V:root/ROOT~write-01
p4465
(V:arg0~we
p4466
V:arg1~thing
p4467
tp4468
tp4469
I1
s(Vbut :arg0/NP :polarity/VBD :polarity/RB XXX-VB :arg2/NP .
p4470
V:root/ROOT~hear-01
p4471
(V:arg0~man
p4472
V:arg2~he
p4473
V:polarity~-
p4474
V:polarity~-
p4475
tp4476
tp4477
I1
s(V:arg1/NP was :degree/IN XXX-JJ :compared-to/IN :arg1-of/NP .
p4478
V:root/ROOT~sweet-04
p4479
(V:arg1~it
p4480
V:compared-to~food-dish
p4481
V:degree~equal
p4482
tp4483
tp4484
I1
s(V:domain/NP was the XXX-JJS :compared-to/PP .
p4485
V:root/ROOT~small
p4486
(V:compared-to~all
p4487
V:degree~most
p4488
V:domain~it
p4489
tp4490
tp4491
I1
s(VXXX-CC :mod/NP :op2/VP .
p4492
V:root/ROOT~and
p4493
(V:op2~shake-01
p4494
tp4495
tp4496
I1
s(V:arg1/NP was :time/ADVP XXX-JJ :arg0/PP .
p4497
V:root/ROOT~white-03
p4498
(V:arg1-of~cause-01
p4499
V:arg1~prince
p4500
V:time~now
p4501
tp4502
tp4503
I1
s(V'' :arg0/NP XXX-VBP :arg1/PP , :arg1-of/IN :arg0/S . ''
p4504
V:root/ROOT~belong-01
p4505
(V:arg0~they
p4506
V:arg1-of~cause-01
p4507
V:arg1~i
p4508
tp4509
tp4510
I1
s(V:domain/NP is the :mod/RB XXX-CD :arg1-of/SBAR . ''
p4511
V:root/ROOT~one
p4512
(V:arg1-of~have-03
p4513
V:domain~he
p4514
V:mod~only
p4515
tp4516
tp4517
I1
s(V'' :arg1/S , '' XXX-VBD :arg1/NP .
p4518
V:root/ROOT~say-01
p4519
(V:arg0~person
p4520
V:arg1~change-01
p4521
tp4522
tp4523
I1
s(V'' :arg0-of/IN :arg0/NP XXX-VBP :arg2/RB .
p4524
V:root/ROOT~see-01
p4525
(V:arg0-of~cause-01
p4526
V:arg0~man
p4527
V:arg2~double
p4528
tp4529
tp4530
I1
s(V'' XXX-RB ! ''
p4531
V:root/ROOT~ah
p4532
g23
tp4533
I1
s(V'' to :arg1/VB XXX-VB :arg2/SBAR . ''
p4534
V:root/ROOT~mean-01
p4535
(V:arg1~admire-01
p4536
V:arg2~regard-01
p4537
tp4538
tp4539
I1
s(V:arg0/NP :time/ADVP XXX-VBN :arg1/S .
p4540
V:root/ROOT~learn-01
p4541
(V:arg0~i
p4542
V:arg1~know-02
p4543
V:time~soon
p4544
tp4545
tp4546
I1
s(VXXX-CC :op2/SBAR .
p4547
V:root/ROOT~and
p4548
(V:op2~make-02
p4549
tp4550
tp4551
I1
s(V:quant/S , XXX-CC :op2/S .
p4552
V:root/ROOT~and
p4553
(V:op1~be-located-at-91
p4554
V:op2~see-01
p4555
tp4556
tp4557
I1
s(V:op1/S , XXX-CC :op2/S ... ''
p4558
V:root/ROOT~and
p4559
(V:op1~shut-01
p4560
V:op2~watch-01
p4561
tp4562
tp4563
I1
s(V'' :arg1/ADVP , '' XXX-VBD :arg0/NP :arg1-of/ADVP .
p4564
V:root/ROOT~say-01
p4565
(V:arg0~prince
p4566
V:arg1-of~firm-03
p4567
V:arg1~you
p4568
tp4569
tp4570
I1
s(V'' XXX-IN :arg1/NP am :time/IN :arg0/S ''
p4571
V:root/ROOT~cause-01
p4572
(V:arg0~die-01
p4573
tp4574
tp4575
I1
s(V:arg0/LS XXX-VBP :arg0/PP :arg1/VP ... ''
p4576
V:root/ROOT~think-01
p4577
(V:arg0~i
p4578
V:arg1~tame-01
p4579
tp4580
tp4581
I1
s(V'' :location/NP :arg0/ADVP XXX-VBZ :mod/NP . ''
p4582
V:root/ROOT~see-01
p4583
(V:arg0~one
p4584
V:arg1~thing
p4585
V:location~planet/name
p4586
tp4587
tp4588
I1
s(VXXX-IN it :arg0/VP .
p4589
V:root/ROOT~cause-01
p4590
(V:arg0~possible-01
p4591
tp4592
tp4593
I1
s(VXXX-CC , :arg0/PP , :arg1/NP :arg2/VP . ''
p4594
V:root/ROOT~contrast-01
p4595
(V:arg2~wait-01
p4596
tp4597
tp4598
I1
s(V'' :arg1/S , '' XXX-VBD :arg0/NP .
p4599
V:root/ROOT~say-01
p4600
(V:arg0~geographer
p4601
V:arg1~same-01
p4602
tp4603
tp4604
I1
s(V'' :op2/WHADVP :arg1/SQ :arg2/. '' :arg0/NP :op1/VBD XXX-RP :arg1/NP :mod/ADVP .
p4605
V:root/MULTI-SENTENCE~and
p4606
(V:op1~take-up-31
p4607
V:op2~be-located-at-91
p4608
tp4609
tp4610
I1
s(V:arg1/NP XXX-MD :arg1/VP .
p4611
V:root/ROOT~possible-01
p4612
(V:arg1~pile-01
p4613
tp4614
tp4615
I1
s(V:arg0/NP XXX-VBP :arg2/NP ? ''
p4616
V:root/ROOT~mean-01
p4617
(V:arg0~you
p4618
V:arg2~star
p4619
tp4620
tp4621
I1
s(V:arg1/NP is :degree/ADJP , XXX-IN :arg2/NP .
p4622
V:root/ROOT~resemble-01
p4623
(V:arg1~it
p4624
V:arg2~that
p4625
tp4626
tp4627
I1
s(V:arg0/NP XXX-VBD :arg1/NP .
p4628
V:root/ROOT~raise-01
p4629
(V:arg0~businessman
p4630
V:arg1~head
p4631
tp4632
tp4633
I1
s(V:time/SBAR , :arg0/NP :op1/VP XXX-CC :op2/VP .
p4634
V:root/ROOT~and
p4635
(V:op1~take-01
p4636
V:op2~set-out-07
p4637
V:time~drop-off-03
p4638
tp4639
tp4640
I1
s(VXXX-CC :time/ADVP :arg1/NP :op2/VP ...
p4641
V:root/ROOT~and
p4642
(V:op2~change-01
p4643
tp4644
tp4645
I1
s(V:condition/IN :manner/S , :arg1-of/IN :arg2/S , they XXX-MD :arg1-of/ADVP :arg1/VP .
p4646
V:root/ROOT~possible-01
p4647
(V:arg1~put-01
p4648
V:condition~stand-01
p4649
V:condition~stand-01
p4650
tp4651
tp4652
I1
s(V:time/CC :ord/WHADVP :op2/S , :arg0/NP XXX-VBD :arg1/SBAR .
p4653
V:root/ROOT~realize-01
p4654
(V:arg0~he
p4655
V:arg1~close-10
p4656
V:time~and
p4657
tp4658
tp4659
I1
s(VXXX-NN :mod/NP .
p4660
V:root/ROOT~chapter
p4661
(V:mod~21
p4662
tp4663
tp4664
I1
s(V'' :arg0/NP has XXX-VBN :arg2/NP :arg1/ADJP :mod/ADVP ! ''
p4665
V:root/ROOT~do-02
p4666
(V:arg0~it
p4667
V:arg1~good-04
p4668
V:arg2~you
p4669
V:mod~at-all
p4670
tp4671
tp4672
I1
s(V:arg0/NP XXX-MD :arg1/VP
p4673
V:root/ROOT~possible-01
p4674
(V:arg1~bite-01
p4675
tp4676
tp4677
I1
s(V:degree/NP was :mod/ADVP :manner/PP that :arg0/NP XXX-VBD :arg1/S .
p4678
V:root/ROOT~wish-01
p4679
(V:arg0~she
p4680
V:arg1~appear-01
p4681
tp4682
tp4683
I1
s(V'' :arg1/ADVP , '' XXX-VBD :arg0/NP .
p4684
V:root/ROOT~say-01
p4685
(V:arg0~king
p4686
V:arg1~no
p4687
tp4688
tp4689
I1
s(V'' what are the XXX-NNS :arg2/. ''
p4690
V:root/ROOT~order-01
p4691
(V:arg2~amr-unknown
p4692
tp4693
tp4694
I1
s(V:condition/IN :arg0/NP :condition/VBP :arg2/NP , XXX-JJ :arg1/NP ... ''
p4695
V:root/ROOT~tame-01
p4696
(V:arg0~you
p4697
V:arg1~i
p4698
V:condition~want-01
p4699
V:condition~want-01
p4700
tp4701
tp4702
I1
s(V'' XXX-CC :time/ADVP :op1/VP . ''
p4703
V:root/ROOT~and
p4704
(V:op1~secret
p4705
tp4706
tp4707
I1
s(V'' :arg0/NP XXX-FW :arg1/S . ''
p4708
V:root/ROOT~forbid-01
p4709
(V:arg0~i
p4710
V:arg1~do-02
p4711
V:arg2~you
p4712
tp4713
tp4714
I1
s(VXXX-NN :mod/NP .
p4715
V:root/ROOT~chapter
p4716
(V:mod~24
p4717
tp4718
tp4719
I1
s(VXXX-CC :op2/NP
p4720
V:root/ROOT~and
p4721
(V:op2~understand-01
p4722
tp4723
tp4724
I1
s(V:arg0/NP will XXX-VB :direction/RP :arg1/NP
p4725
V:root/ROOT~pour-01
p4726
(V:arg0~star
p4727
V:arg1~water
p4728
V:direction~out
p4729
V:purpose~drink-01
p4730
tp4731
tp4732
I1
s(V:arg0/NP XXX-VBP :arg1/NP .
p4733
V:root/ROOT~have-03
p4734
(V:arg0~i
p4735
V:arg1~time
p4736
V:polarity~-
p4737
tp4738
tp4739
I1
s(V:arg1/NP is of :polarity/DT XXX-NN :arg0/PP .
p4740
V:root/ROOT~use-01
p4741
(V:arg0~i
p4742
V:arg1~wheat
p4743
V:polarity~-
p4744
tp4745
tp4746
I1
s(V'' :domain/S , '' XXX-VBD :arg0/NP .
p4747
V:root/ROOT~say-01
p4748
(V:arg0~switchman
p4749
V:arg1~one
p4750
tp4751
tp4752
I1
s(V:arg0/NP had XXX-JJ the :arg1/NN .
p4753
V:root/ROOT~drink-01
p4754
(V:arg0~i
p4755
V:arg1~water
p4756
tp4757
tp4758
I1
s(VXXX-IN :op1/NP , :op2/NP , :poss/NP , the earth , there :arg1/VP .
p4759
V:root/ROOT~be-located-at-91
p4760
(V:arg1~prince
p4761
V:arg2~and
p4762
tp4763
tp4764
I1
s(V:arg1/NP is :polarity/PRT XXX-JJ :arg2/SBAR ''
p4765
V:root/ROOT~worth-02
p4766
(V:arg1~it
p4767
V:arg2~trouble-01
p4768
V:polarity~-
p4769
tp4770
tp4771
I1
s(VXXX-CC :domain/NP :arg2/VP ''
p4772
V:root/ROOT~contrast-01
p4773
(V:arg2~young
p4774
tp4775
tp4776
I1
s(V'' :arg0/NP XXX-VBP :mod/ADVP :arg1-of/IN :arg2/NP ! ''
p4777
V:root/ROOT~talk-01
p4778
(V:arg0~you
p4779
V:arg1-of~resemble-01
p4780
tp4781
tp4782
I1
s(V'' :arg1/S , '' XXX-VBD :arg0/NP .
p4783
V:root/ROOT~say-01
p4784
(V:arg0~snake
p4785
V:arg1~solve-01
p4786
tp4787
tp4788
I1
s(V'' :arg0/NP XXX-VBP :arg1/NP .
p4789
V:root/ROOT~have-03
p4790
(V:arg0~man
p4791
V:arg1~time
p4792
V:polarity~-
p4793
tp4794
tp4795
I1
s(V:domain/NP would be XXX-JJ .
p4796
V:root/ROOT~magnificent
p4797
(V:domain~it
p4798
tp4799
tp4800
I1
s(VXXX-RB :arg1-of/PP : i :arg1/VP . ''
p4801
V:root/ROOT~cause-01
p4802
(V:arg0~think-01
p4803
V:arg1-of~resemble-01
p4804
V:arg1~own-01
p4805
tp4806
tp4807
I1
s(VXXX-CC :arg0/NP :op1/VP .
p4808
V:root/ROOT~and
p4809
(V:op1~go-02
p4810
tp4811
tp4812
I1
s(VXXX-CC :arg0/NP :op2/VP .
p4813
V:root/ROOT~and
p4814
(V:op2~lead-01
p4815
tp4816
tp4817
I1
s(V:arg1/NP was XXX-VBG :arg2/IN :location-of/NP .
p4818
V:root/ROOT~stand-01
p4819
(V:arg1~he
p4820
V:arg2~before
p4821
tp4822
tp4823
I1
s(V:domain/NP was :degree/RB XXX-JJ .
p4824
V:root/ROOT~strange
p4825
(V:degree~very
p4826
V:domain~planet
p4827
tp4828
tp4829
I1
s(V:mod/ADVP :arg0/NP XXX-VBD :arg1/NP .
p4830
V:root/ROOT~disturb-01
p4831
(V:arg0~prince
p4832
V:arg1~think-01
p4833
V:mod~again
p4834
tp4835
tp4836
I1
s(V'' :arg1/S , '' :arg0/NP XXX-VBD .
p4837
V:root/ROOT~say-01
p4838
(V:arg0~switchman
p4839
V:arg1~lucky
p4840
tp4841
tp4842
I1
s(VXXX-VB :arg2/NP :arg1/NP :arg1/SBAR .
p4843
V:root/ROOT~send-01
p4844
(V:arg0~you
p4845
V:arg1~word-01
p4846
V:arg2~i
p4847
tp4848
tp4849
I1
s(V'' :polarity/S , '' XXX-VBD :arg0/NP .
p4850
V:root/ROOT~say-01
p4851
(V:arg0~geographer
p4852
V:arg1~record-01
p4853
tp4854
tp4855
I1
s(VXXX-CC , :time/IN :op1/NP , :arg2/S : '' :arg1/S :arg2/. ''
p4856
V:root/ROOT~contrast-01
p4857
(V:arg2~add-01
p4858
tp4859
tp4860
I1
s(VXXX-CC :arg1/NP :op2/VP .
p4861
V:root/ROOT~and
p4862
(V:op2~flush-03
p4863
tp4864
tp4865
I1
s(Vit is :location/ADVP that :arg1/NP :op1/VP , XXX-CC :op2/VP .
p4866
V:root/ROOT~and
p4867
(V:location~here
p4868
V:op1~appear-01
p4869
V:op2~disappear-01
p4870
tp4871
tp4872
I1
s(V'' :arg1/S , '' XXX-VBD :arg1/NP .
p4873
V:root/ROOT~say-01
p4874
(V:arg0~person
p4875
V:arg1~do-02
p4876
tp4877
tp4878
I1
s(V'' :arg0/NP :polarity/VBP :polarity/RB XXX-VB .
p4879
V:root/ROOT~know-01
p4880
(V:arg0~i
p4881
V:polarity~-
p4882
V:polarity~-
p4883
tp4884
tp4885
I1
s(Vi am XXX-VBN :arg0/PP : :op2/S . ''
p4886
V:root/ROOT~and
p4887
(V:op1~concern-01
p4888
V:op2~accurate
p4889
tp4890
tp4891
I1
s(Vso :arg0/NP XXX-VBD out :arg1/NP , :mod/ADVP .
p4892
V:root/ROOT~clean-out-03
p4893
(V:arg0~he
p4894
V:arg1~volcano
p4895
V:mod~too
p4896
tp4897
tp4898
I1
s(V'' :arg0/NP XXX-VBP :manner/ADVP .
p4899
V:root/ROOT~obey-01
p4900
(V:arg0~they
p4901
V:manner~instant
p4902
tp4903
tp4904
I1
s(V'' :arg0/NP :op1/VBP :arg1/NP , XXX-CC :op2/NP .
p4905
V:root/ROOT~and
p4906
(V:op1~have-03
p4907
V:op2~hunt-01
p4908
tp4909
tp4910
I1
s(V'' XXX-IN :arg0/FW :arg1/VP . ''
p4911
V:root/ROOT~cause-01
p4912
(V:arg1~set-out-07
p4913
tp4914
tp4915
I1
s(V'' :arg1/S , '' XXX-VBD :arg0/NP .
p4916
V:root/ROOT~say-01
p4917
(V:arg0~prince
p4918
V:arg1~look-01
p4919
tp4920
tp4921
I1
s(V'' :arg1-of/WHADVP is XXX-IN :arg0/.
p4922
V:root/ROOT~that
p4923
(V:arg1-of~cause-01
p4924
tp4925
tp4926
I1
s(V:op1/CD :arg1/CC :op2/CD XXX-VBP :arg2/NP .
p4927
V:root/ROOT~equal-01
p4928
(V:arg1~sum-of
p4929
V:arg2~15
p4930
tp4931
tp4932
I1
s(V:arg0/NP XXX-VBD :arg1/NP :subevent-of/PP .
p4933
V:root/ROOT~raise-01
p4934
(V:arg0~man
p4935
V:arg1~hat
p4936
V:subevent-of~salute-01
p4937
tp4938
tp4939
I1
s(V:domain/NP is :mod/DT :degree/RB XXX-JJ .
p4940
V:root/ROOT~small
p4941
(V:degree~so
p4942
V:domain~it
p4943
tp4944
tp4945
I1
s(V'' XXX-CC , :mod/ADVP , :arg0/NP :op2/VP . ''
p4946
V:root/ROOT~and
p4947
(V:op2~eat-01
p4948
tp4949
tp4950
I1
s(V'' :arg1/NP XXX-VBZ , ' which :arg1-of/VP . ' ''
p4951
V:root/ROOT~mean-01
p4952
(V:arg1~it
p4953
V:arg2~thing
p4954
tp4955
tp4956
I1
s(V'' :arg2/IN :mod/NP , '' :arg0/NP XXX-VBN .
p4957
V:root/ROOT~answer-01
p4958
(V:arg0~king
p4959
V:arg2~over
p4960
tp4961
tp4962
I1
s(V:arg0/NP :op1/VBP :arg1/NP , XXX-CC :op2/SBAR . ''
p4963
V:root/ROOT~and
p4964
(V:op1~have-03
p4965
V:op2~make-02
p4966
tp4967
tp4968
I1
s(V'' :arg1/S , '' XXX-VBD :arg0/NP .
p4969
V:root/ROOT~say-01
p4970
(V:arg0~prince
p4971
V:arg1~understand-01
p4972
tp4973
tp4974
I1
s(V'' :domain/S , '' :arg0/NP XXX-VBD :arg1-of/ADVP , :arg0-of/S .
p4975
V:root/ROOT~say-01
p4976
(V:arg0~he
p4977
V:arg1-of~simple-02
p4978
V:arg1~extraordinary
p4979
tp4980
tp4981
I1
s(Vthere was :polarity/RB :mod/RB :mod/DT XXX-NN , :arg1-of/IN :arg0/FRAG .
p4982
V:root/ROOT~sound-02
p4983
(V:arg1-of~cause-01
p4984
V:mod~any
p4985
V:polarity~-
p4986
tp4987
tp4988
I1
s(V'' :arg2/S , '' XXX-VBD :arg0-of/NP , :manner/IN :arg0/NP .
p4989
V:root/ROOT~reply-01
p4990
(V:arg0~person
p4991
V:arg2~drink-01
p4992
V:manner~lugubrious
p4993
V:manner~lugubrious
p4994
tp4995
tp4996
I1
s(V:arg2/NP is an XXX-NN . ''
p4997
V:root/ROOT~order-01
p4998
(V:arg2~it
p4999
tp5000
tp5001
I1
s(V'' :arg1/S , :arg1/CC :arg2/S , '' :arg0/NP XXX-VBD on .
p5002
V:root/ROOT~go-on-25
p5003
(V:arg0~he
p5004
V:arg1~contrast-01
p5005
tp5006
tp5007
I1
s(V'' :arg1/NP is :op1/ADJP , XXX-CC :op2/VP , and :op1/ADJP :op3/CC :op2/ADJP .
p5008
V:root/ROOT~and
p5009
(V:op1~dry-08
p5010
V:op2~pointed
p5011
V:op3~and
p5012
tp5013
tp5014
I1
s(VXXX-CC :condition/SBAR , :arg0/NP :arg2/VP ...
p5015
V:root/ROOT~contrast-01
p5016
(V:arg2~know-01
p5017
tp5018
tp5019
I1
s(VXXX-CC :domain/NP is :polarity/RB :arg2/ADJP .
p5020
V:root/ROOT~contrast-01
p5021
(V:arg2~absurd
p5022
tp5023
tp5024
I1
s(V'' :arg2/S , '' :arg0/NP XXX-VBD :arg1/S .
p5025
V:root/ROOT~hasten-01
p5026
(V:arg0~king
p5027
V:arg1~assure-01
p5028
tp5029
tp5030
I1
s(V:arg0/LS XXX-VB :arg1/NP . ''
p5031
V:root/ROOT~own-01
p5032
(V:arg0~i
p5033
V:arg1~they
p5034
tp5035
tp5036
I1
s(V'' :arg1/S , '' :arg0/NP XXX-VBD , '' :arg0/SBAR . ''
p5037
V:root/ROOT~say-01
p5038
(V:arg0~he
p5039
V:arg1~glad-02
p5040
tp5041
tp5042
I1
s(V'' what does that XXX-NN - :arg1/VP :arg2/. ''
p5043
V:root/ROOT~mean-01
p5044
(V:arg1~tame-01
p5045
V:arg2~amr-unknown
p5046
tp5047
tp5048
I1
s(V:arg0/NP XXX-VBD :mod/PP .
p5049
V:root/ROOT~stare-01
p5050
(V:arg0~he
p5051
V:arg1~i
p5052
tp5053
tp5054
I1
s(V'' :arg2/NP , XXX-CC :op2/NP ? ''
p5055
V:root/ROOT~or
p5056
(V:op1~person/have-org-role-91
p5057
V:op2~i
p5058
tp5059
tp5060
I1
s(V:arg0/NP XXX-VBP :manner/S .
p5061
V:root/ROOT~send-03
p5062
(V:arg0~step-01
p5063
V:arg1~i
p5064
V:arg4~underneath
p5065
V:arg5~back
p5066
V:manner~hurry-01
p5067
tp5068
tp5069
I1
s(V:op1/S , XXX-CC :op2/S ... ''
p5070
V:root/ROOT~or
p5071
(V:op1~forget-01
p5072
V:op2~escape-01
p5073
V:time~date-entity
p5074
V:time~date-entity
p5075
tp5076
tp5077
I1
s(V'' :arg1/S , '' XXX-VBD :arg0/NP . ''
p5078
V:root/ROOT~say-01
p5079
(V:arg0~geographer
p5080
V:arg1~record-01
p5081
tp5082
tp5083
I1
s(V'' :condition/SBAR , '' :arg0/NP XXX-VBD , '' i :op2/VP .
p5084
V:root/ROOT~say-01
p5085
(V:arg0~he
p5086
V:arg1~possible-01
p5087
tp5088
tp5089
I1
s(Vover what XXX-MD :arg0/NP :arg1/VP :arg1/.
p5090
V:root/ROOT~possible-01
p5091
(V:arg1~rule-03
p5092
tp5093
tp5094
I1
s(V:arg0/NP :polarity/VBD :polarity/RB XXX-VB :arg1/WHNP :arg1-of/S .
p5095
V:root/ROOT~know-01
p5096
(V:arg0~i
p5097
V:arg1~thing
p5098
V:polarity~-
p5099
V:polarity~-
p5100
tp5101
tp5102
I1
s(V:op1/S XXX-CC :op2/S ! ''
p5103
V:root/ROOT~and
p5104
(V:op1~turn-01
p5105
V:op2~change-01
p5106
tp5107
tp5108
I1
s(V'' :arg1/S , '' :arg0/NP XXX-VBD .
p5109
V:root/ROOT~say-01
p5110
(V:arg0~king
p5111
V:arg1~do-02
p5112
tp5113
tp5114
I1
s(V:arg0/NP have XXX-VBN :arg1/S .
p5115
V:root/ROOT~decide-01
p5116
(V:arg0~you
p5117
V:arg1~go-02
p5118
tp5119
tp5120
I1
s(V'' :poss/NP :part-of/ADVP - - :arg0/NP :op1/VP ; XXX-CC they are :degree/RB :op2/RB . ''
p5121
V:root/ROOT~and
p5122
(V:op1~look-02
p5123
V:op2~long-03
p5124
tp5125
tp5126
I1
s(V:arg1/NP was :mod/ADVP :polarity/RB XXX-JJ .
p5127
V:root/ROOT~satisfy-01
p5128
(V:arg1~prince
p5129
V:mod~still
p5130
V:polarity~-
p5131
tp5132
tp5133
I1
s(V:arg0/NP XXX-VBP :arg1/NP :mod/ADVP :purpose/PP ! ''
p5134
V:root/ROOT~have-03
p5135
(V:arg0~flower
p5136
V:arg1~thorn
p5137
V:mod~just
p5138
V:purpose~spite
p5139
tp5140
tp5141
I1
s(V'' :arg1-of/ADVP , '' XXX-VBD :arg0/NP :manner/ADVP .
p5142
V:root/ROOT~say-01
p5143
(V:arg0~prince
p5144
V:arg1~evening
p5145
V:manner~courteous
p5146
tp5147
tp5148
I1
s(V:arg0/NP XXX-VBN :arg1-of/ADVP .
p5149
V:root/ROOT~breathe-01
p5150
(V:arg0~i
p5151
V:arg1-of~easy-05
p5152
tp5153
tp5154
I1
s(V:arg0/NP :arg1/VBD :arg1/NP to :arg1/NP , XXX-CC :arg2/NP : '' :arg0/S
p5155
V:root/ROOT~contrast-01
p5156
(V:arg1~make-01
p5157
V:arg2~add-01
p5158
tp5159
tp5160
I1
s(V:arg0/NP , :arg1-of/S , will :polarity/RB XXX-VB :arg1/NP :time/SBAR .
p5161
V:root/ROOT~believe-01
p5162
(V:arg0~grown-up
p5163
V:arg1-of~sure-02
p5164
V:arg1~you
p5165
V:polarity~-
p5166
V:time~tell-01
p5167
tp5168
tp5169
I1
s(V:polarity/S ... XXX-CC :time/ADVP :time/NP-TMP :arg0/NP .
p5170
V:root/ROOT~and
p5171
(V:op1~body
p5172
V:op2~love-01
p5173
tp5174
tp5175
I1
s(V'' :arg1/S , '' XXX-VBD :arg0/NP .
p5176
V:root/ROOT~say-01
p5177
(V:arg0~fox
p5178
V:arg1~neglect-01
p5179
tp5180
tp5181
I1
s(V'' it will be XXX-IN if , :arg1/PP , :arg0/NP :arg2/VP ''
p5182
V:root/ROOT~resemble-01
p5183
(V:arg1~give-01
p5184
tp5185
tp5186
I1
s(V:arg0/NP :polarity/VBP :polarity/RB XXX-VB :arg1/NP .
p5187
V:root/ROOT~eat-01
p5188
(V:arg0~i
p5189
V:arg1~bread
p5190
V:polarity~-
p5191
V:polarity~-
p5192
tp5193
tp5194
I1
s(V:arg0/NP :polarity/VBZ :polarity/RB XXX-VB :arg1/NP .
p5195
V:root/ROOT~leave-11
p5196
(V:arg0~he
p5197
V:arg1~desk
p5198
V:polarity~-
p5199
V:polarity~-
p5200
tp5201
tp5202
I1
s(VXXX-CC :arg0/NP :op2/VP .
p5203
V:root/ROOT~and
p5204
(V:op2~need-01
p5205
tp5206
tp5207
I1
s(V:op1/S ; XXX-CC :op2/S .
p5208
V:root/ROOT~and
p5209
(V:op1~possess-01
p5210
V:op2~convenient
p5211
tp5212
tp5213
I1
s(V'' it is the XXX-NN :arg1-of/SBAR . ''
p5214
V:root/ROOT~time
p5215
(V:arg0-of~make-02
p5216
V:arg1-of~waste-01
p5217
tp5218
tp5219
I1
s(V'' :manner/NP :part-of/PP , '' :arg0/NP :time/ADVP XXX-VBD :arg1/NP .
p5220
V:root/ROOT~direct-01
p5221
(V:arg0~man
p5222
V:arg1~he
p5223
V:arg2~clap-01
p5224
V:time~now
p5225
tp5226
tp5227
I1
s(Vthat is to XXX-VB - - :polarity/NP .
p5228
V:root/ROOT~say-01
p5229
(V:arg1~entire
p5230
tp5231
tp5232
I1
s(V:arg1-of/S , :arg0/NP XXX-VBD :op1/CD :frequency/CC :op2/CD times , :purpose/SBAR .
p5233
V:root/ROOT~cough-01
p5234
(V:arg0~she
p5235
V:frequency~or
p5236
V:frequency~or
p5237
V:purpose~put-03
p5238
tp5239
tp5240
I1
s(V'' :mod/NP :op2/LS - - :arg0/NP XXX-NN :frequency/VP - - ''
p5241
V:root/ROOT~order-01
p5242
(V:arg0~i
p5243
V:arg1~you
p5244
V:arg2~and
p5245
V:mod~then
p5246
tp5247
tp5248
I1
s(V'' :arg1/NP :arg1/NN :arg2/IN :arg0-of/NP XXX-VBD :arg0/NP .
p5249
V:root/ROOT~say-01
p5250
(V:arg0~switchman
p5251
V:arg1~sort-01
p5252
tp5253
tp5254
I1
s(VXXX-CC :arg1-of/NP :time/ADVP :arg2/VP .
p5255
V:root/ROOT~contrast-01
p5256
(V:arg2~know-01
p5257
tp5258
tp5259
I1
s(V:arg0/NP :polarity/VBD :polarity/RB XXX-VB out .
p5260
V:root/ROOT~cry-out-03
p5261
(V:arg0~he
p5262
V:polarity~-
p5263
V:polarity~-
p5264
tp5265
tp5266
I1
s(V:domain/NP am :domain/DT XXX-NN . ''
p5267
V:root/ROOT~flower
p5268
(V:domain~i
p5269
V:domain~i
p5270
tp5271
tp5272
I1
s(V:op1/CD :arg2/CC :op2/CD XXX-VBP :arg1/NP ... ''
p5273
V:root/ROOT~equal-01
p5274
(V:arg1~7
p5275
V:arg2~sum-of
p5276
tp5277
tp5278
I1
s(V'' it is :arg1/PRP$ XXX-NN :arg2/SBAR .
p5279
V:root/ROOT~fault-01
p5280
(V:arg1~i
p5281
V:arg2~know-01
p5282
tp5283
tp5284
I1
s(V:condition/S , :arg0/NP would XXX-VB :arg1/NP .
p5285
V:root/ROOT~make-01
p5286
(V:arg0~that
p5287
V:arg1~spectacle
p5288
V:condition~see-01
p5289
V:condition~see-01
p5290
tp5291
tp5292
I1
s(Vthere was :arg1/NP XXX-CC :arg2/NP :arg2/PP .
p5293
V:root/ROOT~contrast-01
p5294
(V:arg1~nothing
p5295
V:arg2~flash
p5296
tp5297
tp5298
I1
s(V'' :time/RB :arg1/PRP will XXX-VB :direction/PRT :direction/IN :unit/NP - :example/PRN :time/IN :location/NP .
p5299
V:root/ROOT~sit-down-02
p5300
(V:arg1~you
p5301
V:direction~down
p5302
V:direction~down
p5303
V:example~that
p5304
V:location~relative-position
p5305
V:time~first
p5306
V:time~first
p5307
tp5308
tp5309
I1
s(V:arg0/NP XXX-MD :op1/VP .
p5310
V:root/ROOT~possible-01
p5311
(V:arg1~and
p5312
tp5313
tp5314
I1
s(V'' :arg1/NP is :mod/RB XXX-IN :arg2/S .
p5315
V:root/ROOT~resemble-01
p5316
(V:arg1~it
p5317
V:arg2~water
p5318
V:mod~just
p5319
tp5320
tp5321
I1
s(V:arg0/NP was XXX-JJ , there :mod/VP .
p5322
V:root/ROOT~fear-01
p5323
(V:arg0~he
p5324
V:mod~certain
p5325
tp5326
tp5327
I1
s(V:arg0/LS XXX-VB :arg1/NP . ''
p5328
V:root/ROOT~have-03
p5329
(V:arg0~i
p5330
V:arg1~claw
p5331
tp5332
tp5333
I1
s(V'' XXX-TO :arg0/NP , :domain/NP are :mod/ADVP :mod/ADJP .
p5334
V:root/ROOT~opine-01
p5335
(V:arg0~i
p5336
V:arg1~boy
p5337
tp5338
tp5339
I1
s(V'' what has XXX-VBN :arg1/NP :arg2/ADVP :arg0/. ''
p5340
V:root/ROOT~bring-01
p5341
(V:arg0~amr-unknown
p5342
V:arg1~you
p5343
V:arg2~here
p5344
tp5345
tp5346
I1
s(V:arg0/NP was XXX-VBG :arg1/NP .
p5347
V:root/ROOT~regret-01
p5348
(V:arg0~he
p5349
V:arg1~lose-02
p5350
tp5351
tp5352
I1
s(V:arg0/NP XXX-VBD :arg1/NP :direction/IN :op1/NP .
p5353
V:root/ROOT~continue-01
p5354
(V:arg0~i
p5355
V:arg1~walk-01
p5356
tp5357
tp5358
I1
s(Vthey XXX-JJ :arg0/NP :compared-to/PP .
p5359
V:root/ROOT~fancy-01
p5360
(V:arg0~they
p5361
V:arg1~important
p5362
tp5363
tp5364
I1
s(V:arg0/NP XXX-NNS :arg1/NP-TMP .
p5365
V:root/ROOT~blow-01
p5366
(V:arg0~wind
p5367
V:arg1~they
p5368
V:direction~away
p5369
tp5370
tp5371
I1
s(V:domain/NP is :polarity/RB the :mod/JJ XXX-NN . ''
p5372
V:root/ROOT~spot
p5373
(V:domain~this
p5374
V:mod~exact
p5375
tp5376
tp5377
I1
s(V:arg0/NP XXX-MD :arg1/VP .
p5378
V:root/ROOT~recommend-01
p5379
(V:arg1~advise-01
p5380
V:arg2~coref
p5381
tp5382
tp5383
I1
s(V:quant/S ... that :polarity/VBZ :polarity/RB XXX-VB :domain/NP :arg1/NP ... ''
p5384
V:root/ROOT~make-02
p5385
(V:arg0~and
p5386
V:arg1~prince
p5387
V:polarity~-
p5388
V:polarity~-
p5389
tp5390
tp5391
I1
s(V'' be XXX-PRP$ :arg2/NNS .
p5392
V:root/ROOT~have-rel-role-91
p5393
(V:arg0~you
p5394
V:arg1~i
p5395
V:arg2~friend
p5396
tp5397
tp5398
I1
s(V:arg0/NP XXX-MD :polarity/RB :arg1/VP .
p5399
V:root/ROOT~possible-01
p5400
(V:arg1~know-01
p5401
V:polarity~-
p5402
tp5403
tp5404
I1
s(V:arg0/NP XXX-VBZ :arg1/NP
p5405
V:root/ROOT~have-03
p5406
(V:arg0~she
p5407
V:arg1~thorn
p5408
V:purpose~protect-01
p5409
tp5410
tp5411
I1
s(V'' is :arg1/NP in XXX-NN :arg1-of/IN :arg0/NP ? ''
p5412
V:root/ROOT~endanger-01
p5413
(V:arg1-of~cause-01
p5414
V:arg1~flower
p5415
tp5416
tp5417
I1
s(V:arg0/NP XXX-VBD :arg1/PP .
p5418
V:root/ROOT~gaze-01
p5419
(V:arg0~prince
p5420
V:arg1~they
p5421
tp5422
tp5423
I1
s(V'' :arg1/ADVP , '' XXX-VBD :arg0/NP .
p5424
V:root/ROOT~say-01
p5425
(V:arg0~fox
p5426
V:arg1~man
p5427
tp5428
tp5429
I1
s(Vare :arg0/NP XXX-VBG :arg1/PP ? ''
p5430
V:root/ROOT~look-01
p5431
(V:arg0~you
p5432
V:arg1~chicken
p5433
tp5434
tp5435
I1
s(V:arg0/NP :mod/ADVP XXX-VBP :arg1/NP .
p5436
V:root/ROOT~raise-03
p5437
(V:arg0~they
p5438
V:arg1~chicken
p5439
V:mod~also
p5440
tp5441
tp5442
I1
s(V:arg0/NP :op1/VP , XXX-CC :op2/VP .
p5443
V:root/ROOT~and
p5444
(V:op1~moisten-01
p5445
V:op2~give-01
p5446
tp5447
tp5448
I1
s(V'' :polite/VB XXX-NN :arg0/NP ... ''
p5449
V:root/ROOT~excuse-01
p5450
(V:arg0~you
p5451
V:arg1~i
p5452
V:polite~+
p5453
tp5454
tp5455
I1
s(VXXX-VB :direction/PRT :time/NP ... ''
p5456
V:root/ROOT~come-01
p5457
(V:arg1~you
p5458
V:direction~back
p5459
V:time~date-entity
p5460
tp5461
tp5462
I1
s(V'' :arg1/S - '' XXX-VBD :arg0/NP , :purpose/RB :arg1-of/SBAR .
p5463
V:root/ROOT~say-01
p5464
(V:arg0~prince
p5465
V:arg1~time
p5466
V:purpose~remember-01
p5467
V:purpose~remember-01
p5468
tp5469
tp5470
I1
s(V:arg0/NP am XXX-JJ :arg2/PP .
p5471
V:root/ROOT~responsible-03
p5472
(V:arg0~i
p5473
V:arg2~she
p5474
tp5475
tp5476
I1
s(V'' :location/IN :quant/CD of :arg0/NP XXX-MD :arg1-of/VP .
p5477
V:root/ROOT~live-01
p5478
(V:arg0~i
p5479
V:location~star
p5480
tp5481
tp5482
I1
s(V:arg0/NP XXX-MD :extent/VP .
p5483
V:root/ROOT~possible-01
p5484
(V:arg1~walk-01
p5485
tp5486
tp5487
I1
s(V:time/NP :arg0/S ! ''
p5488
V:root/ROOT~go-02
p5489
(V:arg0~you
p5490
V:time~now
p5491
tp5492
tp5493
I1
s(V:op1/SBAR : :domain/NP was XXX-RB :op2/ADJP .
p5494
V:root/ROOT~and
p5495
(V:op1~absolute
p5496
V:op2~universal
p5497
tp5498
tp5499
I1
s(V:arg0/NP XXX-VBD himself :consist-of/IN :arg2/NP , :manner/IN :arg2/NP .
p5500
V:root/ROOT~twine-01
p5501
(V:arg0~he
p5502
V:arg1~coref
p5503
V:arg2~ankle
p5504
V:manner~resemble-01
p5505
tp5506
tp5507
I1
s(V:op1/S , XXX-CC :op2/S .
p5508
V:root/ROOT~and
p5509
(V:op1~live-01
p5510
V:op2~tell-01
p5511
tp5512
tp5513
I1
s(V:location-of/S , '' XXX-VBD :arg0/NP .
p5514
V:root/ROOT~exclaim-01
p5515
(V:arg0~king
p5516
V:arg1~here
p5517
V:time~see-01
p5518
tp5519
tp5520
I1
s(V'' :polarity/S , they :arg2/VBP XXX-RP .
p5521
V:root/ROOT~contrast-01
p5522
(V:arg1~own-01
p5523
V:arg2~reign-01
p5524
tp5525
tp5526
I1
s(VXXX-IN :arg0/NP :domain/NP :arg1/VP .
p5527
V:root/ROOT~opine-01
p5528
(V:arg0~businessman
p5529
V:arg1~wealth
p5530
tp5531
tp5532
I1
s(V:domain/NP is , XXX-TO :arg0/NP , :arg1/NP .
p5533
V:root/ROOT~opine-01
p5534
(V:arg0~i
p5535
V:arg1~landscape
p5536
tp5537
tp5538
I1
s(V'' XXX-NNS :arg0-of/IN :arg1/NP :arg0-of/. ''
p5539
V:root/ROOT~matter
p5540
(V:arg0-of~have-03
p5541
V:arg0-of~have-03
p5542
tp5543
tp5544
I1
s(V:op2/NP XXX-VBP :arg2/NP - two .
p5545
V:root/ROOT~equal-01
p5546
(V:arg1~sum-of
p5547
V:arg2~22
p5548
tp5549
tp5550
I1
s(VXXX-CC :arg0/NP :op1/VP : '' :arg1/S !
p5551
V:root/ROOT~and
p5552
(V:op1~continue-02
p5553
tp5554
tp5555
I1
s(V'' :domain/NP is XXX-JJ , ''
p5556
V:root/ROOT~strange
p5557
(V:domain~it
p5558
tp5559
tp5560
I1
s(V'' :arg1/S , '' XXX-VBD :arg1/NP .
p5561
V:root/ROOT~say-01
p5562
(V:arg0~person
p5563
V:arg1~nothing
p5564
tp5565
tp5566
I1
s(V'' :arg0/NP :polarity/VBP :polarity/RB XXX-VB :arg1/NP , ''
p5567
V:root/ROOT~find-01
p5568
(V:arg0~they
p5569
V:arg1~it
p5570
V:polarity~-
p5571
V:polarity~-
p5572
tp5573
tp5574
I1
s(V:arg0/NP XXX-VBP :polarity/RB :arg1/NP .
p5575
V:root/ROOT~have-03
p5576
(V:arg0~i
p5577
V:arg1~time
p5578
V:polarity~-
p5579
tp5580
tp5581
I1
s(VXXX-NN :mod/NP .
p5582
V:root/ROOT~chapter
p5583
(V:mod~26
p5584
tp5585
tp5586
I1
s(VXXX-CC :arg0/NP :arg2/VP : '' you know , :arg1/S .
p5587
V:root/ROOT~contrast-01
p5588
(V:arg2~effort-01
p5589
tp5590
tp5591
I1
s(VXXX-CC :compared-to/NP
p5592
V:root/ROOT~contrast-01
p5593
(V:arg2~foolish
p5594
tp5595
tp5596
I1
s(V'' :time/PP are XXX-NN .
p5597
V:root/ROOT~nothing
p5598
(V:domain~you
p5599
V:time~as-yet
p5600
V:time~as-yet
p5601
tp5602
tp5603
I1
s(VXXX-CC :arg0/NP :time/ADVP :arg2/VP . ''
p5604
V:root/ROOT~contrast-01
p5605
(V:arg2~know-01
p5606
tp5607
tp5608
I1
s(V:arg0/NP :polarity/VBD :polarity/RB XXX-VB :arg1/S :mod/DT :arg1-of/JJ , :arg1-of/IN :arg2/NP .
p5609
V:root/ROOT~wish-01
p5610
(V:arg0~she
p5611
V:arg1~go-out-17
p5612
V:polarity~-
p5613
V:polarity~-
p5614
tp5615
tp5616
I1
s(V'' :arg1/S , '' XXX-VBD :arg0/NP .
p5617
V:root/ROOT~say-01
p5618
(V:arg0~fox
p5619
V:arg1~act-02
p5620
tp5621
tp5622
I1
s(VXXX-CC :arg1/NP :arg2/VP .
p5623
V:root/ROOT~contrast-01
p5624
(V:arg2~worry-01
p5625
tp5626
tp5627
I2
s(V'' whatever does :arg1/IN XXX-VB :arg2/. ''
p5628
V:root/ROOT~mean-01
p5629
(V:arg1~that
p5630
V:arg2~amr-unknown
p5631
tp5632
tp5633
I1
s(V:condition/SBAR , :arg1/NP XXX-VBP :arg1-of/ADVP and :manner/ADVP , :manner/IN :arg1-of/NP .
p5634
V:root/ROOT~burn-01
p5635
(V:arg1-of~slow-05
p5636
V:arg1~volcano
p5637
V:condition~clean-out-03
p5638
V:manner~steady
p5639
V:manner~steady
p5640
tp5641
tp5642
I1
s(VXXX-TO :arg0/NP , :arg1/S ... ''
p5643
V:root/ROOT~opine-01
p5644
(V:arg0~you
p5645
V:arg1~unique
p5646
tp5647
tp5648
I1
s(V:domain/NP was :poss/PRP$ :ord/JJ XXX-NN :mod/PP .
p5649
V:root/ROOT~moment
p5650
(V:domain~that
p5651
V:mod~regret-01
p5652
V:ord~ordinal-entity
p5653
V:poss~he
p5654
tp5655
tp5656
I1
s(V'' :domain/NP is the XXX-NN !
p5657
V:root/ROOT~tragedy
p5658
(V:domain~that
p5659
tp5660
tp5661
I1
s(Vthen :arg2/ADJP XXX-VBZ :arg1/S two - thousand , seven - hundred - thirty - one . ''
p5662
V:root/ROOT~equal-01
p5663
(V:arg1~501622731
p5664
V:arg2~that
p5665
tp5666
tp5667
I1
s(V'' what are :arg0/NP XXX-VBG :arg1/. ''
p5668
V:root/ROOT~do-02
p5669
(V:arg0~you
p5670
V:arg1~amr-unknown
p5671
tp5672
tp5673
I1
s(V:arg0/NP XXX-VBD :ord/TO :arg1/NP .
p5674
V:root/ROOT~belong-01
p5675
(V:arg0~planet
p5676
V:arg1~businessman
p5677
tp5678
tp5679
I1
s(VXXX-CC :time/ADVP would :arg0/NP :polarity/VP .
p5680
V:root/ROOT~and
p5681
(V:op2~mistake-02
p5682
tp5683
tp5684
I1
s(V:time/SBAR , :arg0/NP will XXX-VB - - and :arg1/S . ''
p5685
V:root/ROOT~walk-01
p5686
(V:arg0-of~cause-01
p5687
V:arg0~you
p5688
V:time~want-01
p5689
tp5690
tp5691
I1
s(V'' XXX-NN :topic/PP :topic/. ''
p5692
V:root/ROOT~minister
p5693
(V:topic~amr-unknown
p5694
V:topic~amr-unknown
p5695
tp5696
tp5697
I1
s(V:arg0/NP XXX-MD - - ''
p5698
V:root/ROOT~do-02
p5699
(V:arg0~i
p5700
tp5701
tp5702
I1
s(VXXX-CC :arg1/NP :arg1/VP .
p5703
V:root/ROOT~have-concession-91
p5704
(V:arg1~reassure-01
p5705
tp5706
tp5707
I1
s(VXXX-NN :mod/NP .
p5708
V:root/ROOT~chapter
p5709
(V:mod~27
p5710
tp5711
tp5712
I1
s(V'' :arg1/S , '' XXX-VBD :arg0/NP .
p5713
V:root/ROOT~say-01
p5714
(V:arg0~prince
p5715
V:arg1~true-01
p5716
tp5717
tp5718
I1
s(VXXX-IN :mod/NP :domain/NP are :mod/ADJP :arg1/PP .
p5719
V:root/ROOT~opine-01
p5720
(V:arg0~person
p5721
V:arg1~light
p5722
tp5723
tp5724
I1
s(V:arg1/NP XXX-VBD :op1/ADJP , :arg1/CC :op2/ADJP .
p5725
V:root/ROOT~seem-01
p5726
(V:arg1~and
p5727
tp5728
tp5729
I1
s(V:frequency/PP :arg0/NP will XXX-VB :arg1/NP :arg3/PP .
p5730
V:root/ROOT~condemn-01
p5731
(V:arg0~you
p5732
V:arg1~he
p5733
V:arg3~die-01
p5734
V:frequency~time-to-time
p5735
tp5736
tp5737
I1
s(V:arg0/NP XXX-VBD :arg2/PP .
p5738
V:root/ROOT~say-01
p5739
(V:arg0~i
p5740
V:arg2~prince
p5741
tp5742
tp5743
I2
s(VXXX-VBN , :time/NP !
p5744
V:root/ROOT~come-01
p5745
(V:arg1~you
p5746
V:time~now
p5747
tp5748
tp5749
I1
s(VXXX-CC :arg1/NP :op2/VP .
p5750
V:root/ROOT~and
p5751
(V:op2~sit-down-02
p5752
tp5753
tp5754
I1
s(V'' :arg0/NP XXX-VBD :arg0/NP , '' :op1/PRN :op2/VP . ''
p5755
V:root/ROOT~say-01
p5756
(V:arg0~prince
p5757
V:arg1~and
p5758
tp5759
tp5760
I1
s(V:poss/PRP$ XXX-NN :mod/VP .
p5761
V:root/ROOT~star
p5762
(V:arg1-of~include-91
p5763
V:beneficiary~you
p5764
V:poss~i
p5765
V:quant~1
p5766
tp5767
tp5768
I1
s(V'' yes , XXX-DT 's it .
p5769
V:root/ROOT~that-is-it-00
p5770
g23
tp5771
I1
s(V:arg0/NP XXX-VBD :direction/ADVP , :purpose/S .
p5772
V:root/ROOT~go-02
p5773
(V:arg0~prince
p5774
V:direction~away
p5775
V:purpose~look-01
p5776
tp5777
tp5778
I1
s(V'' :arg1/S , '' XXX-VBD :arg0/NP .
p5779
V:root/ROOT~say-01
p5780
(V:arg0~businessman
p5781
V:arg1~enough
p5782
tp5783
tp5784
I1
s(V:arg0/NP XXX-VBD :op1/NP . ''
p5785
V:root/ROOT~have-03
p5786
(V:arg0~i
p5787
V:arg1~and
p5788
tp5789
tp5790
I1
s(V:arg0/NP will XXX-VB :arg2-of/S .
p5791
V:root/ROOT~draw-01
p5792
(V:arg0~i
p5793
V:arg1~thing
p5794
V:arg2~you
p5795
tp5796
tp5797
I1
s(V:time/IN :op1/NP :arg0/NP XXX-VBD :mod/ADVP : '' :arg1/S ?
p5798
V:root/ROOT~speak-01
p5799
(V:arg0~prince
p5800
V:arg1~have-03
p5801
V:mod~again
p5802
V:time~after
p5803
tp5804
tp5805
I1
s(V:time/ADVP , :arg0-of/PP , :arg0/NP XXX-VBD :arg1/NP .
p5806
V:root/ROOT~take-01
p5807
(V:arg0~he
p5808
V:arg1~leave-11
p5809
V:time~then
p5810
tp5811
tp5812
I1
s(Vwhat XXX-VBD :arg1/NP :arg0/.
p5813
V:root/ROOT~bring-01
p5814
(V:arg0~amr-unknown
p5815
V:arg1~sense-01
p5816
V:arg2~i
p5817
V:time~then
p5818
tp5819
tp5820
I1
s(V:arg1/NP was XXX-VBN :arg0/PP .
p5821
V:root/ROOT~inhabit-01
p5822
(V:arg0~gentleman
p5823
V:arg1~it
p5824
tp5825
tp5826
I1
s(VXXX-CC :arg1/NP :arg2/VP : '' it is :arg1/ADJP :arg1/SBAR . ''
p5827
V:root/ROOT~contrast-01
p5828
(V:arg2~come-01
p5829
tp5830
tp5831
I1
s(V:ord/NP was XXX-VBN :arg0/PP .
p5832
V:root/ROOT~inhabit-01
p5833
(V:arg0~king
p5834
V:arg1~thing
p5835
tp5836
tp5837
I1
s(VXXX-PRP is :mod/RB :arg2/RB :direction/IN :op1/NP .
p5838
V:root/ROOT~be-located-at-91
p5839
(V:arg1~it
p5840
V:arg2~there
p5841
tp5842
tp5843
I1
s(V:domain/NP was :arg0-of/NP who XXX-VBD :arg1/NP .
p5844
V:root/ROOT~sell-01
p5845
(V:arg0~person
p5846
V:arg1~pill
p5847
tp5848
tp5849
I1
s(V:op1/S , XXX-CC :op2/S .
p5850
V:root/ROOT~and
p5851
(V:op1~remain-01
p5852
V:op2~yawn-01
p5853
tp5854
tp5855
I1
s(V'' XXX-NNS :domain/VP .
p5856
V:root/ROOT~order
p5857
(V:domain~order
p5858
tp5859
tp5860
I1
s(VXXX-CC :arg0/NP :arg2/VP .
p5861
V:root/ROOT~contrast-01
p5862
(V:arg2~take-01
p5863
tp5864
tp5865
I1
s(V:time/NP that would XXX-VB :arg1/NP ; then :poss/NP ; :arg0-of/NP ; :location/NP .
p5866
V:root/ROOT~come-03
p5867
(V:arg1~turn
p5868
tp5869
tp5870
I1
s(VXXX-IN :arg1-of/S was :arg1/IN :arg2/NP .
p5871
V:root/ROOT~cause-01
p5872
(V:arg0~and
p5873
V:arg1~resemble-01
p5874
tp5875
tp5876
I1
s(V:domain/NP is :degree/JJ a :mod/JJ XXX-NN , :domain/NP .
p5877
V:root/ROOT~place
p5878
(V:domain~land
p5879
V:domain~land
p5880
V:mod~secret
p5881
tp5882
tp5883
I1
s(VXXX-CC :condition/IN :arg0/S , then :arg0/NP :arg2/VP .
p5884
V:root/ROOT~contrast-01
p5885
(V:arg2~need-01
p5886
tp5887
tp5888
I1
s(V:arg0/NP XXX-VBD :arg1/NP :arg4/PP .
p5889
V:root/ROOT~raise-01
p5890
(V:arg0~i
p5891
V:arg1~bucket
p5892
V:arg4~lip
p5893
tp5894
tp5895
I1
s(V'' :domain/NP is the XXX-NN .
p5896
V:root/ROOT~desert
p5897
(V:domain~this
p5898
tp5899
tp5900
I1
s(V:arg0/NP :mod/ADVP XXX-VBD :direction/PRT , :ord/IN :arg0-of/NP .
p5901
V:root/ROOT~pull-01
p5902
(V:arg0~prince
p5903
V:arg1~shoot
p5904
V:direction~up
p5905
V:mod~also
p5906
tp5907
tp5908
I1
s(V'' :arg1/S , '' XXX-VBD :arg0/NP .
p5909
V:root/ROOT~say-01
p5910
(V:arg0~fox
p5911
V:arg1~fox
p5912
tp5913
tp5914
I1
s(VXXX-RB as :arg0/S i made :arg1/NP :arg2/ADVP .
p5915
V:root/ROOT~contrast-01
p5916
(V:arg1~step-01
p5917
V:arg2~dig-01
p5918
tp5919
tp5920
I1
s(VXXX-IN :mod/ADVP :arg1/NP :arg0/VP .
p5921
V:root/ROOT~cause-01
p5922
(V:arg0~mean-01
p5923
tp5924
tp5925
I1
s(VXXX-VB :arg1/S
p5926
V:root/ROOT~try-01
p5927
(V:arg0~you
p5928
V:arg1~happy-01
p5929
tp5930
tp5931
I1
s(VXXX-CC :op1/S - :arg1/VP .
p5932
V:root/ROOT~and
p5933
(V:op1~go-05
p5934
tp5935
tp5936
I1
s(VXXX-TO :op1/VP , no one :arg1/VP ; :arg1/S .
p5937
V:root/ROOT~and
p5938
(V:op1~sure-02
p5939
V:op2~possible-01
p5940
tp5941
tp5942
I1
s(VXXX-CC :arg0/NP :op2/VP .
p5943
V:root/ROOT~and
p5944
(V:op2~use-01
p5945
tp5946
tp5947
I1
s(V:arg0/NP :snt1/VBD XXX-RB :quant/CD :arg1/NN :consist-of/PP ; :snt2/S ; :snt3/S .
p5948
V:root/ROOT~multi-sentence
p5949
(V:snt1~have-03
p5950
V:snt2~take-up-13
p5951
V:snt3~trouble-01
p5952
tp5953
tp5954
I1
s(V'' :arg1/S , '' XXX-VBD :arg0/NP .
p5955
V:root/ROOT~say-01
p5956
(V:arg0~prince
p5957
V:arg1~fault-01
p5958
tp5959
tp5960
I1
s(V'' :arg2/S , '' XXX-VBD :arg0/NP .
p5961
V:root/ROOT~reply-01
p5962
(V:arg0~fox
p5963
V:arg2~obligate-01
p5964
tp5965
tp5966
I1
s(V:arg1/NP had taken XXX-RB :arg2/NP , and :arg0-of/S .
p5967
V:root/ROOT~serious-01
p5968
(V:arg0-of~make-02
p5969
V:arg0-of~make-02
p5970
V:arg1~he
p5971
V:arg2~word-01
p5972
tp5973
tp5974
I1
s(V:arg1/NP XXX-VBD :mod/ADVP .
p5975
V:root/ROOT~flush-03
p5976
(V:arg1~prince
p5977
V:mod~again
p5978
tp5979
tp5980
I1
s(VXXX-CC :arg0/NP :manner/PP : '' :arg0/S ? ''
p5981
V:root/ROOT~and
p5982
(V:op2~add-01
p5983
tp5984
tp5985
I1
s(V:arg1/NP XXX-VBP :arg2/ADJP .
p5986
V:root/ROOT~become-01
p5987
(V:arg1~you
p5988
V:arg2~responsible-03
p5989
tp5990
tp5991
I1
s(V:arg0/NP XXX-VBD :arg1/NP :manner/PP .
p5992
V:root/ROOT~choose-01
p5993
(V:arg0~she
p5994
V:arg1~color
p5995
V:manner~care-04
p5996
tp5997
tp5998
I1
s(V'' :arg1/SBAR XXX-VBD :arg0/NP , '' is that :location/RB :arg0/SBAR ... ''
p5999
V:root/ROOT~say-01
p6000
(V:arg0~prince
p6001
V:arg1~make-02
p6002
tp6003
tp6004
I1
s(VXXX-CD - :arg2/S .
p6005
V:root/ROOT~equal-01
p6006
(V:arg1~sum-of
p6007
V:arg2~31
p6008
tp6009
tp6010
I1
s(V:time/SBAR XXX-VBD :location/S , :mod/FRAG '' :op1/SBAR , :concession/RB :concession/WHADVP :arg0-of/S ... ''
p6011
V:root/ROOT~say-01
p6012
(V:arg0~i
p6013
V:arg1~move-05
p6014
V:arg2~coref
p6015
V:mod~again
p6016
V:time~open-01
p6017
V:time~open-01
p6018
tp6019
tp6020
I1
s(V:arg0/NP will XXX-VB :time/ADVP :domain/IN :arg1/S .
p6021
V:root/ROOT~understand-01
p6022
(V:arg0~you
p6023
V:arg1~unique
p6024
V:time~now
p6025
tp6026
tp6027
I1
s(V:ord/NP , :quant/NP :time/RB , :arg1/NP was XXX-VBN :ord/IN :arg0/NP .
p6028
V:root/ROOT~disturb-01
p6029
(V:arg0~attack-01
p6030
V:arg1~i
p6031
V:domain~disturb-01
p6032
V:time~before
p6033
tp6034
tp6035
I1
s(V'' and what :arg1/SQ :arg1/. '' :arg0/NP XXX-VBD .
p6036
V:root/MULTI-SENTENCE~ask-01
p6037
(V:arg0~he
p6038
V:arg1~do-02
p6039
tp6040
tp6041
I1
s(VXXX-CC :time-of/ADVP :time/NP :time-of/PP - '' :op2/S . ''
p6042
V:root/ROOT~and
p6043
(V:op1~say-01
p6044
tp6045
tp6046
I1
s(V:arg1/S , XXX-CC :op2/S .
p6047
V:root/ROOT~and
p6048
(V:op1~pass-03
p6049
V:op2~listen-01
p6050
tp6051
tp6052
I1
s(V:arg0/NP had been :degree/RB XXX-JJ :arg1/PP !
p6053
V:root/ROOT~pride-01
p6054
(V:arg0~i
p6055
V:arg1~baobab
p6056
V:degree~so
p6057
tp6058
tp6059
I1
s(V'' XXX-UH . ''
p6060
V:root/ROOT~yes
p6061
g23
tp6062
I3
s(V:arg0/NP :polarity/VBP :polarity/RB XXX-VB :arg1/NP . ''
p6063
V:root/ROOT~permit-01
p6064
(V:arg0~i
p6065
V:arg1~insubordinate-00
p6066
V:polarity~-
p6067
V:polarity~-
p6068
tp6069
tp6070
I1
s(Vthe XXX-NN :arg4-of/SBAR :arg1-of/VP .
p6071
V:root/ROOT~well
p6072
(V:arg1-of~resemble-01
p6073
V:arg4-of~come-01
p6074
tp6075
tp6076
I1
s(VXXX-CC , :op2/PP , :arg1/NP :arg1/VP .
p6077
V:root/ROOT~and
p6078
(V:op2~cause-01
p6079
tp6080
tp6081
I1
s(V:arg0/NP :polarity/VBD :polarity/DT XXX-NN .
p6082
V:root/ROOT~reply-01
p6083
(V:arg0~prince
p6084
V:polarity~-
p6085
V:polarity~-
p6086
tp6087
tp6088
I1
s(V:arg0/NP :snt1/VBD the XXX-NN :mod/ADVP :location/IN :snt1/NP :time/S ; :arg1-of/S .
p6089
V:root/ROOT~multi-sentence
p6090
(V:snt1~reach-01
p6091
V:snt1~reach-01
p6092
V:snt2~face
p6093
tp6094
tp6095
I1
s(V'' :arg1/S , '' XXX-VBD :arg0/NP .
p6096
V:root/ROOT~say-01
p6097
(V:arg0~prince
p6098
V:arg1~interest-01
p6099
tp6100
tp6101
I1
s(V'' :arg1/ADVP , '' XXX-VBD :arg0/NP .
p6102
V:root/ROOT~say-01
p6103
(V:arg0~flower
p6104
V:arg1~goodbye
p6105
tp6106
tp6107
I1
s(V:time/S ... '' XXX-VBD :arg0/NP , :time/NP :arg1-of/ADJP .
p6108
V:root/ROOT~murmur-01
p6109
(V:arg0~prince
p6110
V:arg1~possible-01
p6111
tp6112
tp6113
I1
s(V:arg0/NP had :frequency/ADVP XXX-VBN :arg1/NP .
p6114
V:root/ROOT~see-01
p6115
(V:arg0~flower
p6116
V:arg1~pass-02
p6117
V:frequency~1
p6118
V:frequency~1
p6119
tp6120
tp6121
I1
s(V'' :arg1/S , '' :arg0/NP XXX-VBD :quant/NP :time/ADVP .
p6122
V:root/ROOT~add-01
p6123
(V:arg0~she
p6124
V:arg1~think-01
p6125
V:time~late
p6126
tp6127
tp6128
I1
s(V'' :arg1/S , '' :arg0/NP XXX-VBD .
p6129
V:root/ROOT~say-01
p6130
(V:arg0~he
p6131
V:arg1~resemble-01
p6132
tp6133
tp6134
I1
s(VXXX-CC :location/NP was :op1/NP :location/ADVP , :arg2/CC :arg1/S ...
p6135
V:root/ROOT~contrast-01
p6136
(V:arg2~and
p6137
tp6138
tp6139
I1
s(Vwhat does that XXX-NN - :arg1/VP :arg2/. ''
p6140
V:root/ROOT~mean-01
p6141
(V:arg1~tame-01
p6142
V:arg2~amr-unknown
p6143
tp6144
tp6145
I1
s(V:poss/IN :topic/NP , :arg0/NP XXX-VBD :arg1/NP .
p6146
V:root/ROOT~have-03
p6147
(V:arg0~prince
p6148
V:arg1~idea
p6149
tp6150
tp6151
I1
s(V:arg1/NP were :mod/RB XXX-JJ :arg0/S .
p6152
V:root/ROOT~content-01
p6153
(V:arg0~see-01
p6154
V:arg1~companion
p6155
V:mod~well
p6156
tp6157
tp6158
I1
s(V'' :mod/RB :arg1/NP , '' XXX-VBD :arg0/NP .
p6159
V:root/ROOT~say-01
p6160
(V:arg0~fox
p6161
V:arg1~that
p6162
tp6163
tp6164
I1
s(V:arg1/NP are :degree/RB XXX-JJ :polarity/.
p6165
V:root/ROOT~consistent-01
p6166
(V:arg1~flower
p6167
V:degree~so
p6168
V:polarity~-
p6169
tp6170
tp6171
I1
s(VXXX-IN :arg0/NP , :domain/NP :arg1/VP .
p6172
V:root/ROOT~opine-01
p6173
(V:arg0~scholar
p6174
V:arg1~problem
p6175
tp6176
tp6177
I1
s(V'' :arg1/NP XXX-MD :polarity/RB :arg1/VP .
p6178
V:root/ROOT~possible-01
p6179
(V:arg1~die-01
p6180
V:polarity~-
p6181
tp6182
tp6183
I1
s(V:arg0/NP XXX-VBD :arg2/PP '' :arg1/PP !
p6184
V:root/ROOT~say-01
p6185
(V:arg0~he
p6186
V:arg1~ah
p6187
V:arg2~i
p6188
V:manner~mere
p6189
tp6190
tp6191
I1
s(V:arg0/NP had XXX-VBN :poss/NP :arg1/SBAR .
p6192
V:root/ROOT~tell-01
p6193
(V:arg0~flower
p6194
V:arg1~unique
p6195
V:arg2~coref
p6196
tp6197
tp6198
I1
s(VXXX-VB :duration/PP , :manner/ADVP :location/IN :op1/NP .
p6199
V:root/ROOT~wait-01
p6200
(V:arg1~you
p6201
V:duration~time
p6202
V:location~under
p6203
tp6204
tp6205
I1
s(VXXX-CC , :manner/PP , :arg0/NP :op2/VP .
p6206
V:root/ROOT~and
p6207
(V:op2~look-01
p6208
tp6209
tp6210
I1
s(VXXX-NN :mod/NP .
p6211
V:root/ROOT~chapter
p6212
(V:mod~9
p6213
tp6214
tp6215
I1
s(V:concession/S ; :concession/CC :arg2/NP was :op1/VBN XXX-CC :op2/VBN :extent/IN :arg1/NP .
p6216
V:root/ROOT~and
p6217
(V:concession~look-01
p6218
V:concession~look-01
p6219
V:op1~cram-01
p6220
V:op2~obstruct-01
p6221
tp6222
tp6223
I1
s(V'' :arg1/S , '' :arg0/NP XXX-VBD .
p6224
V:root/ROOT~say-01
p6225
(V:arg0~he
p6226
V:arg1~glad-02
p6227
tp6228
tp6229
I1
s(V'' it is :mod/RB XXX-IN :arg2/S .
p6230
V:root/ROOT~resemble-01
p6231
(V:arg1~it
p6232
V:arg2~flower
p6233
V:mod~just
p6234
tp6235
tp6236
I1
s(VXXX-CC :arg0/NP :arg1/VP . ''
p6237
V:root/ROOT~contrast-01
p6238
(V:arg2~possible-01
p6239
tp6240
tp6241
I1
s(VXXX-WRB have :arg0/NP :mod/ADVP :arg1/VP :arg0/. ''
p6242
V:root/ROOT~cause-01
p6243
(V:arg0~amr-unknown
p6244
V:arg1~put-out-09
p6245
tp6246
tp6247
I1
s(V'' :arg1-of/ADVP , '' XXX-VBD :arg0/NP .
p6248
V:root/ROOT~say-01
p6249
(V:arg0~fox
p6250
V:arg1~morning
p6251
tp6252
tp6253
I1
s(VXXX-CC , :condition/SBAR :op2/VP .
p6254
V:root/ROOT~and
p6255
(V:op2~hurry-01
p6256
tp6257
tp6258
I1
s(V:op1/S , :arg1/CC it is of :arg1/NP to :op2/NP , XXX-WDT :arg0/S .
p6259
V:root/ROOT~cause-01
p6260
(V:arg0~own-01
p6261
V:arg1~use-01
p6262
tp6263
tp6264
I1
s(V'' :domain/S , '' :arg0/NP XXX-VBD :domain/PP , :time/SBAR .
p6265
V:root/ROOT~say-01
p6266
(V:arg0~he
p6267
V:arg1~odd
p6268
V:arg2~coref
p6269
V:time~continue-01
p6270
tp6271
tp6272
I2
s(V'' :purpose/WHADVP are :arg0/NP XXX-VBG :arg2/PP :purpose/. ''
p6273
V:root/ROOT~talk-01
p6274
(V:arg0~you
p6275
V:arg2~snake
p6276
V:purpose~amr-unknown
p6277
V:purpose~amr-unknown
p6278
tp6279
tp6280
I1
s(VXXX-CC :arg0/NP :arg1/VP .
p6281
V:root/ROOT~have-concession-91
p6282
(V:arg1~answer-01
p6283
tp6284
tp6285
I1
s(V'' :arg1/S , '' XXX-VBD :arg0/NP .
p6286
V:root/ROOT~say-01
p6287
(V:arg0~prince
p6288
V:arg1~hurry-01
p6289
tp6290
tp6291
I1
s(V:domain/NP are XXX-JJ .
p6292
V:root/ROOT~naive
p6293
(V:domain~they
p6294
tp6295
tp6296
I1
s(V:arg1/S , '' XXX-VBD :arg0/NP .
p6297
V:root/ROOT~say-01
p6298
(V:arg0~prince
p6299
V:arg1~understand-01
p6300
tp6301
tp6302
I1
s(V:op1/S , XXX-CC :op2/S ... ''
p6303
V:root/ROOT~and
p6304
(V:op1~come-01
p6305
V:op2~sleep-01
p6306
tp6307
tp6308
I1
s(V'' XXX-CC what :op2/SQ :arg1/. ''
p6309
V:root/ROOT~and
p6310
(V:op2~do-02
p6311
tp6312
tp6313
I1
s(VXXX-CC :op2/IN :arg0/S , it :arg1/VP . ''
p6314
V:root/ROOT~and
p6315
(V:op2~cause-01
p6316
tp6317
tp6318
I1
s(V'' :arg1/NP are :polarity/DT XXX-JJR :compared-to/PP ... ''
p6319
V:root/ROOT~thick-03/more
p6320
(V:arg1~you
p6321
V:compared-to~finger
p6322
V:polarity~-
p6323
tp6324
tp6325
I1
s(V:arg1-of/RB then the :ord/JJ XXX-NN was the earth .
p6326
V:root/ROOT~planet
p6327
(V:arg1-of~cause-01
p6328
V:domain~planet/name
p6329
V:ord~ordinal-entity
p6330
tp6331
tp6332
I1
s(V:arg1/JJ XXX-NNS are :arg1-of/IN :arg2/NP .
p6333
V:root/ROOT~erupt-01
p6334
(V:arg1-of~resemble-01
p6335
V:arg1~volcano
p6336
tp6337
tp6338
I1
s(V'' :arg1/NP :arg0/ADVP XXX-VBP ... ''
p6339
V:root/ROOT~do-02
p6340
(V:arg0~you
p6341
V:arg1~anything
p6342
tp6343
tp6344
I1
s(V'' XXX-IN :duration-of/S :duration-of/VP . ''
p6345
V:root/ROOT~pass-03
p6346
(V:arg1~temporal-quantity
p6347
V:duration-of~talk-01
p6348
V:duration-of~talk-01
p6349
tp6350
tp6351
I1
s(V:arg0/NP have :time/ADVP XXX-VBN :arg1/NP .
p6352
V:root/ROOT~love-01
p6353
(V:arg0~i
p6354
V:arg1~desert
p6355
V:time~always
p6356
tp6357
tp6358
I1
s(VXXX-CC :domain/NP :arg2/VP . ''
p6359
V:root/ROOT~contrast-01
p6360
(V:arg2~consequence
p6361
tp6362
tp6363
I1
s(VXXX-CC :time/ADVP :arg0/NP :op1/VP : '' :op2/PRN .
p6364
V:root/ROOT~and
p6365
(V:op1~add-01
p6366
tp6367
tp6368
I1
s(V'' and XXX-RB :arg1/NP :arg1/VP . ''
p6369
V:root/ROOT~contrast-01
p6370
(V:arg2~possible-01
p6371
tp6372
tp6373
I1
s(V'' :duration/PP :arg1-of/VBP been XXX-VBN :arg1-of/NP-TMP .
p6374
V:root/ROOT~disturb-01
p6375
(V:arg1-of~have-frequency-91
p6376
V:arg1-of~have-frequency-91
p6377
V:arg1~i
p6378
V:time~inhabit-01
p6379
tp6380
tp6381
I1
s(VXXX-CC is it :polarity/RB :op1/DT matter :arg1/PP :arg0/S ?
p6382
V:root/ROOT~and
p6383
(V:op1~have-03
p6384
tp6385
tp6386
I1
s(V'' no , XXX-DT no :quant/.
p6387
V:root/ROOT~no
p6388
(V:quant~3
p6389
tp6390
tp6391
I1
s(V:polarity/VBP :polarity/RB :arg0/NP XXX-VBP - - :arg1/S :arg0-of/. ''
p6392
V:root/ROOT~see-01
p6393
(V:arg0~you
p6394
V:arg1~busy-01
p6395
V:polarity~-
p6396
V:polarity~-
p6397
tp6398
tp6399
I1
s(V:arg0/NP :op1/VP , XXX-CC :arg1/VP .
p6400
V:root/ROOT~and
p6401
(V:op1~sputter-01
p6402
V:op2~seem-01
p6403
tp6404
tp6405
I1
s(V:arg1/NP XXX-MD :arg2/VP ... ''
p6406
V:root/ROOT~obligate-01
p6407
(V:arg1~one
p6408
V:arg2~observe-01
p6409
tp6410
tp6411
I1
s(Vit XXX-VBZ :arg2/PP
p6412
V:root/ROOT~seem-01
p6413
(V:arg1~favorable
p6414
V:arg2~i
p6415
tp6416
tp6417
I1
s(VXXX-CC :arg0/NP :arg2/VP .
p6418
V:root/ROOT~contrast-01
p6419
(V:arg2~answer-01
p6420
tp6421
tp6422
I1
s(V:time/ADVP :arg0/NP XXX-VB :arg1/VP : :arg1/S :mod/.
p6423
V:root/ROOT~keep-02
p6424
(V:arg1~wonder-01
p6425
V:time~now
p6426
tp6427
tp6428
I1
s(VXXX-CC :arg1/NP :op2/VP .
p6429
V:root/ROOT~and
p6430
(V:op2~and
p6431
tp6432
tp6433
I1
s(V:arg0/NP XXX-VBD :arg1/NP .
p6434
V:root/ROOT~clap-01
p6435
(V:arg0~prince
p6436
V:arg1~hand
p6437
tp6438
tp6439
I1
s(V:arg0/NP will XXX-VB :arg1/SBAR , :location/PP .
p6440
V:root/ROOT~see-01
p6441
(V:arg0~you
p6442
V:arg1~begin-01
p6443
tp6444
tp6445
I1
s(V:arg0/NP XXX-VBP :arg1/NP :arg1-of/CC :arg2/VP .
p6446
V:root/ROOT~have-03
p6447
(V:arg0~you
p6448
V:arg1~nothing
p6449
tp6450
tp6451
I1
s(Vfor :arg0/NP :polarity/VBD :polarity/RB XXX-VB :arg1/S .
p6452
V:root/ROOT~want-01
p6453
(V:arg0~she
p6454
V:arg1~see-01
p6455
V:polarity~-
p6456
V:polarity~-
p6457
tp6458
tp6459
I1
s(VXXX-CC :arg0/NP :arg2/VP : '' :duration/PRN ... :arg1/S ... ''
p6460
V:root/ROOT~contrast-01
p6461
(V:arg2~say-01
p6462
tp6463
tp6464
I1
s(V'' what are :arg0/NP XXX-VBG for :arg1/. ''
p6465
V:root/ROOT~look-01
p6466
(V:arg0~they
p6467
V:arg1~amr-unknown
p6468
tp6469
tp6470
I1
s(V'' :arg0-of/NP :time/ADVP is a XXX-NN :arg0-of/SBAR ! ''
p6471
V:root/ROOT~man
p6472
(V:arg0-of~have-03
p6473
V:arg0-of~have-03
p6474
V:time~at-last
p6475
tp6476
tp6477
I1
s(V'' :arg1/S , '' XXX-VBD :arg0/NP .
p6478
V:root/ROOT~say-01
p6479
(V:arg0~geographer
p6480
V:arg1~possible-01
p6481
tp6482
tp6483
I2
s(VXXX-VB :direction/PRT :direction/IN :arg1/NP .
p6484
V:root/ROOT~look-01
p6485
(V:arg0~you
p6486
V:arg1~sky
p6487
V:direction~up
p6488
V:direction~up
p6489
tp6490
tp6491
I1
s(V'' :arg2/S , '' XXX-VBD :arg0/NP .
p6492
V:root/ROOT~say-01
p6493
(V:arg0~snake
p6494
V:arg1~contrast-01
p6495
tp6496
tp6497
I1
s(V:op1/S ; XXX-CC :mod/ADVP i :arg2/VP .
p6498
V:root/ROOT~contrast-01
p6499
(V:arg1~and
p6500
V:arg2~understand-01
p6501
tp6502
tp6503
I1
s(V:arg1/NP :degree/ADVP XXX-VBD :arg1-of/PRT , :arg1-of/SBAR .
p6504
V:root/ROOT~sit-down-02
p6505
(V:arg1-of~cause-01
p6506
V:arg1-of~cause-01
p6507
V:arg1~i
p6508
tp6509
tp6510
I1
s(Vso , :mod/ADVP , :arg0/NP XXX-VBD :degree/RB :arg1-of/RB :arg1/S .
p6511
V:root/ROOT~begin-01
p6512
(V:arg0~she
p6513
V:arg1-of~quick-02
p6514
V:arg1~torment-01
p6515
V:mod~too
p6516
tp6517
tp6518
I1
s(V'' :arg0/NP XXX-VBP :arg1/NP .
p6519
V:root/ROOT~know-02
p6520
(V:arg0~i
p6521
V:arg1~planet
p6522
tp6523
tp6524
I1
s(V:arg0/NP made a XXX-NN :arg1/PP .
p6525
V:root/ROOT~gesture-01
p6526
(V:arg0~i
p6527
V:arg1~weary-01
p6528
tp6529
tp6530
I1
s(VXXX-CC :arg0/NP :op2/VP .
p6531
V:root/ROOT~and
p6532
(V:op2~know-01
p6533
tp6534
tp6535
I1
s(VXXX-CC :arg0/NP :arg2/VP , and :arg1/S . ''
p6536
V:root/ROOT~contrast-01
p6537
(V:arg2~make-01
p6538
tp6539
tp6540
I1
s(V'' :arg1/S , '' XXX-VBD :arg0/NP :arg1-of/IN of :arg0/NP . ''
p6541
V:root/ROOT~say-01
p6542
(V:arg0~fox
p6543
V:arg1~do-02
p6544
tp6545
tp6546
I1
s(VXXX-CD - :arg2/S .
p6547
V:root/ROOT~equal-01
p6548
(V:arg1~sum-of
p6549
V:arg2~28
p6550
tp6551
tp6552
I1
s(V:mod/NP :arg0-of/ADJP XXX-NNS . ''
p6553
V:root/ROOT~object
p6554
(V:arg0-of~glitter-01
p6555
V:mod~little
p6556
tp6557
tp6558
I1
s(V'' :arg1/ADVP , '' XXX-VBD :arg0/NP .
p6559
V:root/ROOT~say-01
p6560
(V:arg0~fox
p6561
V:arg1~goodbye
p6562
tp6563
tp6564
I1
s(Vare there XXX-NNS ? ''
p6565
V:root/ROOT~chicken
p6566
g23
tp6567
I1
s(V:arg0/NP XXX-VBD :arg1/PP :arg1-of/PP .
p6568
V:root/ROOT~gaze-01
p6569
(V:arg0~prince
p6570
V:arg1-of~long-03
p6571
V:arg1~he
p6572
tp6573
tp6574
I1
s(VXXX-CC :arg0/NP :op1/VP ... and :op2/S :arg1/.
p6575
V:root/ROOT~and
p6576
(V:op1~open-01
p6577
V:op2~astonish-01
p6578
tp6579
tp6580
I1
s(VXXX-CC :arg0/NP :arg2/VP .
p6581
V:root/ROOT~contrast-01
p6582
(V:arg2~reply-01
p6583
tp6584
tp6585
I1
s(V:arg1/NP was XXX-DT :mod/JJ :arg2/NN !
p6586
V:root/ROOT~resemble-01
p6587
(V:arg1~she
p6588
V:arg2~creature
p6589
tp6590
tp6591
I1
s(V'' XXX-CC :domain/ADVP :arg2/VP ! ''
p6592
V:root/ROOT~contrast-01
p6593
(V:arg2~man
p6594
tp6595
tp6596
I1
s(V:arg1/NP was :degree/ADVP XXX-VBN :arg0-of/IN :arg1/S .
p6597
V:root/ROOT~occupy-01
p6598
(V:arg0-of~cause-01
p6599
V:arg1~man
p6600
V:degree~much
p6601
tp6602
tp6603
I1
s(VXXX-CC , :arg0/PP , :arg0/NP :op1/VP .
p6604
V:root/ROOT~contrast-01
p6605
(V:arg2~and
p6606
tp6607
tp6608
I1
s(Vin the XXX-NN :arg1/NP :arg3-of/VP - - ''
p6609
V:root/ROOT~location
p6610
(V:arg3-of~come-01
p6611
tp6612
tp6613
I1
s(V:arg0/NP XXX-VBD :arg1/PP , :arg1-of/PP .
p6614
V:root/ROOT~gaze-01
p6615
(V:arg0~fox
p6616
V:arg1-of~long-03
p6617
V:arg1~prince
p6618
tp6619
tp6620
I1
s(V:arg0/NP :op1/VBD :arg1/NP over , XXX-CC :op2/VP '' :arg0/NP - - they :arg1/VP . ''
p6621
V:root/ROOT~and
p6622
(V:op1~look-01
p6623
V:op2~laugh-01
p6624
tp6625
tp6626
I1
s(V:arg0/NP :mod/ADVP XXX-VBD :arg2/PP '' :arg1/NP
p6627
V:root/ROOT~say-01
p6628
(V:arg0~he
p6629
V:arg1~possible-01
p6630
V:arg2~i
p6631
V:mod~mere
p6632
tp6633
tp6634
I1
s(V'' :arg0/NP shall :polarity/RB XXX-VB :arg1/NP . ''
p6635
V:root/ROOT~leave-15
p6636
(V:arg0~i
p6637
V:arg1~you
p6638
V:polarity~-
p6639
tp6640
tp6641
I2
s(V:op1/S , XXX-CC :op2/S ... ''
p6642
V:root/ROOT~and
p6643
(V:op1~have-03
p6644
V:op2~have-03
p6645
tp6646
tp6647
I1
s(V:arg0/S , :arg1-of/S , XXX-NN :arg2/PP .
p6648
V:root/ROOT~trust-01
p6649
(V:arg0~you
p6650
V:arg1-of~know-01
p6651
V:arg2~i
p6652
tp6653
tp6654
I1
s(VXXX-CC , :time/IN :op1/NP , :op2/S : '' :arg1/S . ''
p6655
V:root/ROOT~and
p6656
(V:op2~speak-01
p6657
tp6658
tp6659
I1
s(V:op1/S , XXX-CC :op2/S .
p6660
V:root/ROOT~and
p6661
(V:op1~appear-01
p6662
V:op2~fade-01
p6663
tp6664
tp6665
I1
s(V'' yes , XXX-DT XXX-NN .
p6666
V:root/ROOT~temporal-quantity
p6667
g23
tp6668
I1
s(VXXX-CC :arg2-of/NP :op1/VP .
p6669
V:root/ROOT~and
p6670
(V:op1~last-01
p6671
tp6672
tp6673
I1
s(V:arg0/NP will XXX-VB :direction/S .
p6674
V:root/ROOT~bring-01
p6675
(V:arg0~grain
p6676
V:arg1~think-01
p6677
V:arg2~i
p6678
V:direction~back
p6679
tp6680
tp6681
I1
s(V:arg0/NP XXX-VBD :conj-as-if/NP ...
p6682
V:root/ROOT~feel-01
p6683
(V:arg0~i
p6684
V:arg1~need-01
p6685
tp6686
tp6687
I1
s(V:arg0/LS XXX-NN :arg1/S ! ''
p6688
V:root/ROOT~love-01
p6689
(V:arg0~i
p6690
V:arg1~hear-01
p6691
tp6692
tp6693
I1
s(V:location/PP :arg0/NP XXX-VBD :arg1/NP ; :time/S ... ''
p6694
V:root/ROOT~have-03
p6695
(V:arg0~i
p6696
V:arg1~flower
p6697
V:location~planet
p6698
tp6699
tp6700
I1
s(VXXX-CC :arg0/NP :op2/VP .
p6701
V:root/ROOT~and
p6702
(V:op2~give-01
p6703
tp6704
tp6705
I1
s(V'' :op1/S , '' :arg0/NP XXX-VBD to himself , '' :condition/SBAR .
p6706
V:root/ROOT~say-01
p6707
(V:arg0~he
p6708
V:arg1~and
p6709
V:arg2~coref
p6710
tp6711
tp6712
I1
s(Vbut :arg0/NP , :arg0-of/S , had :polarity/DT XXX-NN :arg1/S .
p6713
V:root/ROOT~wish-01
p6714
(V:arg0~prince
p6715
V:arg1~grieve-01
p6716
V:polarity~-
p6717
V:polarity~-
p6718
tp6719
tp6720
I1
s(V'' XXX-VBZ :arg0/NP :arg1/NP ? ''
p6721
V:root/ROOT~have-03
p6722
(V:arg0~it
p6723
V:arg1~ocean
p6724
tp6725
tp6726
I1
s(V'' :time/S , '' XXX-VBD :arg0/NP .
p6727
V:root/ROOT~say-01
p6728
(V:arg0~switchman
p6729
V:arg1~satisfy-01
p6730
tp6731
tp6732
I1
s(V:arg0/LS XXX-VBN , '' :arg1/VP :arg1/NP . ''
p6733
V:root/ROOT~answer-01
p6734
(V:arg0~i
p6735
V:arg1~eat-01
p6736
tp6737
tp6738
I1
s(VXXX-CC :arg0/NP :op2/VP .
p6739
V:root/ROOT~and
p6740
(V:op2~laugh-01
p6741
tp6742
tp6743
I4
s(V:domain/NP am :degree/RB XXX-JJ .
p6744
V:root/ROOT~old
p6745
(V:degree~very
p6746
V:domain~i
p6747
tp6748
tp6749
I1
s(V:arg0/NP XXX-VBP that :domain/NP ''
p6750
V:root/ROOT~believe-01
p6751
(V:arg0~they
p6752
V:arg1~weapon
p6753
tp6754
tp6755
I1
s(VXXX-CC he is :polarity/RB :op1/NP - - :domain/NP :op2/VP :arg2/. ''
p6756
V:root/ROOT~contrast-01
p6757
(V:arg2~and
p6758
tp6759
tp6760
I1
s(V'' :arg1/S , '' XXX-VBD :arg0/NP .
p6761
V:root/ROOT~say-01
p6762
(V:arg0~prince
p6763
V:arg1~thirst-01
p6764
tp6765
tp6766
I1
s(V:snt1/NP XXX-RB :snt1/VP ; :snt2/S .
p6767
V:root/ROOT~multi-sentence
p6768
(V:snt1~hesitate-01
p6769
V:snt1~hesitate-01
p6770
V:snt2~get-05
p6771
tp6772
tp6773
I1
s(VXXX-RB :domain/NP :arg1/VP .
p6774
V:root/ROOT~have-concession-91
p6775
(V:arg1~seem-01
p6776
tp6777
tp6778
I1
s(V:arg1/NP took one XXX-NN .
p6779
V:root/ROOT~step-01
p6780
(V:arg1~he
p6781
tp6782
tp6783
I1
s(V'' :arg2/S , '' XXX-VBD :arg0/NP , :manner/ADVP , :time/SBAR :frequency/RB :mod/RBR .
p6784
V:root/ROOT~say-01
p6785
(V:arg0~prince
p6786
V:arg1~obligate-01
p6787
V:manner~soft
p6788
V:time~sit-down-02
p6789
tp6790
tp6791
I1
s(V'' i am :arg1/ADJP , '' :arg0/NP XXX-VBN , :arg1-of/SBAR .
p6792
V:root/ROOT~repeat-01
p6793
(V:arg0~prince
p6794
V:arg1~responsible-03
p6795
V:purpose~remember-01
p6796
V:purpose~remember-01
p6797
tp6798
tp6799
I1
s(VXXX-CC :time/ADVP :op2/SBAR
p6800
V:root/ROOT~and
p6801
(V:op2~and
p6802
V:time~then
p6803
tp6804
tp6805
I1
s(V:arg0/NP are objects of XXX-NN .
p6806
V:root/ROOT~curious-01
p6807
(V:arg0~yawn-01
p6808
V:arg1~i
p6809
tp6810
tp6811
I1
s(V:time/ADVP , XXX-RB - - '' it is :mod/ADVP :op1/ADJP ... :op2/S ... ''
p6812
V:root/ROOT~say-01
p6813
(V:arg1~and
p6814
V:manner~sad-02
p6815
V:time~then
p6816
tp6817
tp6818
I1
s(V:arg1/NP XXX-VBP :arg1/ADVP :arg2/S !
p6819
V:root/ROOT~obligate-01
p6820
(V:arg1~i
p6821
V:arg2~do-02
p6822
tp6823
tp6824
I1
s(V'' :quant/NP :mod/ADVP :arg0/NP XXX-NN :time/PP :arg1/VP . ''
p6825
V:root/ROOT~love-01
p6826
(V:arg0~i
p6827
V:arg1~sleep-01
p6828
V:time~live-01
p6829
tp6830
tp6831
I1
s(V:op1/S , XXX-CC :op2/S .
p6832
V:root/ROOT~and
p6833
(V:op1~question-01
p6834
V:op2~note-02
p6835
tp6836
tp6837
I1
s(V:time/PP :arg1/NP was XXX-JJ .
p6838
V:root/ROOT~reasonable-02
p6839
(V:arg1~it
p6840
V:time~day
p6841
tp6842
tp6843
I1
s(VXXX-CC :arg1/NP :op2/VP !
p6844
V:root/ROOT~and
p6845
(V:op2~weak-02
p6846
tp6847
tp6848
I1
s(V'' :arg0/NP XXX-VBP there are :op1/CD :quant/CC :op2/CD :arg1/PP :arg1/PP .
p6849
V:root/ROOT~think-01
p6850
(V:arg0~i
p6851
V:arg1~exist-01
p6852
tp6853
tp6854
I1
s(V'' :arg1/S , '' XXX-VBD :arg0/NP . ''
p6855
V:root/ROOT~say-01
p6856
(V:arg0~prince
p6857
V:arg1~know-02
p6858
tp6859
tp6860
I1
s(V:op1/S - - XXX-CC :op2/S .
p6861
V:root/ROOT~and
p6862
(V:op1~drop-01
p6863
V:op2~leap-03
p6864
tp6865
tp6866
I1
s(V:arg0/NP XXX-VBD :arg1/NP :arg1-of/S ...
p6867
V:root/ROOT~feel-01
p6868
(V:arg0~i
p6869
V:arg1~heart
p6870
tp6871
tp6872
I1
s(V:domain/NP is of :polarity/DT XXX-NN .
p6873
V:root/ROOT~important
p6874
(V:domain~that
p6875
V:polarity~-
p6876
tp6877
tp6878
I1
s(V:arg0/NP XXX-VBD :degree/RB :degree/RB :polarity/SBAR .
p6879
V:root/ROOT~know-01
p6880
(V:arg0~i
p6881
V:arg1~possible-01
p6882
V:degree~well
p6883
V:degree~well
p6884
tp6885
tp6886
I1
s(V:time/SBAR , :arg0/NP XXX-VBZ :op2/NP :arg2/S .
p6887
V:root/ROOT~send-02
p6888
(V:arg0~he
p6889
V:arg1~or
p6890
V:arg2~sleep-01
p6891
V:time~put-out-09
p6892
tp6893
tp6894
I1
s(V'' XXX-CC :time/ADVP :arg1/NP :time/VP :arg1-of/PRN :arg1/S .
p6895
V:root/ROOT~and
p6896
(V:op2~content-01
p6897
tp6898
tp6899
I1
s(V'' :arg0/S XXX-CC :arg1/S ; and :op2/S ... ''
p6900
V:root/ROOT~and
p6901
(V:op1~cause-01
p6902
V:op2~cry-02
p6903
tp6904
tp6905
I1
s(V:arg0/NP XXX-MD :arg1/VP .
p6906
V:root/ROOT~possible-01
p6907
(V:arg1~judge-01
p6908
tp6909
tp6910
I1
s(V:condition/SBAR , :polite/VB XXX-NN :arg1/NP .
p6911
V:root/ROOT~comfort-01
p6912
(V:arg0~you
p6913
V:arg1~i
p6914
V:condition~this
p6915
V:polite~+
p6916
tp6917
tp6918
I1
s(V'' :arg1-of/WHADVP :arg1/SQ :arg0/. '' XXX-VBD :arg0/NP .
p6919
V:root/MULTI-SENTENCE~ask-01
p6920
(V:arg0~prince
p6921
V:arg1~that
p6922
tp6923
tp6924
I1
s(V'' :arg0/NP :time/MD be :mod/RB :degree/RBR XXX-JJ :time/NP-TMP ... ''
p6925
V:root/ROOT~fear-01
p6926
(V:arg0~i
p6927
V:degree~more
p6928
V:time~date-entity
p6929
V:time~date-entity
p6930
tp6931
tp6932
I1
s(V:location/PP , :arg2/PP , there was XXX-NN :mod/PP ...
p6933
V:root/ROOT~nobody
p6934
(V:location~side
p6935
V:mod~at-all
p6936
tp6937
tp6938
I1
s(V:arg0/NP shall XXX-VB :arg2/NP .
p6939
V:root/ROOT~command-02
p6940
(V:arg0~i
p6941
V:arg2~it
p6942
tp6943
tp6944
I1
s(V'' :op1/CD :arg1/CC :op2/CD XXX-VBP :arg2/NP .
p6945
V:root/ROOT~equal-01
p6946
(V:arg1~sum-of
p6947
V:arg2~5
p6948
tp6949
tp6950
I1
s(VXXX-IN :arg0/S .
p6951
V:root/ROOT~cause-01
p6952
(V:arg0~rose
p6953
tp6954
tp6955
I1
s(V'' :arg1/S , '' :arg0/NP XXX-VBN :manner/PRT , :manner/ADVP .
p6956
V:root/ROOT~call-07
p6957
(V:arg0~king
p6958
V:arg1~make-02
p6959
V:manner~hasty
p6960
V:manner~hasty
p6961
tp6962
tp6963
I1
s(Vis :domain/NP :polarity/RB XXX-JJ ?
p6964
V:root/ROOT~important
p6965
(V:domain~war-01
p6966
V:domain~war-01
p6967
V:polarity~-
p6968
tp6969
tp6970
I1
s(V'' XXX-NNS ? ''
p6971
V:root/ROOT~bee
p6972
g23
tp6973
I1
s(Vlet :arg0/NP XXX-VB :arg1/PP ''
p6974
V:root/ROOT~look-01
p6975
(V:arg0~we
p6976
V:arg1~well
p6977
tp6978
tp6979
I1
s(V'' :arg0/NP has :polarity/DT XXX-NN :arg1/PP , ''
p6980
V:root/ROOT~possible-01
p6981
(V:arg1~guess-01
p6982
V:polarity~-
p6983
tp6984
tp6985
I1
s(V'' :arg2/NP , '' :arg0/NP XXX-VBD to him , '' i :arg1/VP ''
p6986
V:root/ROOT~say-01
p6987
(V:arg0~he
p6988
V:arg1~beg-01
p6989
V:arg2~person
p6990
tp6991
tp6992
I1
s(V'' :domain/PP is the XXX-NN .
p6993
V:root/ROOT~mountain
p6994
(V:domain~thing
p6995
tp6996
tp6997
I1
s(V:arg1-of/JJ XXX-NN .
p6998
V:root/ROOT~morning
p6999
(V:arg1-of~good-02
p7000
tp7001
tp7002
I1
s(V'' :arg0/NP do n't XXX-VB :arg1/SBAR . ''
p7003
V:root/ROOT~know-01
p7004
(V:arg0~i
p7005
V:arg1~draw-01
p7006
tp7007
tp7008
I1
s(V:arg2-of/PRP$ XXX-NN :arg2-of/VP .
p7009
V:root/ROOT~look-01
p7010
(V:arg0~he
p7011
V:arg1-of~resemble-01
p7012
V:arg2-of~serious-01
p7013
V:arg2-of~serious-01
p7014
tp7015
tp7016
I1
s(VXXX-CC :arg0/NP :op2/VP .
p7017
V:root/ROOT~and
p7018
(V:op2~feel-02
p7019
tp7020
tp7021
I1
s(VXXX-NNS - - they :mod/VP .
p7022
V:root/ROOT~snake
p7023
(V:mod~creature
p7024
tp7025
tp7026
I1
s(VXXX-CC :arg0/NP :op2/VP : '' :arg2/S .
p7027
V:root/ROOT~and
p7028
(V:op2~add-01
p7029
tp7030
tp7031
I1
s(V:arg0/NP are :arg1/PRP$ :mod/JJ XXX-NNS .
p7032
V:root/ROOT~interest-01
p7033
(V:arg0~this
p7034
V:arg1~they
p7035
V:mod~only
p7036
tp7037
tp7038
I1
s.