(dp1
((VXXX-DT
p2
S'active'
p3
tp4
V:root
p5
S'empty'
p6
tp7
I4
s((V:arg0 XXX-VB :arg1-of :arg1-of :arg1
p8
Vactive
p9
tp10
V:root
p11
(V:arg0
p12
V:arg1
p13
V:arg1-of
p14
V:arg1-of
p15
tp16
tp17
I1
s((V:op2 :arg1 :arg2 :arg0 :op1 XXX-RP :arg1 :mod
p18
g3
tp19
V:root
p20
(V:op1
p21
V:op2
p22
tp23
tp24
I1
s((V:arg1 are :mod :mod XXX-VB
p25
Vactive
p26
tp27
V:root
p28
(V:arg1
p29
V:mod
p30
tp31
tp32
I1
s((V:arg1-of are XXX-VB :direction :time :instrument
p33
Vactive
p34
tp35
V:root
p36
(V:arg1
p37
V:direction
p38
V:instrument
p39
V:time
p40
tp41
tp42
I1
s((V:arg0 am XXX-VB :arg1 :arg2
p43
Vactive
p44
tp45
V:root
p46
(V:arg0
p47
V:arg1
p48
tp49
tp50
I1
s((Vand :arg0 will XXX-VB :degree :arg1
p51
Vactive
p52
tp53
V:root
p54
(V:arg0
p55
V:arg1
p56
tp57
tp58
I1
s((V:arg1-of , :arg0 XXX-VB :manner
p59
Vactive
p60
tp61
V:root
p62
(V:arg0
p63
V:arg1
p64
V:manner
p65
tp66
tp67
I1
s((V:domain :arg0-of XXX-.
p68
g3
tp69
V:root
p70
(V:arg0-of
p71
V:domain
p72
tp73
tp74
I1
s((Vis :domain :polarity XXX-JJ
p75
g3
tp76
V:root
p77
(V:domain
p78
V:domain
p79
V:polarity
p80
tp81
tp82
I1
s((Vwhat does :arg1 XXX-VB :arg2
p83
Vactive
p84
tp85
V:root
p86
(V:arg1
p87
V:arg2
p88
tp89
tp90
I1
s((V:arg1 , XXX-VB :arg0 , :arg1-of
p91
Vactive
p92
tp93
V:root
p94
(V:arg0
p95
V:arg1
p96
V:arg1-of
p97
tp98
tp99
I1
s((VXXX-RB , :arg1 :arg2
p100
g3
tp101
V:root
p102
(V:arg2
p103
tp104
tp105
I1
s((Vand , :manner , :arg0 XXX-VB :arg1
p106
Vactive
p107
tp108
V:root
p109
(V:arg0
p110
V:arg1
p111
V:manner
p112
tp113
tp114
I1
s((V:arg0 XXX-VB :op1 , :arg1 :op2
p115
Vactive
p116
tp117
V:root
p118
(V:arg0
p119
V:arg1
p120
tp121
tp122
I1
s((V:arg0 XXX-VB :arg0 :arg1-of :arg2
p123
Vactive
p124
tp125
V:root
p126
(V:arg0
p127
V:arg1
p128
V:time
p129
tp130
tp131
I1
s((VXXX-CC :arg1 :arg2 it is :arg1 :arg1
p132
g3
tp133
V:root
p134
(V:arg2
p135
tp136
tp137
I1
s((Vfive hundred XXX-CC :op1 :arg1
p138
g3
tp139
V:root
p140
(V:op1
p141
V:op2
p142
tp143
tp144
I1
s((V:arg0 XXX-VB :mod :arg1-of :arg2
p145
Vactive
p146
tp147
V:root
p148
(V:arg0
p149
V:arg1-of
p150
tp151
tp152
I1
s((VXXX-RB :arg0 will depend :poss :arg1
p153
g3
tp154
V:root
p155
(V:arg0
p156
V:arg1
p157
tp158
tp159
I1
s((V:domain :arg1 would :arg0 :arg1 :arg0 XXX-VB
p160
Vactive
p161
tp162
V:root
p163
(V:arg0
p164
V:arg1
p165
tp166
tp167
I1
s((VXXX-CC :arg0 :polarity
p168
g3
tp169
V:root
p170
(V:arg2
p171
tp172
tp173
I1
s((V:location :arg0 XXX-VB :arg1 :time
p174
Vactive
p175
tp176
V:root
p177
(V:arg0
p178
V:arg1
p179
V:location
p180
tp181
tp182
I1
s((Vthe :arg1 :arg2 XXX-NN are they
p183
g3
tp184
V:root
p185
(V:arg1
p186
V:arg2
p187
tp188
tp189
I1
s((V:arg0 XXX-VB :manner
p190
Vactive
p191
tp192
V:root
p193
(V:arg0
p194
V:arg1
p195
V:arg4
p196
V:arg5
p197
V:manner
p198
tp199
tp200
I1
s((VXXX-CC :condition :arg0 , then :arg0 :arg2
p201
g3
tp202
V:root
p203
(V:arg2
p204
tp205
tp206
I1
s((V:arg1 XXX-VB , ' which :arg1-of '
p207
Vactive
p208
tp209
V:root
p210
(V:arg1
p211
V:arg2
p212
tp213
tp214
I1
s((V:arg1 XXX-VB :arg1-of
p215
Vactive
p216
tp217
V:root
p218
(V:arg1
p219
V:arg1-of
p220
tp221
tp222
I1
s((Vthe XXX-NN :arg2
p223
g3
tp224
V:root
p225
(V:arg2
p226
tp227
tp228
I1
s((V:arg0 XXX-VB :arg1 :mod :purpose
p229
Vactive
p230
tp231
V:root
p232
(V:arg0
p233
V:arg1
p234
V:mod
p235
V:purpose
p236
tp237
tp238
I1
s((V:mod :arg0-of XXX-NN
p239
g3
tp240
V:root
p241
(V:arg0-of
p242
V:mod
p243
tp244
tp245
I1
s((V:condition , it is :arg1-of to XXX-VB :time :arg1
p246
Vactive
p247
tp248
V:root
p249
(V:arg1
p250
V:arg1-of
p251
V:condition
p252
tp253
tp254
I1
s((V:domain , :arg0 XXX-VB :domain , :time
p255
Vactive
p256
tp257
V:root
p258
(V:arg0
p259
V:arg1
p260
V:time
p261
tp262
tp263
I2
s((V:op1 :time , :source :source :arg1-of :source :mod :source where , :arg2 XXX-CC :op2 :arg1
p264
g3
tp265
V:root
p266
(V:op1
p267
V:op2
p268
tp269
tp270
I1
s((V:time :arg1 am XXX-JJ
p271
Vactive
p272
tp273
V:root
p274
(V:arg1
p275
V:time
p276
tp277
tp278
I1
s((V:arg0 will XXX-VB to :arg1 :accompanier
p279
Vactive
p280
tp281
V:root
p282
(V:arg0
p283
V:arg1
p284
tp285
tp286
I1
s((V:mod :arg0 , :arg0 XXX-VB :arg2
p287
Vactive
p288
tp289
V:root
p290
(V:arg0
p291
V:arg1
p292
tp293
tp294
I1
s((V:domain is the :mod XXX-CD :arg1-of
p295
g3
tp296
V:root
p297
(V:arg1-of
p298
V:domain
p299
V:mod
p300
tp301
tp302
I1
s((V:time :arg1 will XXX-VB :direction :direction :unit :example :time :location
p303
Vactive
p304
tp305
V:root
p306
(V:arg1
p307
V:direction
p308
V:direction
p309
V:example
p310
V:location
p311
V:time
p312
V:time
p313
tp314
tp315
I1
s((V:arg0 are :arg1 :mod XXX-NN
p316
g3
tp317
V:root
p318
(V:arg0
p319
V:arg1
p320
V:mod
p321
tp322
tp323
I1
s((VXXX-CC :arg1 :arg3
p324
g3
tp325
V:root
p326
(V:op2
p327
tp328
tp329
I2
s((V:arg0 XXX-VB :arg1 :time
p330
Vactive
p331
tp332
V:root
p333
(V:arg0
p334
V:arg1
p335
V:time
p336
tp337
tp338
I1
s((V:arg0 :manner XXX-VB out :arg1
p339
Vactive
p340
tp341
V:root
p342
(V:arg0
p343
V:arg1
p344
V:manner
p345
tp346
tp347
I1
s((VXXX-VB :arg0
p348
Vactive
p349
tp350
V:root
p351
(V:arg0
p352
V:arg1
p353
tp354
tp355
I1
s((V:arg1 are :polarity XXX-JJR :compared-to
p356
g3
tp357
V:root
p358
(V:arg1
p359
V:compared-to
p360
V:polarity
p361
tp362
tp363
I1
s((V:arg1 :op1 XXX-CC :op2
p364
g3
tp365
V:root
p366
(V:op1
p367
V:op2
p368
tp369
tp370
I1
s((V:arg1 XXX-VB :arg2 :arg1-of , :arg1 :arg1-of
p371
Vactive
p372
tp373
V:root
p374
(V:arg1
p375
V:arg2
p376
tp377
tp378
I1
s((Vthere is :polarity XXX-NN :duration :manner
p379
g3
tp380
V:root
p381
(V:duration
p382
V:duration
p383
V:polarity
p384
V:purpose
p385
tp386
tp387
I1
s((V:arg0 XXX-VB :arg0 :arg1
p388
Vactive
p389
tp390
V:root
p391
(V:arg0
p392
V:arg1
p393
tp394
tp395
I1
s((V:domain was XXX-JJ
p396
Vactive
p397
tp398
V:root
p399
(V:domain
p400
tp401
tp402
I1
s((V:condition :arg1 , :arg0 XXX-VB , he :arg1
p403
Vactive
p404
tp405
V:root
p406
(V:arg0
p407
V:arg1
p408
tp409
tp410
I1
s((V:arg1 , :arg0 XXX-VB , :arg2 they are :polarity :arg2
p411
Vactive
p412
tp413
V:root
p414
(V:arg0
p415
V:arg2
p416
tp417
tp418
I1
s((Vi am :polarity :degree :arg1 , :arg0 XXX-VB on , :arg1 :arg2
p419
Vactive
p420
tp421
V:root
p422
(V:arg0
p423
V:arg1
p424
tp425
tp426
I1
s((VXXX-CC :arg0 :op1
p427
g3
tp428
V:root
p429
(V:op2
p430
tp431
tp432
I1
s((V:arg2 :arg2 XXX-VB you :arg1 :arg1
p433
Vactive
p434
tp435
V:root
p436
(V:arg1
p437
V:arg2
p438
tp439
tp440
I1
s((V:arg0 will XXX-VB :arg2-of
p441
Vactive
p442
tp443
V:root
p444
(V:arg0
p445
V:arg1
p446
V:arg2
p447
tp448
tp449
I1
s((V:op1 XXX-CC :mod i :arg2
p450
g3
tp451
V:root
p452
(V:arg1
p453
V:arg2
p454
tp455
tp456
I1
s((V:time :polarity :op1 XXX-CC :op2 :arg1
p457
g3
tp458
V:root
p459
(V:op1
p460
V:op2
p461
V:time
p462
tp463
tp464
I1
s((V:location :arg1 had :time been :degree XXX-JJ
p465
Vactive
p466
tp467
V:root
p468
(V:arg1
p469
V:degree
p470
V:location
p471
V:time
p472
tp473
tp474
I1
s((Voh , XXX-UH
p475
g3
tp476
V:root
p477
g6
tp478
I1
s((V:arg2 , :arg0 XXX-VB
p479
Vactive
p480
tp481
V:root
p482
(V:arg0
p483
V:arg2
p484
tp485
tp486
I1
s((Vand :arg0 XXX-VB :arg1
p487
Vactive
p488
tp489
V:root
p490
(V:arg0
p491
V:arg1
p492
tp493
tp494
I1
s((V:arg1-of , XXX-VB :arg0 :manner
p495
Vactive
p496
tp497
V:root
p498
(V:arg0
p499
V:arg1
p500
V:manner
p501
tp502
tp503
I1
s((V:arg1 were :direction the XXX-PRP$ :direction :arg4
p504
g3
tp505
V:root
p506
(V:arg1
p507
V:arg4
p508
V:direction
p509
V:direction
p510
tp511
tp512
I1
s((VXXX-VB :arg1
p513
Vactive
p514
tp515
V:root
p516
(V:arg1
p517
tp518
tp519
I3
s((V:arg0 XXX-VB :arg1 :arg0
p520
Vactive
p521
tp522
V:root
p523
(V:arg0
p524
V:arg1
p525
tp526
tp527
I1
s((V:domain are XXX-JJ
p528
Vactive
p529
tp530
V:root
p531
(V:domain
p532
tp533
tp534
I1
s((V:arg0 was just going to XXX-VB :arg1 :time
p535
Vactive
p536
tp537
V:root
p538
(V:arg0
p539
V:arg1
p540
V:time
p541
tp542
tp543
I1
s((V:arg1 , XXX-VB :arg1
p544
Vactive
p545
tp546
V:root
p547
(V:arg0
p548
V:arg1
p549
tp550
tp551
I1
s((V:arg0 :mod XXX-VB :arg1
p552
Vactive
p553
tp554
V:root
p555
(V:arg0
p556
V:arg1
p557
V:mod
p558
tp559
tp560
I2
s((VXXX-CC there is :arg2 :time
p561
g3
tp562
V:root
p563
(V:arg2
p564
tp565
tp566
I1
s((V:arg0 is :degree XXX-JJ
p567
Vactive
p568
tp569
V:root
p570
(V:arg0
p571
V:degree
p572
tp573
tp574
I1
s((V:arg0 :polarity :polarity XXX-VB out
p575
Vactive
p576
tp577
V:root
p578
(V:arg0
p579
V:polarity
p580
V:polarity
p581
tp582
tp583
I1
s((V:degree was :mod :manner that :arg0 XXX-VB :arg1
p584
Vactive
p585
tp586
V:root
p587
(V:arg0
p588
V:arg1
p589
tp590
tp591
I1
s((Vthat is to XXX-VB :polarity
p592
Vactive
p593
tp594
V:root
p595
(V:arg1
p596
tp597
tp598
I1
s((Vand it XXX-VB :arg0
p599
Vactive
p600
tp601
V:root
p602
(V:arg0
p603
tp604
tp605
I1
s((V:arg0 XXX-VB :arg1 :subevent-of
p606
Vactive
p607
tp608
V:root
p609
(V:arg0
p610
V:arg1
p611
V:subevent-of
p612
tp613
tp614
I1
s((Vas for me , XXX-VB :arg0 :destination :arg1 :arg1
p615
Vactive
p616
tp617
V:root
p618
(V:arg0
p619
V:arg1
p620
tp621
tp622
I1
s((V:mod :op2 :arg0 XXX-NN :frequency
p623
g3
tp624
V:root
p625
(V:arg0
p626
V:arg1
p627
V:arg2
p628
V:mod
p629
tp630
tp631
I1
s((V:manner , :conj-as-if , :arg0 XXX-VB :polarity
p632
Vactive
p633
tp634
V:root
p635
(V:arg0
p636
V:arg1
p637
V:arg2-of
p638
V:conj-as-if
p639
V:manner
p640
V:manner
p641
tp642
tp643
I1
s((V:arg0 XXX-NN :arg1
p644
g3
tp645
V:root
p646
(V:arg0
p647
V:arg1
p648
tp649
tp650
I1
s((V:time , :arg0 XXX-VB :op2 :arg2
p651
Vactive
p652
tp653
V:root
p654
(V:arg0
p655
V:arg1
p656
V:arg2
p657
V:time
p658
tp659
tp660
I1
s((VXXX-CC , :time :op1 , :op2 :arg1
p661
g3
tp662
V:root
p663
(V:op2
p664
tp665
tp666
I1
s((VXXX-CC there :op2
p667
g3
tp668
V:root
p669
(V:op2
p670
tp671
tp672
I1
s((V:arg0 XXX-VB :ord :arg1
p673
Vactive
p674
tp675
V:root
p676
(V:arg0
p677
V:arg1
p678
tp679
tp680
I1
s((V:arg0 XXX-VB :mod
p681
Vactive
p682
tp683
V:root
p684
(V:arg0
p685
V:mod
p686
tp687
tp688
I1
s((VXXX-CC :quant , :mod :arg1-of , :location
p689
g3
tp690
V:root
p691
(V:op1
p692
tp693
tp694
I1
s((V:arg1 is XXX-IN :arg2
p695
Vactive
p696
tp697
V:root
p698
(V:arg1
p699
V:arg2
p700
tp701
tp702
I1
s((V:arg2 is an XXX-NN
p703
g3
tp704
V:root
p705
(V:arg2
p706
tp707
tp708
I1
s((VXXX-IN :arg1 am :time :arg0
p709
g3
tp710
V:root
p711
(V:arg0
p712
tp713
tp714
I1
s((VXXX-CC :frequency
p715
g3
tp716
V:root
p717
(V:op2
p718
tp719
tp720
I1
s((Vto :arg1 XXX-VB :arg2
p721
Vactive
p722
tp723
V:root
p724
(V:arg1
p725
V:arg2
p726
tp727
tp728
I1
s((VXXX-CC :time-of :time :time-of :op2
p729
g3
tp730
V:root
p731
(V:op1
p732
tp733
tp734
I1
s((V:arg2 , :arg0 XXX-VB :arg1
p735
Vactive
p736
tp737
V:root
p738
(V:arg0
p739
V:arg1
p740
tp741
tp742
I1
s((V:condition , they would XXX-VB up :arg0-of
p743
Vactive
p744
tp745
V:root
p746
(V:arg0
p747
V:condition
p748
tp749
tp750
I1
s((V:condition , i XXX-MD :op2
p751
Vactive
p752
tp753
V:root
p754
(V:arg1
p755
V:condition
p756
tp757
tp758
I1
s((VXXX-CC :condition
p759
g3
tp760
V:root
p761
(V:op1
p762
tp763
tp764
I1
s((V:mod , :arg0 XXX-VB , i :arg1
p765
Vactive
p766
tp767
V:root
p768
(V:arg0
p769
V:arg1
p770
tp771
tp772
I1
s((VXXX-NN
p773
g3
tp774
V:root
p775
g6
tp776
I9
s((V:mod the XXX-NN :domain
p777
g3
tp778
V:root
p779
(V:domain
p780
V:domain
p781
V:mod
p782
tp783
tp784
I1
s((V:arg0 XXX-VB
p785
Vactive
p786
tp787
V:root
p788
(V:arg0
p789
tp790
tp791
I12
s((V:arg0 is XXX-WRB :arg0
p792
Vactive
p793
tp794
V:root
p795
(V:arg0
p796
V:arg1
p797
tp798
tp799
I1
s((VXXX-CC i :op2 :arg0
p800
g3
tp801
V:root
p802
(V:arg1-of
p803
V:op2
p804
tp805
tp806
I1
s((VXXX-IN :arg2
p807
g3
tp808
V:root
p809
(V:arg2
p810
tp811
tp812
I1
s((V:time :time , XXX-VB :arg0
p813
Vactive
p814
tp815
V:root
p816
(V:arg0
p817
V:arg1
p818
tp819
tp820
I1
s((V:time :time , :mod :time :time , :arg0 :manner XXX-VB :manner
p821
Vactive
p822
tp823
V:root
p824
(V:arg0
p825
V:manner
p826
V:manner
p827
V:time
p828
V:time
p829
V:time
p830
V:time
p831
tp832
tp833
I1
s((V:arg0 XXX-VB :arg2
p834
Vactive
p835
tp836
V:root
p837
(V:arg0
p838
V:arg1
p839
V:arg2
p840
tp841
tp842
I1
s((VXXX-IN :op1
p843
g3
tp844
V:root
p845
(V:op1
p846
tp847
tp848
I1
s((V:arg1 XXX-VB :arg0 , is that :location :arg0
p849
Vactive
p850
tp851
V:root
p852
(V:arg0
p853
V:arg1
p854
tp855
tp856
I1
s((V:domain am all :mod , XXX-VB :arg0
p857
Vactive
p858
tp859
V:root
p860
(V:arg0
p861
V:arg2
p862
tp863
tp864
I1
s((Vit is :arg1 XXX-NN :arg2
p865
g3
tp866
V:root
p867
(V:arg1
p868
V:arg2
p869
tp870
tp871
I1
s((V:arg0 XXX-MD :op1
p872
Vactive
p873
tp874
V:root
p875
(V:arg1
p876
tp877
tp878
I1
s((V:arg1 was :degree XXX-VB
p879
Vactive
p880
tp881
V:root
p882
(V:arg1
p883
V:degree
p884
tp885
tp886
I1
s((VXXX-CC then , too , :arg1 :op2
p887
g3
tp888
V:root
p889
(V:op2
p890
tp891
tp892
I1
s((VXXX-CC :arg0 :op1 and :op2 :arg1
p893
g3
tp894
V:root
p895
(V:op1
p896
V:op2
p897
tp898
tp899
I1
s((V:condition , :arg1 XXX-VB :arg1-of and :manner , :manner :arg1-of
p900
Vactive
p901
tp902
V:root
p903
(V:arg1
p904
V:arg1-of
p905
V:condition
p906
V:manner
p907
V:manner
p908
tp909
tp910
I1
s((V:arg1 had XXX-VB :time-of
p911
Vactive
p912
tp913
V:root
p914
(V:arg1
p915
V:time-of
p916
tp917
tp918
I1
s((V:arg1 is XXX-JJ
p919
Vactive
p920
tp921
V:root
p922
(V:arg1
p923
tp924
tp925
I1
s((V:arg0 :mod will XXX-VB :arg1 :arg1-of :arg2
p926
Vactive
p927
tp928
V:root
p929
(V:arg0
p930
V:arg1
p931
V:arg1-of
p932
tp933
tp934
I1
s((VXXX-VB :duration , :manner :location :op1
p935
Vactive
p936
tp937
V:root
p938
(V:duration
p939
V:location
p940
tp941
tp942
I1
s((V:op1 :arg1 :op2 XXX-VB :arg2
p943
Vactive
p944
tp945
V:root
p946
(V:arg1
p947
V:arg2
p948
tp949
tp950
I3
s((V:manner is it XXX-JJ :arg0 :manner
p951
g3
tp952
V:root
p953
(V:arg1
p954
V:manner
p955
V:manner
p956
tp957
tp958
I1
s((VXXX-CC :time :domain :arg2
p959
g3
tp960
V:root
p961
(V:arg2
p962
tp963
tp964
I1
s((V:time :op1 :arg0 XXX-VB :mod :arg1
p965
Vactive
p966
tp967
V:root
p968
(V:arg0
p969
V:arg1
p970
V:mod
p971
V:time
p972
tp973
tp974
I1
s((V:time :arg0 XXX-VB :arg1
p975
Vactive
p976
tp977
V:root
p978
(V:arg0
p979
V:arg1
p980
tp981
tp982
I1
s((VXXX-RB the :arg1 are they
p983
g3
tp984
V:root
p985
(V:arg1
p986
V:arg1-of
p987
V:arg2
p988
tp989
tp990
I1
s((V:domain is :polarity :arg1 :degree :arg0-of XXX-VB :arg1
p991
Vactive
p992
tp993
V:root
p994
(V:arg0
p995
V:arg1
p996
tp997
tp998
I1
s((VXXX-CC :arg1 :arg0
p999
g3
tp1000
V:root
p1001
(V:arg2
p1002
tp1003
tp1004
I1
s((V:arg0 :time XXX-VB :arg1
p1005
Vactive
p1006
tp1007
V:root
p1008
(V:arg0
p1009
V:arg1
p1010
V:polarity
p1011
V:time
p1012
tp1013
tp1014
I1
s((V:arg0 , XXX-RB , :arg2
p1015
g3
tp1016
V:root
p1017
(V:arg2
p1018
tp1019
tp1020
I1
s((Vfor what :arg0 :mod XXX-VB upon was :arg1
p1021
Vactive
p1022
tp1023
V:root
p1024
(V:arg0
p1025
V:arg1
p1026
V:mod
p1027
tp1028
tp1029
I1
s((V:location , :time , is a :mod XXX-NN
p1030
g3
tp1031
V:root
p1032
(V:location
p1033
V:mod
p1034
V:time
p1035
tp1036
tp1037
I1
s((V:arg1 :arg1 :arg2 :arg0 XXX-VB , :manner
p1038
Vactive
p1039
tp1040
V:root
p1041
(V:arg0
p1042
V:arg1
p1043
V:manner
p1044
tp1045
tp1046
I1
s((V:arg2 , XXX-CC :degree
p1047
g3
tp1048
V:root
p1049
(V:arg1
p1050
V:arg2
p1051
tp1052
tp1053
I1
s((Vthey XXX-JJ :arg0 :compared-to
p1054
g3
tp1055
V:root
p1056
(V:arg0
p1057
V:arg1
p1058
tp1059
tp1060
I1
s((V:arg1-of , XXX-VB :arg0
p1061
Vactive
p1062
tp1063
V:root
p1064
(V:arg0
p1065
V:arg1
p1066
tp1067
tp1068
I9
s((VXXX-CC :direction :arg2 :direction :domain is :degree
p1069
g3
tp1070
V:root
p1071
(V:arg2
p1072
tp1073
tp1074
I1
s((Vit XXX-VB :arg2
p1075
Vactive
p1076
tp1077
V:root
p1078
(V:arg1
p1079
V:arg2
p1080
tp1081
tp1082
I1
s((V:arg0 :op1 :arg1 over , XXX-CC :op2 :arg0 they :arg1
p1083
g3
tp1084
V:root
p1085
(V:op1
p1086
V:op2
p1087
tp1088
tp1089
I1
s((VXXX-CC , :op1 , :arg0 :op2
p1090
g3
tp1091
V:root
p1092
(V:op2
p1093
tp1094
tp1095
I1
s((V:arg0 XXX-VB :arg1 :instrument :subevent-of
p1096
Vactive
p1097
tp1098
V:root
p1099
(V:arg0
p1100
V:arg1
p1101
V:mod
p1102
V:subevent-of
p1103
tp1104
tp1105
I1
s((VXXX-CC :time :arg1 :op2
p1106
g3
tp1107
V:root
p1108
(V:op2
p1109
tp1110
tp1111
I2
s((V:arg1 , XXX-VB :arg0
p1112
Vactive
p1113
tp1114
V:root
p1115
(V:arg0
p1116
V:arg2
p1117
V:manner
p1118
tp1119
tp1120
I1
s((V:domain was :poss :ord XXX-NN :mod
p1121
g3
tp1122
V:root
p1123
(V:domain
p1124
V:mod
p1125
V:ord
p1126
V:poss
p1127
tp1128
tp1129
I1
s((V:mod :mod XXX-NN ,
p1130
g3
tp1131
V:root
p1132
(V:mod
p1133
V:mod
p1134
tp1135
tp1136
I1
s((V:arg1 am :degree XXX-RB
p1137
Vactive
p1138
tp1139
V:root
p1140
(V:arg1
p1141
V:degree
p1142
tp1143
tp1144
I1
s((VXXX-CC , besides , :arg3
p1145
g3
tp1146
V:root
p1147
(V:op1
p1148
tp1149
tp1150
I1
s((VXXX-CC nevertheless :arg0 :arg1
p1151
g3
tp1152
V:root
p1153
(V:arg1
p1154
tp1155
tp1156
I1
s((V:arg0 XXX-MD :polarity :arg1
p1157
Vactive
p1158
tp1159
V:root
p1160
(V:arg1
p1161
V:mod
p1162
V:polarity
p1163
tp1164
tp1165
I1
s((V:arg0 XXX-NN :arg1
p1166
g3
tp1167
V:root
p1168
(V:arg0
p1169
V:arg1
p1170
V:direction
p1171
tp1172
tp1173
I1
s((VXXX-CC , :op2 , :arg1 :arg1
p1174
g3
tp1175
V:root
p1176
(V:op2
p1177
tp1178
tp1179
I1
s((V:arg0-of :arg1 , :arg0 are XXX-NN
p1180
g3
tp1181
V:root
p1182
(V:arg0
p1183
V:arg1
p1184
tp1185
tp1186
I1
s((V:arg1 XXX-VB :arg2
p1187
Vactive
p1188
tp1189
V:root
p1190
(V:arg1
p1191
V:arg2
p1192
tp1193
tp1194
I2
s((V:location :quant of :arg0 XXX-MD :arg1-of
p1195
Vactive
p1196
tp1197
V:root
p1198
(V:arg0
p1199
V:location
p1200
tp1201
tp1202
I1
s((V:op2 was :ord XXX-JJR :ord
p1203
Vactive
p1204
tp1205
V:root
p1206
(V:domain
p1207
V:quant
p1208
tp1209
tp1210
I1
s((V:domain is :degree XXX-JJ :domain
p1211
Vactive
p1212
tp1213
V:root
p1214
(V:degree
p1215
V:domain
p1216
V:domain
p1217
tp1218
tp1219
I2
s((V:domain is the :mod XXX-NN :compared-to
p1220
g3
tp1221
V:root
p1222
(V:domain
p1223
V:mod
p1224
tp1225
tp1226
I1
s((V:arg1 is XXX-IN :quant :arg2
p1227
Vactive
p1228
tp1229
V:root
p1230
(V:arg1
p1231
V:arg2
p1232
tp1233
tp1234
I1
s((V:arg2 , XXX-VB :arg1
p1235
Vactive
p1236
tp1237
V:root
p1238
(V:arg0
p1239
V:arg2
p1240
tp1241
tp1242
I2
s((Vthen XXX-EX :polarity
p1243
g3
tp1244
V:root
p1245
(V:location
p1246
V:polarity
p1247
tp1248
tp1249
I1
s((V:arg0 :time :op1 , XXX-CC :op2
p1250
g3
tp1251
V:root
p1252
(V:op1
p1253
V:op2
p1254
tp1255
tp1256
I1
s((V:arg2-of XXX-VB :arg2-of
p1257
Vactive
p1258
tp1259
V:root
p1260
(V:arg2-of
p1261
V:arg2-of
p1262
tp1263
tp1264
I1
s((V:domain was :arg0-of XXX-NN :mod
p1265
g3
tp1266
V:root
p1267
(V:arg0-of
p1268
V:domain
p1269
V:mod
p1270
tp1271
tp1272
I1
s((VXXX-CC :ord :mod
p1273
g3
tp1274
V:root
p1275
(V:op2
p1276
tp1277
tp1278
I1
s((V:domain was an :mod XXX-NN
p1279
g3
tp1280
V:root
p1281
(V:domain
p1282
V:mod
p1283
tp1284
tp1285
I1
s((V:time :arg0 XXX-VB :arg1 :arg2
p1286
Vactive
p1287
tp1288
V:root
p1289
(V:arg0
p1290
V:arg1
p1291
V:arg2
p1292
V:time
p1293
tp1294
tp1295
I1
s((V:arg1 , and :arg1 would :arg1 :arg1 XXX-IN :arg1 :arg1
p1296
g3
tp1297
V:root
p1298
(V:arg0
p1299
V:arg1
p1300
tp1301
tp1302
I1
s((V:arg1 are :degree XXX-JJ :polarity
p1303
Vactive
p1304
tp1305
V:root
p1306
(V:arg1
p1307
V:degree
p1308
V:polarity
p1309
tp1310
tp1311
I1
s((VXXX-CC :arg0 :arg1
p1312
g3
tp1313
V:root
p1314
(V:arg2
p1315
tp1316
tp1317
I3
s((V:arg2 , XXX-VB :arg0
p1318
Vactive
p1319
tp1320
V:root
p1321
(V:arg0
p1322
V:arg2
p1323
tp1324
tp1325
I2
s((V:op1 , XXX-CC :op2
p1326
g3
tp1327
V:root
p1328
(V:op1
p1329
V:op2
p1330
tp1331
tp1332
I13
s((Vand :arg0 XXX-VB himself :manner :arg1 :arg0 :arg1 :condition :manner
p1333
Vactive
p1334
tp1335
V:root
p1336
(V:arg0
p1337
V:arg1
p1338
tp1339
tp1340
I1
s((VXXX-CC :arg0 :arg1
p1341
g3
tp1342
V:root
p1343
(V:arg1
p1344
tp1345
tp1346
I1
s((VXXX-CC :time :op2
p1347
g3
tp1348
V:root
p1349
(V:op2
p1350
V:time
p1351
tp1352
tp1353
I1
s((V:domain is :degree XXX-JJ :domain :arg2
p1354
Vactive
p1355
tp1356
V:root
p1357
(V:degree
p1358
V:domain
p1359
V:domain
p1360
tp1361
tp1362
I1
s((V:op1 XXX-CC :op2
p1363
g3
tp1364
V:root
p1365
(V:op1
p1366
V:op2
p1367
tp1368
tp1369
I6
s((V:time , :arg0 :op1 XXX-CC :op2
p1370
g3
tp1371
V:root
p1372
(V:op1
p1373
V:op2
p1374
V:time
p1375
tp1376
tp1377
I1
s((V:ord XXX-RB , :domain :domain :ord
p1378
g3
tp1379
V:root
p1380
(V:domain
p1381
V:domain
p1382
V:ord
p1383
V:ord
p1384
tp1385
tp1386
I1
s((V:arg1 :degree XXX-VB :arg1-of , :arg1-of
p1387
Vactive
p1388
tp1389
V:root
p1390
(V:arg1
p1391
V:arg1-of
p1392
V:arg1-of
p1393
tp1394
tp1395
I1
s((V:arg0 XXX-VB :arg1 , :arg1-of :arg0
p1396
Vactive
p1397
tp1398
V:root
p1399
(V:arg0
p1400
V:arg1
p1401
V:arg1-of
p1402
tp1403
tp1404
I1
s((V:time :arg0 XXX-MD :arg1
p1405
Vactive
p1406
tp1407
V:root
p1408
(V:arg1
p1409
V:time
p1410
tp1411
tp1412
I1
s((V:arg0 :polarity :polarity XXX-VB :arg1
p1413
Vactive
p1414
tp1415
V:root
p1416
(V:arg0
p1417
V:arg1
p1418
V:polarity
p1419
V:polarity
p1420
tp1421
tp1422
I7
s((V:arg2 :arg1 :arg0 XXX-JJ
p1423
g3
tp1424
V:root
p1425
(V:arg0
p1426
V:arg2
p1427
tp1428
tp1429
I1
s((V:arg0 XXX-VB :arg0 , :op1 :op2
p1430
Vactive
p1431
tp1432
V:root
p1433
(V:arg0
p1434
V:arg1
p1435
tp1436
tp1437
I1
s((Vover what XXX-MD :arg0 :arg1 :arg1
p1438
Vactive
p1439
tp1440
V:root
p1441
(V:arg1
p1442
tp1443
tp1444
I1
s((V:arg0 XXX-MD :arg2 , yes
p1445
Vactive
p1446
tp1447
V:root
p1448
(V:arg0
p1449
V:arg0-of
p1450
V:arg2
p1451
tp1452
tp1453
I1
s((V:arg0 shall XXX-VB :degree
p1454
Vactive
p1455
tp1456
V:root
p1457
(V:arg0
p1458
V:arg1
p1459
V:degree
p1460
tp1461
tp1462
I1
s((Vi am XXX-VB :arg0 :op2
p1463
Vactive
p1464
tp1465
V:root
p1466
(V:op1
p1467
V:op2
p1468
tp1469
tp1470
I1
s((V:arg0 :polarity XXX-VB :arg1
p1471
Vactive
p1472
tp1473
V:root
p1474
(V:arg0
p1475
V:arg1
p1476
V:polarity
p1477
V:time
p1478
tp1479
tp1480
I1
s((Vthere is a XXX-NN
p1481
g3
tp1482
V:root
p1483
g6
tp1484
I1
s((VXXX-VB :direction :direction :arg1
p1485
Vactive
p1486
tp1487
V:root
p1488
(V:arg1
p1489
V:direction
p1490
V:direction
p1491
tp1492
tp1493
I1
s((V:arg0 XXX-VB :manner
p1494
Vactive
p1495
tp1496
V:root
p1497
(V:arg0
p1498
V:manner
p1499
tp1500
tp1501
I1
s((V:arg1-of , :arg0 XXX-VB :op1 :frequency :op2 times , :purpose
p1502
Vactive
p1503
tp1504
V:root
p1505
(V:arg0
p1506
V:frequency
p1507
V:frequency
p1508
V:purpose
p1509
tp1510
tp1511
I1
s((V:arg1 , :arg1 :arg2 , :arg0 XXX-VB on
p1512
Vactive
p1513
tp1514
V:root
p1515
(V:arg0
p1516
V:arg1
p1517
tp1518
tp1519
I1
s((V:arg0 XXX-VB :arg1 :time :arg1-of
p1520
Vactive
p1521
tp1522
V:root
p1523
(V:arg0
p1524
V:arg1
p1525
V:location
p1526
tp1527
tp1528
I1
s((VXXX-CC :domain is :mod :arg2
p1529
g3
tp1530
V:root
p1531
(V:arg2
p1532
tp1533
tp1534
I1
s((V:arg2-of , :arg1 :time XXX-VB :path
p1535
Vactive
p1536
tp1537
V:root
p1538
(V:arg1
p1539
V:arg2-of
p1540
V:path
p1541
V:time
p1542
V:time
p1543
tp1544
tp1545
I1
s((V:arg2 are the XXX-NN :arg1
p1546
g3
tp1547
V:root
p1548
(V:arg1
p1549
V:arg2
p1550
tp1551
tp1552
I1
s((Vno , XXX-DT no :quant
p1553
g3
tp1554
V:root
p1555
(V:quant
p1556
tp1557
tp1558
I1
s((V:domain is :polarity :mod an :mod XXX-NN
p1559
g3
tp1560
V:root
p1561
(V:domain
p1562
V:mod
p1563
tp1564
tp1565
I1
s((VXXX-CC :arg0 :op1
p1566
g3
tp1567
V:root
p1568
(V:op1
p1569
tp1570
tp1571
I2
s((VXXX-CC :location was :op1 :location , :arg2 :arg1
p1572
g3
tp1573
V:root
p1574
(V:arg2
p1575
tp1576
tp1577
I1
s((V:arg1 :arg0 XXX-VB :arg2 , :arg1-of :arg2 , :arg1 :arg2
p1578
Vactive
p1579
tp1580
V:root
p1581
(V:arg0
p1582
V:arg1
p1583
V:arg1-of
p1584
V:arg2
p1585
tp1586
tp1587
I1
s((Vare :arg1 :mod :arg2
p1588
g3
tp1589
V:root
p1590
(V:arg1
p1591
V:arg2
p1592
V:mod
p1593
tp1594
tp1595
I1
s((VXXX-TO :op1 , no one :arg1 :arg1
p1596
g3
tp1597
V:root
p1598
(V:op1
p1599
V:op2
p1600
tp1601
tp1602
I1
s((V:time are XXX-NN
p1603
g3
tp1604
V:root
p1605
(V:domain
p1606
V:time
p1607
V:time
p1608
tp1609
tp1610
I1
s((V:arg1 was :mod XXX-DT :polarity :arg2 :arg2-of
p1611
g3
tp1612
V:root
p1613
(V:arg1
p1614
V:arg2
p1615
V:mod
p1616
V:polarity
p1617
tp1618
tp1619
I1
s((VXXX-UH ,
p1620
g3
tp1621
V:root
p1622
g6
tp1623
I1
s((V:time :op1 , :arg0 XXX-VB :arg1
p1624
Vactive
p1625
tp1626
V:root
p1627
(V:arg0
p1628
V:arg1
p1629
V:time
p1630
tp1631
tp1632
I1
s((VXXX-CC :op1 :arg1
p1633
g3
tp1634
V:root
p1635
(V:op1
p1636
tp1637
tp1638
I1
s((Vso :time :arg0 :instrument a :instrument XXX-NN :arg1
p1639
g3
tp1640
V:root
p1641
(V:arg0
p1642
V:arg1
p1643
V:instrument
p1644
V:instrument
p1645
V:time
p1646
tp1647
tp1648
I1
s((VXXX-IN :arg0 :domain :arg1
p1649
g3
tp1650
V:root
p1651
(V:arg0
p1652
V:arg1
p1653
tp1654
tp1655
I1
s((V:arg0 :mod :arg2 :domain that has :arg1 to XXX-VB :arg1
p1656
Vactive
p1657
tp1658
V:root
p1659
(V:arg0
p1660
V:arg1
p1661
V:arg2
p1662
tp1663
tp1664
I1
s((V:manner do :arg0 XXX-VB :arg1 :manner
p1665
Vactive
p1666
tp1667
V:root
p1668
(V:arg0
p1669
V:arg1
p1670
V:manner
p1671
V:manner
p1672
tp1673
tp1674
I1
s((Vwhat do :arg0 XXX-VB :arg3 :arg1
p1675
Vactive
p1676
tp1677
V:root
p1678
(V:arg0
p1679
V:arg1
p1680
V:arg3
p1681
tp1682
tp1683
I1
s((V:domain is XXX-JJ
p1684
Vactive
p1685
tp1686
V:root
p1687
(V:domain
p1688
tp1689
tp1690
I1
s((V:mod XXX-NN ,
p1691
g3
tp1692
V:root
p1693
(V:mod
p1694
tp1695
tp1696
I2
s((V:arg1 , :arg0 XXX-VB :domain , :time
p1697
Vactive
p1698
tp1699
V:root
p1700
(V:arg0
p1701
V:arg1
p1702
V:time
p1703
tp1704
tp1705
I1
s((V:arg0 will XXX-VB
p1706
Vactive
p1707
tp1708
V:root
p1709
(V:arg0
p1710
tp1711
tp1712
I1
s((V:time :arg0 XXX-VB :arg1 :arg1 :mod
p1713
Vactive
p1714
tp1715
V:root
p1716
(V:arg1
p1717
V:time
p1718
tp1719
tp1720
I1
s((Vyes , :mod XXX-NN that :arg0-of
p1721
g3
tp1722
V:root
p1723
(V:arg0-of
p1724
V:mod
p1725
tp1726
tp1727
I1
s((V:arg2 was :quant :arg1 , for it was becoming :arg0 XXX-IN :arg1
p1728
Vactive
p1729
tp1730
V:root
p1731
(V:arg0
p1732
V:arg1
p1733
tp1734
tp1735
I1
s((V:mod :time now was :op1 , :op2 , XXX-CC :op3 , or :op4
p1736
g3
tp1737
V:root
p1738
(V:op1
p1739
V:op2
p1740
V:op3
p1741
V:op4
p1742
V:time
p1743
tp1744
tp1745
I1
s((V:concession :concession :arg2 was :op1 XXX-CC :op2 :extent :arg1
p1746
Vactive
p1747
tp1748
V:root
p1749
(V:concession
p1750
V:concession
p1751
V:op1
p1752
V:op2
p1753
tp1754
tp1755
I1
s((V:degree is :degree XXX-JJ :location
p1756
Vactive
p1757
tp1758
V:root
p1759
(V:degree
p1760
V:degree
p1761
V:location
p1762
tp1763
tp1764
I1
s((V:arg0 shall XXX-VB :arg2 :degree
p1765
Vactive
p1766
tp1767
V:root
p1768
(V:arg0
p1769
V:arg1
p1770
V:arg2
p1771
tp1772
tp1773
I1
s((V:arg0 will be :degree XXX-JJ
p1774
Vactive
p1775
tp1776
V:root
p1777
(V:arg0
p1778
V:degree
p1779
tp1780
tp1781
I1
s((Vthere are :polarity XXX-NN :location
p1782
g3
tp1783
V:root
p1784
(V:location
p1785
V:polarity
p1786
tp1787
tp1788
I1
s((V:arg1-of is XXX-IN :arg0
p1789
g3
tp1790
V:root
p1791
(V:arg1-of
p1792
tp1793
tp1794
I2
s((VXXX-IN :arg0
p1795
g3
tp1796
V:root
p1797
(V:arg0
p1798
tp1799
tp1800
I1
s((V:arg1 was XXX-VB :arg2 :location-of
p1801
Vactive
p1802
tp1803
V:root
p1804
(V:arg1
p1805
V:arg2
p1806
tp1807
tp1808
I1
s((V:arg0 :polarity :polarity XXX-VB :op1 :manner-of
p1809
Vactive
p1810
tp1811
V:root
p1812
(V:arg0
p1813
V:arg1
p1814
V:polarity
p1815
V:polarity
p1816
tp1817
tp1818
I1
s((Vit XXX-VB :arg1
p1819
Vactive
p1820
tp1821
V:root
p1822
(V:arg1
p1823
tp1824
tp1825
I1
s((VXXX-CC you , :arg0 , :op2
p1826
g3
tp1827
V:root
p1828
(V:op2
p1829
tp1830
tp1831
I1
s((Vare XXX-EX :arg0-of :location
p1832
g3
tp1833
V:root
p1834
(V:arg0-of
p1835
V:location
p1836
tp1837
tp1838
I1
s((V:arg1-of :arg1 :arg0 XXX-VB :arg0
p1839
Vactive
p1840
tp1841
V:root
p1842
(V:arg0
p1843
V:arg1
p1844
tp1845
tp1846
I2
s((V:location-of :location-of be XXX-RB :time
p1847
Vactive
p1848
tp1849
V:root
p1850
(V:location-of
p1851
V:location-of
p1852
V:time
p1853
tp1854
tp1855
I1
s((VXXX-NN :topic :topic
p1856
g3
tp1857
V:root
p1858
(V:topic
p1859
V:topic
p1860
tp1861
tp1862
I1
s((V:arg0 made a XXX-NN , :arg0-of
p1863
g3
tp1864
V:root
p1865
(V:arg0
p1866
V:arg0-of
p1867
tp1868
tp1869
I1
s((Vwhat does that XXX-NN :arg1 :arg2
p1870
g3
tp1871
V:root
p1872
(V:arg1
p1873
V:arg2
p1874
tp1875
tp1876
I4
s((V:arg0 have :time XXX-VB :arg1
p1877
Vactive
p1878
tp1879
V:root
p1880
(V:arg0
p1881
V:arg1
p1882
V:time
p1883
tp1884
tp1885
I1
s((V:direction , i XXX-VB :location :arg1 , :arg0-of :arg1
p1886
Vactive
p1887
tp1888
V:root
p1889
(V:arg0
p1890
V:arg1
p1891
V:time
p1892
tp1893
tp1894
I1
s((V:poss :part-of :arg0 :op1 XXX-CC they are :degree :op2
p1895
g3
tp1896
V:root
p1897
(V:op1
p1898
V:op2
p1899
tp1900
tp1901
I1
s((V:location are a XXX-NN :arg0
p1902
g3
tp1903
V:root
p1904
(V:arg0
p1905
V:location
p1906
tp1907
tp1908
I1
s((V:arg0 runs the XXX-NN :arg2
p1909
g3
tp1910
V:root
p1911
(V:arg0
p1912
V:arg2
p1913
V:condition
p1914
V:condition
p1915
tp1916
tp1917
I1
s((V:time , :arg0-of , :arg0 XXX-VB :arg1
p1918
Vactive
p1919
tp1920
V:root
p1921
(V:arg0
p1922
V:arg1
p1923
V:time
p1924
tp1925
tp1926
I1
s((V:arg0 XXX-VB :arg2 :arg1
p1927
Vactive
p1928
tp1929
V:root
p1930
(V:arg0
p1931
V:arg1
p1932
V:arg2
p1933
tp1934
tp1935
I2
s((V:domain was :arg1-of :degree XXX-JJ
p1936
Vactive
p1937
tp1938
V:root
p1939
(V:arg1-of
p1940
V:degree
p1941
V:domain
p1942
tp1943
tp1944
I1
s((Vso , :mod , :arg0 XXX-VB :degree :arg1-of :arg1
p1945
Vactive
p1946
tp1947
V:root
p1948
(V:arg0
p1949
V:arg1
p1950
V:arg1-of
p1951
V:mod
p1952
tp1953
tp1954
I1
s((V:domain were the :quant XXX-NN , :arg1-of
p1955
g3
tp1956
V:root
p1957
(V:arg1-of
p1958
V:domain
p1959
V:quant
p1960
tp1961
tp1962
I1
s((V:purpose , XXX-VB :arg0 a king :arg2 :arg1
p1963
Vactive
p1964
tp1965
V:root
p1966
(V:arg0
p1967
V:arg1
p1968
tp1969
tp1970
I1
s((V:arg0-of :arg0 , XXX-CC :op2
p1971
g3
tp1972
V:root
p1973
(V:op1
p1974
V:op2
p1975
tp1976
tp1977
I1
s((V:arg1 was :mod :polarity XXX-JJ
p1978
Vactive
p1979
tp1980
V:root
p1981
(V:arg1
p1982
V:mod
p1983
V:polarity
p1984
tp1985
tp1986
I1
s((V:arg0 XXX-VB :arg1-of :arg2
p1987
Vactive
p1988
tp1989
V:root
p1990
(V:arg0
p1991
V:arg1
p1992
V:arg2
p1993
tp1994
tp1995
I1
s((Vit will be XXX-IN if , :arg1 , :arg0 :arg2
p1996
Vactive
p1997
tp1998
V:root
p1999
(V:arg1
p2000
tp2001
tp2002
I1
s((Vdo :polarity XXX-VB :purpose
p2003
Vactive
p2004
tp2005
V:root
p2006
(V:polarity
p2007
V:purpose
p2008
tp2009
tp2010
I1
s((Vgood morning :arg1-of :arg1 , XXX-VB :arg0
p2011
Vactive
p2012
tp2013
V:root
p2014
(V:arg0
p2015
V:arg1
p2016
tp2017
tp2018
I1
s((Vthere was a XXX-NN :arg2
p2019
g3
tp2020
V:root
p2021
(V:arg1-of
p2022
tp2023
tp2024
I1
s((V:arg0 :arg1 :arg1 to :arg1 , XXX-CC :arg2 :arg0
p2025
g3
tp2026
V:root
p2027
(V:arg1
p2028
V:arg2
p2029
tp2030
tp2031
I1
s((V:arg0 XXX-VB :mod
p2032
Vactive
p2033
tp2034
V:root
p2035
(V:arg0
p2036
V:arg1
p2037
tp2038
tp2039
I1
s((Vdo :polarity XXX-VB
p2040
Vactive
p2041
tp2042
V:root
p2043
(V:polarity
p2044
tp2045
tp2046
I1
s((Vwhat are the XXX-NN :arg2
p2047
g3
tp2048
V:root
p2049
(V:arg2
p2050
tp2051
tp2052
I1
s((V:arg0 :snt1 XXX-RB :quant :arg1 :consist-of :snt2 :snt3
p2053
g3
tp2054
V:root
p2055
(V:snt1
p2056
V:snt2
p2057
V:snt3
p2058
tp2059
tp2060
I1
s((Vit is XXX-JJ :domain
p2061
Vactive
p2062
tp2063
V:root
p2064
(V:domain
p2065
V:domain
p2066
tp2067
tp2068
I1
s((Vit was :arg1-of to XXX-VB
p2069
Vactive
p2070
tp2071
V:root
p2072
(V:arg1
p2073
V:arg1-of
p2074
tp2075
tp2076
I1
s((Vwhat does that XXX-NN ' :arg1 :arg2
p2077
g3
tp2078
V:root
p2079
(V:arg1
p2080
V:arg2
p2081
tp2082
tp2083
I1
s((Vbut :arg0 will XXX-NN :arg1
p2084
Vactive
p2085
tp2086
V:root
p2087
(V:arg0
p2088
V:arg1
p2089
V:arg1-of
p2090
V:frequency
p2091
V:frequency
p2092
tp2093
tp2094
I1
s((Vi , XXX-VB :arg0
p2095
Vactive
p2096
tp2097
V:root
p2098
(V:arg0
p2099
V:arg1
p2100
tp2101
tp2102
I1
s((VXXX-CC :domain :arg2
p2103
g3
tp2104
V:root
p2105
(V:arg2
p2106
tp2107
tp2108
I6
s((V:arg0 has XXX-VB :arg2 :arg1 :mod
p2109
Vactive
p2110
tp2111
V:root
p2112
(V:arg0
p2113
V:arg1
p2114
V:arg2
p2115
V:mod
p2116
tp2117
tp2118
I1
s((Vwhat are :arg0 XXX-VB :arg1
p2119
Vactive
p2120
tp2121
V:root
p2122
(V:arg0
p2123
V:arg1
p2124
tp2125
tp2126
I1
s((VXXX-PRP is :mod :arg2 :direction :op1
p2127
g3
tp2128
V:root
p2129
(V:arg1
p2130
V:arg2
p2131
tp2132
tp2133
I1
s((V:arg0 are objects of XXX-NN
p2134
g3
tp2135
V:root
p2136
(V:arg0
p2137
V:arg1
p2138
tp2139
tp2140
I1
s((V:arg0 XXX-VB , :arg1 that it is :mod :arg1 :arg2 :op3
p2141
Vactive
p2142
tp2143
V:root
p2144
(V:arg0
p2145
V:arg1
p2146
tp2147
tp2148
I1
s((V:arg0 should be :arg0 , for XXX-NN , :arg1
p2149
g3
tp2150
V:root
p2151
(V:arg0
p2152
tp2153
tp2154
I1
s((V:arg0 has :polarity XXX-NN :arg1 ,
p2155
g3
tp2156
V:root
p2157
(V:arg1
p2158
V:polarity
p2159
tp2160
tp2161
I1
s((V:condition , then you are XXX-RB :arg1-of
p2162
Vactive
p2163
tp2164
V:root
p2165
(V:arg1-of
p2166
V:condition
p2167
V:domain
p2168
tp2169
tp2170
I1
s((V:location , :arg2 , there was XXX-NN :mod
p2171
g3
tp2172
V:root
p2173
(V:location
p2174
V:mod
p2175
tp2176
tp2177
I1
s((Vit XXX-VB :arg2 :arg1
p2178
Vactive
p2179
tp2180
V:root
p2181
(V:arg1
p2182
V:arg2
p2183
tp2184
tp2185
I1
s((V:arg1-of , :arg0 XXX-VB :arg2
p2186
Vactive
p2187
tp2188
V:root
p2189
(V:arg0
p2190
V:arg1
p2191
V:arg2
p2192
tp2193
tp2194
I1
s((V:frequency :arg0 will XXX-VB :arg1 :arg3
p2195
Vactive
p2196
tp2197
V:root
p2198
(V:arg0
p2199
V:arg1
p2200
V:arg3
p2201
V:frequency
p2202
tp2203
tp2204
I1
s((Vlet :arg0 XXX-VB :arg1
p2205
Vactive
p2206
tp2207
V:root
p2208
(V:arg0
p2209
V:arg1
p2210
tp2211
tp2212
I1
s((V:arg1-of :arg1 been XXX-VB :arg0 :arg1-of
p2213
Vactive
p2214
tp2215
V:root
p2216
(V:arg0
p2217
V:arg1
p2218
tp2219
tp2220
I1
s((V:arg0 :polarity :polarity XXX-VB :arg0 :arg1 :instrument
p2221
Vactive
p2222
tp2223
V:root
p2224
(V:arg0
p2225
V:arg1
p2226
V:polarity
p2227
V:polarity
p2228
tp2229
tp2230
I1
s((V:arg0 :polarity :polarity XXX-VB :arg1 , :concession-of :concession-of
p2231
Vactive
p2232
tp2233
V:root
p2234
(V:arg0
p2235
V:arg1
p2236
V:concession-of
p2237
V:concession-of
p2238
V:polarity
p2239
V:polarity
p2240
tp2241
tp2242
I1
s((V:time :arg0
p2243
g3
tp2244
V:root
p2245
(V:arg0
p2246
V:time
p2247
tp2248
tp2249
I1
s((VXXX-CC :time
p2250
g3
tp2251
V:root
p2252
(V:op2
p2253
tp2254
tp2255
I1
s((V:arg0 have :polarity been :degree XXX-JJ in :arg1 :arg1-of
p2256
Vactive
p2257
tp2258
V:root
p2259
(V:arg0
p2260
V:arg1
p2261
V:degree
p2262
tp2263
tp2264
I1
s((V:arg0 :op1 :arg1 , XXX-CC :arg0
p2265
g3
tp2266
V:root
p2267
(V:op1
p2268
V:op1
p2269
tp2270
tp2271
I1
s((V:arg0 :polarity :polarity XXX-VB :arg1 :mod :arg1-of , :arg1-of :arg2
p2272
Vactive
p2273
tp2274
V:root
p2275
(V:arg0
p2276
V:arg1
p2277
V:polarity
p2278
V:polarity
p2279
tp2280
tp2281
I1
s((V:arg1 had taken XXX-RB :arg2 , and :arg0-of
p2282
Vactive
p2283
tp2284
V:root
p2285
(V:arg0-of
p2286
V:arg0-of
p2287
V:arg1
p2288
V:arg2
p2289
tp2290
tp2291
I1
s((Va what XXX-.
p2292
g3
tp2293
V:root
p2294
g6
tp2295
I1
s((V:domain was :degree XXX-JJ
p2296
Vactive
p2297
tp2298
V:root
p2299
(V:degree
p2300
V:domain
p2301
tp2302
tp2303
I1
s((V:arg1 XXX-VB :manner :duration
p2304
Vactive
p2305
tp2306
V:root
p2307
(V:arg1
p2308
V:duration
p2309
V:manner
p2310
tp2311
tp2312
I1
s((V:time :arg0 XXX-VB :direction :direction , :manner :mod :arg1
p2313
Vactive
p2314
tp2315
V:root
p2316
(V:arg0
p2317
V:arg1
p2318
V:arg2
p2319
V:direction
p2320
V:direction
p2321
V:manner
p2322
V:manner
p2323
V:time
p2324
tp2325
tp2326
I1
s((V:arg1 XXX-VB :arg1 :arg2
p2327
Vactive
p2328
tp2329
V:root
p2330
(V:arg1
p2331
V:arg2
p2332
tp2333
tp2334
I1
s((V:arg1 :arg2 :arg1 XXX-VB :arg0 , :time he :op1
p2335
Vactive
p2336
tp2337
V:root
p2338
(V:arg0
p2339
V:arg1
p2340
tp2341
tp2342
I1
s((Va XXX-NN
p2343
g3
tp2344
V:root
p2345
g6
tp2346
I1
s((V:arg0 will XXX-VB :direction :arg1
p2347
Vactive
p2348
tp2349
V:root
p2350
(V:arg0
p2351
V:arg1
p2352
V:direction
p2353
V:purpose
p2354
tp2355
tp2356
I1
s((V:arg0 shall XXX-VB :arg1
p2357
Vactive
p2358
tp2359
V:root
p2360
(V:arg0
p2361
V:arg1
p2362
tp2363
tp2364
I2
s((V:arg0 XXX-VB :arg1 :arg4
p2365
Vactive
p2366
tp2367
V:root
p2368
(V:arg0
p2369
V:arg1
p2370
V:arg4
p2371
tp2372
tp2373
I1
s((V:arg0 XXX-VB that :domain
p2374
Vactive
p2375
tp2376
V:root
p2377
(V:arg0
p2378
V:arg1
p2379
tp2380
tp2381
I1
s((V:degree is :degree XXX-JJ
p2382
Vactive
p2383
tp2384
V:root
p2385
(V:degree
p2386
V:degree
p2387
tp2388
tp2389
I1
s((V:source :compared-to :arg1-of , :arg0 XXX-VB to himself , i :arg1
p2390
Vactive
p2391
tp2392
V:root
p2393
(V:arg0
p2394
V:arg1
p2395
tp2396
tp2397
I1
s((V:arg1 , XXX-CC :arg1
p2398
g3
tp2399
V:root
p2400
(V:op1
p2401
V:op2
p2402
tp2403
tp2404
I2
s((Vam :polarity :arg1 :arg0 XXX-VB , :manner
p2405
Vactive
p2406
tp2407
V:root
p2408
(V:arg0
p2409
V:arg1
p2410
V:manner
p2411
tp2412
tp2413
I1
s((VXXX-IN :duration-of :duration-of
p2414
g3
tp2415
V:root
p2416
(V:arg1
p2417
V:duration-of
p2418
V:duration-of
p2419
tp2420
tp2421
I1
s((VXXX-NN :domain
p2422
g3
tp2423
V:root
p2424
(V:domain
p2425
tp2426
tp2427
I1
s((V:arg0 :polarity :polarity XXX-VB :arg1 :arg1-of
p2428
Vactive
p2429
tp2430
V:root
p2431
(V:arg0
p2432
V:arg1
p2433
V:polarity
p2434
V:polarity
p2435
tp2436
tp2437
I1
s((V:quant :op1 :arg1 , :arg0 XXX-VB , :arg1-of
p2438
Vactive
p2439
tp2440
V:root
p2441
(V:arg0
p2442
V:arg1
p2443
tp2444
tp2445
I1
s((V:concession throbs , XXX-CC :op2
p2446
g3
tp2447
V:root
p2448
(V:concession
p2449
V:concession
p2450
V:op1
p2451
V:op2
p2452
tp2453
tp2454
I1
s((V:arg0-of , :arg2 :op2
p2455
g3
tp2456
V:root
p2457
(V:arg2
p2458
tp2459
tp2460
I1
s((VXXX-CC :purpose :arg2 :purpose
p2461
g3
tp2462
V:root
p2463
(V:arg2
p2464
tp2465
tp2466
I1
s((VXXX-RB :arg1-of i :arg1
p2467
g3
tp2468
V:root
p2469
(V:arg0
p2470
V:arg1
p2471
V:arg1-of
p2472
tp2473
tp2474
I1
s((Vfor :arg0 :polarity :polarity XXX-VB :arg1
p2475
Vactive
p2476
tp2477
V:root
p2478
(V:arg0
p2479
V:arg1
p2480
V:polarity
p2481
V:polarity
p2482
tp2483
tp2484
I1
s((VXXX-IN it :arg0
p2485
g3
tp2486
V:root
p2487
(V:arg0
p2488
tp2489
tp2490
I1
s((V:arg1 had XXX-VB
p2491
Vactive
p2492
tp2493
V:root
p2494
(V:arg1
p2495
tp2496
tp2497
I1
s((V:arg0 will :time have been XXX-JJ :arg1
p2498
Vactive
p2499
tp2500
V:root
p2501
(V:arg1
p2502
V:polarity
p2503
V:time
p2504
tp2505
tp2506
I1
s((V:mod , XXX-DT
p2507
g3
tp2508
V:root
p2509
(V:mod
p2510
tp2511
tp2512
I3
s((V:arg0 :time XXX-MD :arg1
p2513
Vactive
p2514
tp2515
V:root
p2516
(V:arg1
p2517
tp2518
tp2519
I1
s((V:time :arg0 put :arg1 :time :arg1-of XXX-NN
p2520
g3
tp2521
V:root
p2522
(V:arg0
p2523
V:arg1
p2524
V:arg1-of
p2525
V:time
p2526
V:time
p2527
tp2528
tp2529
I1
s((VXXX-PRP :arg1
p2530
g3
tp2531
V:root
p2532
(V:arg1
p2533
V:time
p2534
tp2535
tp2536
I1
s((VXXX-CC what :op1 :arg1
p2537
g3
tp2538
V:root
p2539
(V:op1
p2540
tp2541
tp2542
I1
s((V:arg0 was XXX-VB :arg1 :location
p2543
Vactive
p2544
tp2545
V:root
p2546
(V:arg0
p2547
V:arg1
p2548
V:location
p2549
tp2550
tp2551
I1
s((VXXX-CC , :arg1-of :arg0 , :arg0 :arg1
p2552
g3
tp2553
V:root
p2554
(V:arg1
p2555
tp2556
tp2557
I1
s((Vare there XXX-NN
p2558
g3
tp2559
V:root
p2560
g6
tp2561
I1
s((V:time :arg1 XXX-MD :arg2
p2562
Vactive
p2563
tp2564
V:root
p2565
(V:arg1
p2566
V:arg2
p2567
V:time
p2568
tp2569
tp2570
I1
s((Vi am :degree :arg1 , :arg0 XXX-VB
p2571
Vactive
p2572
tp2573
V:root
p2574
(V:arg0
p2575
V:arg1
p2576
tp2577
tp2578
I1
s((VXXX-VB :degree :arg1
p2579
Vactive
p2580
tp2581
V:root
p2582
(V:arg1
p2583
tp2584
tp2585
I1
s((VXXX-CC , :arg2 , :arg0 :polarity :arg1
p2586
g3
tp2587
V:root
p2588
(V:arg2
p2589
tp2590
tp2591
I1
s((V:arg0 XXX-VB :arg5 :arg1
p2592
Vactive
p2593
tp2594
V:root
p2595
(V:arg0
p2596
V:arg1
p2597
V:arg5
p2598
V:arg5
p2599
tp2600
tp2601
I1
s((V:arg1 will be XXX-IN :arg2
p2602
Vactive
p2603
tp2604
V:root
p2605
(V:arg1
p2606
V:arg2
p2607
tp2608
tp2609
I1
s((Vthe planet earth , XXX-VB :arg0
p2610
Vactive
p2611
tp2612
V:root
p2613
(V:arg0
p2614
V:arg2
p2615
tp2616
tp2617
I1
s((Vin the XXX-NN :arg1 :arg3-of
p2618
g3
tp2619
V:root
p2620
(V:arg3-of
p2621
tp2622
tp2623
I1
s((V:arg0 XXX-VB :degree :arg1
p2624
Vactive
p2625
tp2626
V:root
p2627
(V:arg0
p2628
V:arg1
p2629
tp2630
tp2631
I1
s((Vbe XXX-PRP$ :arg2
p2632
g3
tp2633
V:root
p2634
(V:arg1
p2635
V:arg2
p2636
tp2637
tp2638
I1
s((V:condition , :arg0 would XXX-VB :arg1
p2639
Vactive
p2640
tp2641
V:root
p2642
(V:arg0
p2643
V:arg1
p2644
V:condition
p2645
V:condition
p2646
tp2647
tp2648
I1
s((VXXX-CC :arg1 you :arg2 :extent
p2649
g3
tp2650
V:root
p2651
(V:arg2
p2652
tp2653
tp2654
I1
s((V:arg0 XXX-VB himself :consist-of :arg2 , :manner :arg2
p2655
Vactive
p2656
tp2657
V:root
p2658
(V:arg0
p2659
V:arg2
p2660
V:manner
p2661
tp2662
tp2663
I1
s((Vbut :arg0 :polarity :polarity XXX-VB :arg2
p2664
Vactive
p2665
tp2666
V:root
p2667
(V:arg0
p2668
V:arg2
p2669
V:polarity
p2670
V:polarity
p2671
tp2672
tp2673
I1
s((VXXX-CC :op1 :domain
p2674
g3
tp2675
V:root
p2676
(V:op1
p2677
tp2678
tp2679
I1
s((Vand XXX-RB :arg1 :arg1
p2680
g3
tp2681
V:root
p2682
(V:arg2
p2683
tp2684
tp2685
I1
s((V:arg0 XXX-VB :arg2 it is :mod :arg0
p2686
Vactive
p2687
tp2688
V:root
p2689
(V:arg0
p2690
V:arg1
p2691
V:arg2
p2692
tp2693
tp2694
I1
s((V:degree XXX-JJ :arg1 are
p2695
g3
tp2696
V:root
p2697
(V:arg1
p2698
V:degree
p2699
tp2700
tp2701
I1
s((V:arg0 will XXX-VB :arg1 , :location
p2702
Vactive
p2703
tp2704
V:root
p2705
(V:arg0
p2706
V:arg1
p2707
tp2708
tp2709
I1
s((V:arg0 has :time XXX-VB :arg1 but :arg1
p2710
Vactive
p2711
tp2712
V:root
p2713
(V:arg0
p2714
V:arg1
p2715
V:arg2-of
p2716
V:arg2-of
p2717
V:polarity
p2718
V:time
p2719
V:time
p2720
V:time
p2721
tp2722
tp2723
I1
s((V:op1 , XXX-CC :op2
p2724
g3
tp2725
V:root
p2726
(V:op1
p2727
V:op2
p2728
V:time
p2729
V:time
p2730
tp2731
tp2732
I1
s((V:arg1 was :manner XXX-VB :arg3
p2733
Vactive
p2734
tp2735
V:root
p2736
(V:arg1
p2737
V:arg3
p2738
V:manner
p2739
tp2740
tp2741
I1
s((V:arg1-of , :arg1 was XXX-VB :arg2
p2742
Vactive
p2743
tp2744
V:root
p2745
(V:arg1
p2746
V:arg2
p2747
tp2748
tp2749
I1
s((VXXX-CC :time :op2
p2750
g3
tp2751
V:root
p2752
(V:op2
p2753
V:op3
p2754
tp2755
tp2756
I1
s((VXXX-CC :op3
p2757
g3
tp2758
V:root
p2759
(V:op2
p2760
tp2761
tp2762
I1
s((VXXX-CC :arg1 :op1
p2763
g3
tp2764
V:root
p2765
(V:op1
p2766
tp2767
tp2768
I1
s((V:arg0 XXX-VB :conj-as-if
p2769
Vactive
p2770
tp2771
V:root
p2772
(V:arg0
p2773
V:arg1
p2774
tp2775
tp2776
I1
s((VXXX-CC , :arg0 , :arg1 :arg2
p2777
g3
tp2778
V:root
p2779
(V:arg2
p2780
tp2781
tp2782
I1
s((V:arg4 :arg0 XXX-VB :arg2
p2783
Vactive
p2784
tp2785
V:root
p2786
(V:arg0
p2787
V:arg2
p2788
V:frequency
p2789
tp2790
tp2791
I1
s((Vthe :mod :arg0 XXX-MD :arg1 :arg2 :op2 she was :degree
p2792
Vactive
p2793
tp2794
V:root
p2795
(V:arg1
p2796
tp2797
tp2798
I1
s((Vit makes it XXX-JJ :arg1 , :condition
p2799
Vactive
p2800
tp2801
V:root
p2802
(V:arg1
p2803
V:condition
p2804
tp2805
tp2806
I1
s((V:arg2 , XXX-VB :arg0
p2807
Vactive
p2808
tp2809
V:root
p2810
(V:arg0
p2811
V:arg1
p2812
tp2813
tp2814
I1
s((V:arg0 :snt1 the XXX-NN :mod :location :snt1 :time :arg1-of
p2815
g3
tp2816
V:root
p2817
(V:snt1
p2818
V:snt1
p2819
V:snt2
p2820
tp2821
tp2822
I1
s((VXXX-NN :arg2
p2823
g3
tp2824
V:root
p2825
(V:arg1
p2826
V:arg2
p2827
tp2828
tp2829
I1
s((VXXX-CC :arg1 :polarity
p2830
g3
tp2831
V:root
p2832
(V:arg1
p2833
tp2834
tp2835
I1
s((V:duration :arg0 :arg1-of been XXX-VB :arg1-of
p2836
Vactive
p2837
tp2838
V:root
p2839
(V:arg0
p2840
V:arg1
p2841
V:arg1-of
p2842
V:arg1-of
p2843
V:duration
p2844
tp2845
tp2846
I1
s((V:time , :frequency :frequency XXX-VB :degree :arg1 :op1
p2847
Vactive
p2848
tp2849
V:root
p2850
(V:arg1
p2851
V:degree
p2852
V:frequency
p2853
V:frequency
p2854
V:time
p2855
tp2856
tp2857
I1
s((V:arg1 , i am XXX-VB :arg0
p2858
Vactive
p2859
tp2860
V:root
p2861
(V:arg0
p2862
V:arg1
p2863
tp2864
tp2865
I1
s((Vbut :arg0 , :arg0-of , had :polarity XXX-NN :arg1
p2866
g3
tp2867
V:root
p2868
(V:arg0
p2869
V:arg1
p2870
V:polarity
p2871
V:polarity
p2872
tp2873
tp2874
I1
s((V:op1 , XXX-CC :op2 :concession , :concession if :arg1
p2875
g3
tp2876
V:root
p2877
(V:op1
p2878
V:op2
p2879
tp2880
tp2881
I1
s((VXXX-CC is it :polarity :op1 matter :arg1 :arg0
p2882
g3
tp2883
V:root
p2884
(V:op1
p2885
tp2886
tp2887
I1
s((Vit XXX-VB :arg2 , :mod , that there was :arg1 :location
p2888
Vactive
p2889
tp2890
V:root
p2891
(V:arg1
p2892
V:arg2
p2893
V:mod
p2894
tp2895
tp2896
I1
s((V:arg1 am :polarity XXX-VB
p2897
Vactive
p2898
tp2899
V:root
p2900
(V:arg1
p2901
V:polarity
p2902
tp2903
tp2904
I1
s((V:arg0 XXX-MD :polarity :mod
p2905
Vactive
p2906
tp2907
V:root
p2908
(V:arg1
p2909
V:mod
p2910
V:polarity
p2911
tp2912
tp2913
I1
s((V:ord , :quant :time , :arg1 was XXX-VB :ord :arg0
p2914
Vactive
p2915
tp2916
V:root
p2917
(V:arg0
p2918
V:arg1
p2919
V:domain
p2920
V:time
p2921
tp2922
tp2923
I1
s((V:mod :arg1 , XXX-VB :arg0
p2924
Vactive
p2925
tp2926
V:root
p2927
(V:arg0
p2928
V:arg1
p2929
tp2930
tp2931
I1
s((V:arg0 :mod XXX-VB :direction , :ord :arg0-of
p2932
Vactive
p2933
tp2934
V:root
p2935
(V:arg0
p2936
V:arg1
p2937
V:direction
p2938
V:mod
p2939
tp2940
tp2941
I1
s((V:arg0 XXX-MD :arg1
p2942
Vactive
p2943
tp2944
V:root
p2945
(V:arg1
p2946
tp2947
tp2948
I8
s((Vthere :time XXX-WDT :mod
p2949
g3
tp2950
V:root
p2951
(V:mod
p2952
V:time
p2953
tp2954
tp2955
I1
s((Vand :arg0 XXX-VB again :arg1
p2956
Vactive
p2957
tp2958
V:root
p2959
(V:arg0
p2960
V:arg1
p2961
V:mod
p2962
tp2963
tp2964
I1
s((V:polite , XXX-VB :arg0
p2965
Vactive
p2966
tp2967
V:root
p2968
(V:arg0
p2969
V:arg1
p2970
tp2971
tp2972
I1
s((VXXX-CC :condition :arg1-of :condition
p2973
g3
tp2974
V:root
p2975
(V:op2
p2976
tp2977
tp2978
I1
s((V:arg0 was XXX-VB , then , :arg1
p2979
Vactive
p2980
tp2981
V:root
p2982
(V:arg0
p2983
V:arg1
p2984
tp2985
tp2986
I1
s((V:condition :arg0 :condition :arg2 , XXX-JJ :arg1
p2987
g3
tp2988
V:root
p2989
(V:arg0
p2990
V:arg1
p2991
V:condition
p2992
V:condition
p2993
tp2994
tp2995
I1
s((V:arg1 would be :degree XXX-VB
p2996
Vactive
p2997
tp2998
V:root
p2999
(V:arg1
p3000
V:degree
p3001
tp3002
tp3003
I1
s((VXXX-CC :arg0 :arg2 :duration :arg1
p3004
g3
tp3005
V:root
p3006
(V:arg2
p3007
tp3008
tp3009
I1
s((VXXX-CC :arg0
p3010
g3
tp3011
V:root
p3012
(V:arg2
p3013
tp3014
tp3015
I1
s((VXXX-JJ :arg0
p3016
g3
tp3017
V:root
p3018
(V:arg0
p3019
tp3020
tp3021
I1
s((V:arg0 XXX-VB :polarity :arg0-of
p3022
Vactive
p3023
tp3024
V:root
p3025
(V:arg0
p3026
V:arg1
p3027
V:polarity
p3028
tp3029
tp3030
I1
s((VXXX-VB :arg1 :manner that :purpose :arg0 :condition
p3031
Vactive
p3032
tp3033
V:root
p3034
(V:arg0
p3035
V:arg1
p3036
V:manner
p3037
V:purpose
p3038
tp3039
tp3040
I1
s((V:domain am :domain XXX-NN
p3041
g3
tp3042
V:root
p3043
(V:domain
p3044
V:domain
p3045
tp3046
tp3047
I1
s((VXXX-CC :domain is :polarity :arg2
p3048
g3
tp3049
V:root
p3050
(V:arg2
p3051
tp3052
tp3053
I1
s((V:arg1 , :mod , :arg0 XXX-VB
p3054
Vactive
p3055
tp3056
V:root
p3057
(V:arg0
p3058
V:arg1
p3059
tp3060
tp3061
I1
s((V:arg0 shall :polarity XXX-VB :arg1
p3062
Vactive
p3063
tp3064
V:root
p3065
(V:arg0
p3066
V:arg1
p3067
V:polarity
p3068
tp3069
tp3070
I2
s((V:time i was :time , :op1 of :arg0 , :op2 of :poss , :op3 , :poss to XXX-VB :arg0 , :manner , :arg1 :arg1-of
p3071
Vactive
p3072
tp3073
V:root
p3074
(V:arg0
p3075
V:arg1
p3076
V:manner
p3077
V:time
p3078
V:time
p3079
tp3080
tp3081
I1
s((VXXX-RB :domain is
p3082
g3
tp3083
V:root
p3084
(V:domain
p3085
tp3086
tp3087
I1
s((V:arg2 :mod , :arg0 XXX-VB
p3088
Vactive
p3089
tp3090
V:root
p3091
(V:arg0
p3092
V:arg2
p3093
tp3094
tp3095
I1
s((V:purpose are :arg0 XXX-VB :arg2 :purpose
p3096
Vactive
p3097
tp3098
V:root
p3099
(V:arg0
p3100
V:arg2
p3101
V:purpose
p3102
V:purpose
p3103
tp3104
tp3105
I1
s((VXXX-VB :arg0
p3106
Vactive
p3107
tp3108
V:root
p3109
(V:arg0
p3110
V:arg1
p3111
V:manner
p3112
tp3113
tp3114
I1
s((V:arg0 XXX-MD :polarity :arg1
p3115
Vactive
p3116
tp3117
V:root
p3118
(V:arg1
p3119
V:polarity
p3120
tp3121
tp3122
I4
s((V:arg0 XXX-VB :arg1
p3123
Vactive
p3124
tp3125
V:root
p3126
(V:arg0
p3127
V:arg1
p3128
V:arg2
p3129
tp3130
tp3131
I2
s((V:domain is :polarity the :mod XXX-NN
p3132
g3
tp3133
V:root
p3134
(V:domain
p3135
V:mod
p3136
tp3137
tp3138
I1
s((V:op1 , :op2 XXX-.
p3139
g3
tp3140
V:root
p3141
(V:op1
p3142
V:op2
p3143
tp3144
tp3145
I1
s((V:arg0 :source-of XXX-VB :arg1 :beneficiary
p3146
Vactive
p3147
tp3148
V:root
p3149
(V:arg0
p3150
V:arg1
p3151
V:beneficiary
p3152
tp3153
tp3154
I1
s((V:arg0 , XXX-VB :arg0 :manner , :arg1 :polarity :polarity :arg1-of
p3155
Vactive
p3156
tp3157
V:root
p3158
(V:arg0
p3159
V:arg1
p3160
tp3161
tp3162
I1
s((V:domain is :polarity :domain who :arg0-of XXX-RP :purpose
p3163
g3
tp3164
V:root
p3165
(V:arg0-of
p3166
V:domain
p3167
V:domain
p3168
tp3169
tp3170
I1
s((V:arg0 XXX-NN :arg1 :arg2
p3171
g3
tp3172
V:root
p3173
(V:arg0
p3174
V:arg1
p3175
V:arg2
p3176
tp3177
tp3178
I1
s((V:arg0 will XXX-VB :arg2 :arg1
p3179
Vactive
p3180
tp3181
V:root
p3182
(V:arg0
p3183
V:arg1
p3184
V:arg2
p3185
tp3186
tp3187
I1
s((VXXX-CC , :time :op1 , :arg2 :arg1 :arg2
p3188
g3
tp3189
V:root
p3190
(V:arg2
p3191
tp3192
tp3193
I1
s((VXXX-NN :arg0-of :arg1 :arg0-of
p3194
g3
tp3195
V:root
p3196
(V:arg0-of
p3197
V:arg0-of
p3198
tp3199
tp3200
I1
s((Vyes , XXX-DT 's it
p3201
g3
tp3202
V:root
p3203
g6
tp3204
I1
s((V:arg0 XXX-VB :arg1 :arg1-of
p3205
Vactive
p3206
tp3207
V:root
p3208
(V:arg0
p3209
V:arg1
p3210
tp3211
tp3212
I2
s((V:op1 :domain was XXX-RB :op2
p3213
Vactive
p3214
tp3215
V:root
p3216
(V:op1
p3217
V:op2
p3218
tp3219
tp3220
I1
s((VXXX-CC :arg0 :degree :op2
p3221
g3
tp3222
V:root
p3223
(V:op2
p3224
tp3225
tp3226
I1
s((Vwhatever does :arg1 XXX-VB :arg2
p3227
Vactive
p3228
tp3229
V:root
p3230
(V:arg1
p3231
V:arg2
p3232
tp3233
tp3234
I1
s((VXXX-CC :compared-to
p3235
g3
tp3236
V:root
p3237
(V:arg2
p3238
tp3239
tp3240
I1
s((Vi have :polarity :arg1 , :arg0 XXX-VB :arg1 :arg2
p3241
Vactive
p3242
tp3243
V:root
p3244
(V:arg0
p3245
V:arg1
p3246
V:arg2
p3247
tp3248
tp3249
I1
s((Vi :arg1 :arg1 , :arg0 XXX-VB :arg2 :time
p3250
Vactive
p3251
tp3252
V:root
p3253
(V:arg0
p3254
V:arg1
p3255
V:arg2
p3256
V:time
p3257
tp3258
tp3259
I1
s((VXXX-CC :arg1-of :time :arg2
p3260
g3
tp3261
V:root
p3262
(V:arg2
p3263
tp3264
tp3265
I1
s((V:arg0 XXX-VB :arg1
p3266
Vactive
p3267
tp3268
V:root
p3269
(V:arg0
p3270
V:arg1
p3271
tp3272
tp3273
I30
s((V:arg1 would be XXX-VB :arg1-of :arg2
p3274
Vactive
p3275
tp3276
V:root
p3277
(V:arg1
p3278
tp3279
tp3280
I1
s((V:arg1-of :arg1 XXX-VB :mod :arg2
p3281
Vactive
p3282
tp3283
V:root
p3284
(V:arg1
p3285
V:arg2
p3286
V:mod
p3287
tp3288
tp3289
I1
s((V:arg0 shall :polarity XXX-VB :arg1 ,
p3290
Vactive
p3291
tp3292
V:root
p3293
(V:arg0
p3294
V:arg1
p3295
V:polarity
p3296
tp3297
tp3298
I1
s((V:arg0 XXX-VB :op1
p3299
Vactive
p3300
tp3301
V:root
p3302
(V:arg0
p3303
V:arg1
p3304
tp3305
tp3306
I1
s((V:arg0 :polarity :polarity XXX-VB :arg1 :time
p3307
Vactive
p3308
tp3309
V:root
p3310
(V:arg0
p3311
V:arg1
p3312
V:polarity
p3313
V:polarity
p3314
V:time
p3315
tp3316
tp3317
I1
s((V:arg0 :op1 XXX-CC :op1 :op1 , :op2 was , :arg1-of :arg1-of
p3318
g3
tp3319
V:root
p3320
(V:op1
p3321
V:op1
p3322
tp3323
tp3324
I1
s((V:domain was :arg0-of who XXX-VB :arg1
p3325
Vactive
p3326
tp3327
V:root
p3328
(V:arg0
p3329
V:arg1
p3330
tp3331
tp3332
I1
s((V:arg0 XXX-MD :arg1
p3333
Vactive
p3334
tp3335
V:root
p3336
(V:arg1
p3337
V:condition
p3338
tp3339
tp3340
I1
s((V:domain is :degree :degree XXX-JJ :domain
p3341
Vactive
p3342
tp3343
V:root
p3344
(V:compared-to
p3345
V:degree
p3346
V:domain
p3347
V:domain
p3348
tp3349
tp3350
I1
s((V:arg1 :arg0 XXX-VB :arg2
p3351
Vactive
p3352
tp3353
V:root
p3354
(V:arg0
p3355
V:arg1
p3356
V:arg2
p3357
tp3358
tp3359
I1
s((VXXX-CC :arg0 :arg2 you know , :arg1
p3360
g3
tp3361
V:root
p3362
(V:arg2
p3363
tp3364
tp3365
I1
s((V:location XXX-PRP is
p3366
g3
tp3367
V:root
p3368
(V:location
p3369
tp3370
tp3371
I1
s((V:arg1 was XXX-VB :ord :arg0
p3372
Vactive
p3373
tp3374
V:root
p3375
(V:arg0
p3376
V:arg1
p3377
tp3378
tp3379
I1
s((VXXX-CC :op2
p3380
g3
tp3381
V:root
p3382
(V:op2
p3383
tp3384
tp3385
I3
s((V:arg1 XXX-NN are :arg1-of :arg2
p3386
g3
tp3387
V:root
p3388
(V:arg1
p3389
V:arg1-of
p3390
tp3391
tp3392
I1
s((VXXX-CC :arg0 :arg2 , and :arg1
p3393
g3
tp3394
V:root
p3395
(V:arg2
p3396
tp3397
tp3398
I1
s((VXXX-CC :arg1 :op2
p3399
g3
tp3400
V:root
p3401
(V:op2
p3402
tp3403
tp3404
I7
s((V:arg1 was XXX-VB :arg0 :arg0-of
p3405
Vactive
p3406
tp3407
V:root
p3408
(V:arg0
p3409
V:arg1
p3410
tp3411
tp3412
I1
s((Vand what :arg1 :arg1 :arg0 XXX-VB
p3413
Vactive
p3414
tp3415
V:root
p3416
(V:arg0
p3417
V:arg1
p3418
tp3419
tp3420
I1
s((V:arg1 , XXX-CC :domain
p3421
g3
tp3422
V:root
p3423
(V:arg1
p3424
V:arg2
p3425
tp3426
tp3427
I1
s((Vis :domain XXX-DT that :arg1-of
p3428
g3
tp3429
V:root
p3430
(V:arg1-of
p3431
V:domain
p3432
tp3433
tp3434
I1
s((V:location , :arg0-of , was one of :arg2-of :arg1-of XXX-NN :arg1-of :arg2-of
p3435
g3
tp3436
V:root
p3437
(V:arg0-of
p3438
V:arg1-of
p3439
V:arg1-of
p3440
V:arg2-of
p3441
V:arg2-of
p3442
V:location
p3443
V:location
p3444
tp3445
tp3446
I1
s((V:arg1 am :mod XXX-JJ
p3447
Vactive
p3448
tp3449
V:root
p3450
(V:arg1
p3451
V:mod
p3452
tp3453
tp3454
I1
s((VXXX-IN :mod :domain are :mod :arg1
p3455
g3
tp3456
V:root
p3457
(V:arg0
p3458
V:arg1
p3459
tp3460
tp3461
I1
s((V:arg0 was XXX-JJ , there :mod
p3462
Vactive
p3463
tp3464
V:root
p3465
(V:arg0
p3466
V:mod
p3467
tp3468
tp3469
I1
s((V:arg0 shall XXX-VB :arg2
p3470
Vactive
p3471
tp3472
V:root
p3473
(V:arg0
p3474
V:arg2
p3475
tp3476
tp3477
I1
s((VXXX-CC :time :arg1 :op2
p3478
g3
tp3479
V:root
p3480
(V:op2
p3481
V:time
p3482
tp3483
tp3484
I2
s((VXXX-CC what :op2 :arg1
p3485
g3
tp3486
V:root
p3487
(V:op2
p3488
tp3489
tp3490
I1
s((V:arg0 :op1 , XXX-CC :arg1
p3491
g3
tp3492
V:root
p3493
(V:op1
p3494
V:op2
p3495
tp3496
tp3497
I1
s((V:arg0 XXX-MD :mod :arg1
p3498
Vactive
p3499
tp3500
V:root
p3501
(V:arg1
p3502
tp3503
tp3504
I1
s((V:arg0 XXX-VB :arg2 , :arg1-of :arg1 :arg1
p3505
Vactive
p3506
tp3507
V:root
p3508
(V:arg0
p3509
V:arg1
p3510
V:arg1-of
p3511
V:arg2
p3512
tp3513
tp3514
I1
s((V:time , :arg0 XXX-VB :mod :arg1
p3515
Vactive
p3516
tp3517
V:root
p3518
(V:arg0
p3519
V:arg1
p3520
V:purpose
p3521
tp3522
tp3523
I1
s((V:domain is :degree XXX-JJ
p3524
Vactive
p3525
tp3526
V:root
p3527
(V:degree
p3528
V:domain
p3529
tp3530
tp3531
I1
s((Vit is :arg1 :arg1 , :arg0 XXX-VB :arg2
p3532
Vactive
p3533
tp3534
V:root
p3535
(V:arg0
p3536
V:arg1
p3537
V:arg2
p3538
tp3539
tp3540
I1
s((V:domain would be XXX-JJ
p3541
Vactive
p3542
tp3543
V:root
p3544
(V:domain
p3545
tp3546
tp3547
I1
s((VXXX-VB :arg2 :quant
p3548
Vactive
p3549
tp3550
V:root
p3551
(V:arg1
p3552
V:arg2
p3553
V:purpose
p3554
tp3555
tp3556
I1
s((VXXX-CC :arg0 :op2 :arg2
p3557
g3
tp3558
V:root
p3559
(V:op2
p3560
tp3561
tp3562
I1
s((V:arg2-of XXX-NN :arg2-of
p3563
g3
tp3564
V:root
p3565
(V:arg0
p3566
V:arg1-of
p3567
V:arg2-of
p3568
V:arg2-of
p3569
tp3570
tp3571
I1
s((V:time XXX-VB :location , :mod :op1 , :concession :concession :arg0-of
p3572
Vactive
p3573
tp3574
V:root
p3575
(V:arg0
p3576
V:arg1
p3577
V:mod
p3578
V:time
p3579
V:time
p3580
tp3581
tp3582
I1
s((V:condition , :arg1 take XXX-RP :op1 it is yours
p3583
Vactive
p3584
tp3585
V:root
p3586
(V:condition
p3587
V:op1
p3588
V:op2
p3589
tp3590
tp3591
I1
s((V:arg1 has XXX-VB out
p3592
Vactive
p3593
tp3594
V:root
p3595
(V:arg1
p3596
tp3597
tp3598
I1
s((V:condition , :time :time :arg0 shall XXX-VB :arg1
p3599
Vactive
p3600
tp3601
V:root
p3602
(V:arg0
p3603
V:arg1
p3604
V:condition
p3605
V:condition
p3606
V:time
p3607
V:time
p3608
tp3609
tp3610
I1
s((V:arg0 :manner XXX-VB :arg1
p3611
Vactive
p3612
tp3613
V:root
p3614
(V:arg0
p3615
V:arg1
p3616
V:manner
p3617
tp3618
tp3619
I1
s((Vthere is :polarity XXX-JJ :polarity :arg0
p3620
g3
tp3621
V:root
p3622
(V:arg0
p3623
V:polarity
p3624
V:polarity
p3625
tp3626
tp3627
I1
s((VXXX-CC :arg1 :arg0 :arg1
p3628
g3
tp3629
V:root
p3630
(V:op2
p3631
tp3632
tp3633
I2
s((VXXX-NN :mod
p3634
g3
tp3635
V:root
p3636
(V:mod
p3637
tp3638
tp3639
I22
s((VXXX-RB the :arg0 :arg1
p3640
g3
tp3641
V:root
p3642
(V:arg1
p3643
tp3644
tp3645
I1
s((VXXX-CC :condition , :arg0 :arg2
p3646
g3
tp3647
V:root
p3648
(V:arg2
p3649
tp3650
tp3651
I1
s((V:arg1 were XXX-VB :poss :arg0
p3652
Vactive
p3653
tp3654
V:root
p3655
(V:arg0
p3656
V:arg1
p3657
tp3658
tp3659
I1
s((V:arg2 , XXX-VB :arg0-of , :manner :arg0
p3660
Vactive
p3661
tp3662
V:root
p3663
(V:arg0
p3664
V:arg2
p3665
V:manner
p3666
V:manner
p3667
tp3668
tp3669
I1
s((V:arg0 have :polarity yet :polarity a :arg1-of XXX-NN :arg1
p3670
g3
tp3671
V:root
p3672
(V:arg0
p3673
V:arg1
p3674
V:arg1-of
p3675
V:polarity
p3676
V:polarity
p3677
tp3678
tp3679
I1
s((V:arg0 :polarity :polarity XXX-VB myself :arg2
p3680
Vactive
p3681
tp3682
V:root
p3683
(V:arg0
p3684
V:arg2
p3685
V:polarity
p3686
V:polarity
p3687
tp3688
tp3689
I1
s((V:domain is :mod :degree XXX-JJ
p3690
Vactive
p3691
tp3692
V:root
p3693
(V:degree
p3694
V:domain
p3695
tp3696
tp3697
I1
s((V:time :duration :arg0 :duration XXX-JJ :arg1
p3698
g3
tp3699
V:root
p3700
(V:arg0
p3701
V:arg1
p3702
V:time
p3703
tp3704
tp3705
I1
s((V:arg1 :op1 , XXX-CC :op2
p3706
g3
tp3707
V:root
p3708
(V:op1
p3709
V:op2
p3710
tp3711
tp3712
I1
s((V:arg1 , XXX-VB :arg0 :arg1-of of :arg0
p3713
Vactive
p3714
tp3715
V:root
p3716
(V:arg0
p3717
V:arg1
p3718
tp3719
tp3720
I1
s((V:time :arg0 XXX-VB to myself :arg1-of :arg2 :arg1
p3721
Vactive
p3722
tp3723
V:root
p3724
(V:arg0
p3725
V:arg1
p3726
V:time
p3727
tp3728
tp3729
I1
s((VXXX-VB :arg2 :arg1 :arg1
p3730
Vactive
p3731
tp3732
V:root
p3733
(V:arg1
p3734
V:arg2
p3735
tp3736
tp3737
I1
s((V:arg1 XXX-CC :arg2
p3738
g3
tp3739
V:root
p3740
(V:arg1
p3741
V:arg2
p3742
tp3743
tp3744
I1
s((V:arg1 XXX-VB
p3745
Vactive
p3746
tp3747
V:root
p3748
(V:arg0
p3749
V:arg1
p3750
V:mod
p3751
tp3752
tp3753
I1
s((V:arg1 , :arg0 XXX-VB :arg2
p3754
Vactive
p3755
tp3756
V:root
p3757
(V:arg0
p3758
V:arg1
p3759
V:arg2
p3760
tp3761
tp3762
I4
s((VXXX-RB :domain :arg1 :domain
p3763
g3
tp3764
V:root
p3765
(V:arg1
p3766
tp3767
tp3768
I1
s((V:domain are :mod XXX-NN :arg1-of
p3769
g3
tp3770
V:root
p3771
(V:arg1-of
p3772
V:domain
p3773
V:mod
p3774
tp3775
tp3776
I1
s((V:arg0 had :frequency XXX-VB :arg1
p3777
Vactive
p3778
tp3779
V:root
p3780
(V:arg0
p3781
V:arg1
p3782
V:frequency
p3783
V:frequency
p3784
tp3785
tp3786
I1
s((V:frequency :mod :arg0 XXX-VB :arg1
p3787
Vactive
p3788
tp3789
V:root
p3790
(V:arg0
p3791
V:arg1
p3792
V:mod
p3793
tp3794
tp3795
I1
s((V:polarity XXX-CC :time :time :arg0
p3796
g3
tp3797
V:root
p3798
(V:op1
p3799
V:op2
p3800
tp3801
tp3802
I1
s((V:arg1 were :mod XXX-JJ :arg0
p3803
Vactive
p3804
tp3805
V:root
p3806
(V:arg0
p3807
V:arg1
p3808
V:mod
p3809
tp3810
tp3811
I1
s((Vis :arg0 :polarity of :arg1 :compared-to XXX-DT :arg1-of :arg1-of :part :compared-to
p3812
g3
tp3813
V:root
p3814
(V:arg0
p3815
V:arg1
p3816
V:polarity
p3817
tp3818
tp3819
I1
s((V:arg1 XXX-VB :location :location :op1
p3820
Vactive
p3821
tp3822
V:root
p3823
(V:arg1
p3824
V:location
p3825
V:location
p3826
tp3827
tp3828
I1
s((V:arg1 :arg1 XXX-VB :arg0-of
p3829
Vactive
p3830
tp3831
V:root
p3832
(V:arg0
p3833
V:arg1
p3834
tp3835
tp3836
I1
s((V:arg1 is XXX-JJ :example :arg2 :op3
p3837
Vactive
p3838
tp3839
V:root
p3840
(V:arg1
p3841
V:arg2
p3842
tp3843
tp3844
I1
s((V:condition , :polite XXX-NN :arg1
p3845
g3
tp3846
V:root
p3847
(V:arg1
p3848
V:condition
p3849
V:polite
p3850
tp3851
tp3852
I1
s((V:arg0 is a XXX-NN , :arg0-of , :arg0-of
p3853
g3
tp3854
V:root
p3855
(V:arg0-of
p3856
V:arg1-of
p3857
tp3858
tp3859
I1
s((V:arg2 , :arg0 XXX-VB to him , i :arg1
p3860
Vactive
p3861
tp3862
V:root
p3863
(V:arg0
p3864
V:arg1
p3865
V:arg2
p3866
tp3867
tp3868
I1
s((V:arg1 , :arg0-of XXX-VB , :arg0-of
p3869
Vactive
p3870
tp3871
V:root
p3872
(V:arg0
p3873
V:arg1
p3874
tp3875
tp3876
I1
s((VXXX-CC :arg0
p3877
g3
tp3878
V:root
p3879
(V:op1
p3880
tp3881
tp3882
I1
s((V:arg0 XXX-VB :arg1 :arg1-of :arg2
p3883
Vactive
p3884
tp3885
V:root
p3886
(V:arg0
p3887
V:arg1
p3888
tp3889
tp3890
I1
s((Vyes , :arg0 XXX-VB
p3891
Vactive
p3892
tp3893
V:root
p3894
(V:arg0
p3895
tp3896
tp3897
I3
s((V:arg0 XXX-VB , :arg1 :arg1
p3898
Vactive
p3899
tp3900
V:root
p3901
(V:arg0
p3902
V:arg1
p3903
tp3904
tp3905
I1
s((Vwhat XXX-VB :arg1 :arg0
p3906
Vactive
p3907
tp3908
V:root
p3909
(V:arg0
p3910
V:arg1
p3911
V:arg2
p3912
V:time
p3913
tp3914
tp3915
I1
s((V:arg1 is :arg0 XXX-JJ
p3916
g3
tp3917
V:root
p3918
(V:arg0
p3919
V:arg1
p3920
tp3921
tp3922
I1
s((Vthere was :arg1 XXX-CC :arg2 :arg2
p3923
g3
tp3924
V:root
p3925
(V:arg1
p3926
V:arg2
p3927
tp3928
tp3929
I1
s((V:arg1 XXX-MD :arg2
p3930
Vactive
p3931
tp3932
V:root
p3933
(V:arg1
p3934
V:arg2
p3935
tp3936
tp3937
I2
s((VXXX-CC :arg0 :time :arg2
p3938
g3
tp3939
V:root
p3940
(V:arg2
p3941
tp3942
tp3943
I1
s((V:arg1 , :arg0-of , am :degree XXX-JJ :arg0 :arg0
p3944
Vactive
p3945
tp3946
V:root
p3947
(V:arg0
p3948
V:arg1
p3949
V:degree
p3950
tp3951
tp3952
I1
s((V:arg1 are XXX-IN :arg2 :time
p3953
Vactive
p3954
tp3955
V:root
p3956
(V:arg1
p3957
V:arg2
p3958
V:time
p3959
tp3960
tp3961
I1
s((V:time :arg0 XXX-VB :arg1 :purpose
p3962
Vactive
p3963
tp3964
V:root
p3965
(V:arg0
p3966
V:arg1
p3967
V:degree
p3968
V:degree
p3969
V:purpose
p3970
V:time
p3971
tp3972
tp3973
I1
s((V:arg1 , XXX-CC :arg2
p3974
g3
tp3975
V:root
p3976
(V:arg1
p3977
V:arg2
p3978
tp3979
tp3980
I2
s((V:domain is the XXX-NN
p3981
g3
tp3982
V:root
p3983
(V:domain
p3984
tp3985
tp3986
I3
s((V:arg1 was XXX-DT :mod :arg2
p3987
g3
tp3988
V:root
p3989
(V:arg1
p3990
V:arg2
p3991
tp3992
tp3993
I1
s((V:arg0 was XXX-VB :arg1
p3994
Vactive
p3995
tp3996
V:root
p3997
(V:arg0
p3998
V:arg1
p3999
tp4000
tp4001
I1
s((V:time , XXX-VB :arg0
p4002
Vactive
p4003
tp4004
V:root
p4005
(V:arg0
p4006
V:arg1
p4007
tp4008
tp4009
I1
s((Vif i ordered a general , :arg0 would XXX-VB , :condition-of , :arg1 , and :condition-of
p4010
Vactive
p4011
tp4012
V:root
p4013
(V:arg0
p4014
V:arg0-of
p4015
V:arg0-of
p4016
V:arg1
p4017
tp4018
tp4019
I1
s((V:arg0 :polarity :polarity :degree :degree XXX-NN
p4020
g3
tp4021
V:root
p4022
(V:arg0
p4023
V:degree
p4024
V:degree
p4025
tp4026
tp4027
I1
s((Vwhat are :arg0 XXX-VB :arg1 :arg1
p4028
Vactive
p4029
tp4030
V:root
p4031
(V:arg0
p4032
V:arg1
p4033
tp4034
tp4035
I2
s((VXXX-NN :topic
p4036
g3
tp4037
V:root
p4038
(V:topic
p4039
tp4040
tp4041
I1
s((V:op1 , these would XXX-VB :arg0 :purpose
p4042
Vactive
p4043
tp4044
V:root
p4045
(V:arg0
p4046
V:purpose
p4047
V:time
p4048
tp4049
tp4050
I1
s((V:arg1 , XXX-VB :arg0
p4051
Vactive
p4052
tp4053
V:root
p4054
(V:arg0
p4055
V:arg1
p4056
tp4057
tp4058
I43
s((V:duration :arg1-of been XXX-VB :arg1-of
p4059
Vactive
p4060
tp4061
V:root
p4062
(V:arg1
p4063
V:arg1-of
p4064
V:arg1-of
p4065
V:time
p4066
tp4067
tp4068
I1
s((Vso :arg1 :arg1-of :time XXX-VB :arg2
p4069
Vactive
p4070
tp4071
V:root
p4072
(V:arg1
p4073
V:arg1-of
p4074
V:arg2
p4075
V:concession
p4076
V:concession
p4077
V:time
p4078
V:time
p4079
tp4080
tp4081
I1
s((VXXX-CC :arg1 :arg2
p4082
g3
tp4083
V:root
p4084
(V:arg2
p4085
tp4086
tp4087
I4
s((V:time , :arg1 shall :time be :op1 XXX-CC :op2 :direction
p4088
Vactive
p4089
tp4090
V:root
p4091
(V:op1
p4092
V:op2
p4093
V:time
p4094
V:time
p4095
tp4096
tp4097
I1
s((V:arg0 XXX-MD
p4098
Vactive
p4099
tp4100
V:root
p4101
(V:arg0
p4102
tp4103
tp4104
I1
s((V:domain are :arg1-of XXX-NN
p4105
g3
tp4106
V:root
p4107
(V:arg1-of
p4108
V:domain
p4109
tp4110
tp4111
I1
s((V:arg1 , :arg0 XXX-VB :quant :time
p4112
Vactive
p4113
tp4114
V:root
p4115
(V:arg0
p4116
V:arg1
p4117
V:time
p4118
tp4119
tp4120
I1
s((V:arg0 will XXX-VB :direction
p4121
Vactive
p4122
tp4123
V:root
p4124
(V:arg0
p4125
V:arg1
p4126
V:arg2
p4127
V:direction
p4128
tp4129
tp4130
I1
s((V:arg1 :arg0 XXX-VB
p4131
Vactive
p4132
tp4133
V:root
p4134
(V:arg0
p4135
V:arg1
p4136
tp4137
tp4138
I1
s((V:arg2 :arg1 XXX-VB :op1 :arg2 :op2
p4139
Vactive
p4140
tp4141
V:root
p4142
(V:arg1
p4143
V:arg2
p4144
V:frequency
p4145
V:frequency
p4146
tp4147
tp4148
I1
s((VXXX-DT XXX-NN
p4149
g3
tp4150
V:root
p4151
g6
tp4152
I1
s((V:arg1 was :mod XXX-VB :purpose
p4153
Vactive
p4154
tp4155
V:root
p4156
(V:arg1
p4157
V:mod
p4158
V:purpose
p4159
tp4160
tp4161
I1
s((V:time , :time :op1 , :arg0 XXX-VB :arg4 :arg1
p4162
Vactive
p4163
tp4164
V:root
p4165
(V:arg0
p4166
V:arg1
p4167
V:time
p4168
V:time
p4169
tp4170
tp4171
I1
s((V:time :arg0 XXX-VB :arg1
p4172
Vactive
p4173
tp4174
V:root
p4175
(V:arg0
p4176
V:arg1
p4177
V:time
p4178
tp4179
tp4180
I1
s((V:domain is :domain :mod XXX-NN :arg1-of
p4181
g3
tp4182
V:root
p4183
(V:arg1-of
p4184
V:domain
p4185
V:domain
p4186
V:mod
p4187
tp4188
tp4189
I1
s((V:arg0 :op1 , XXX-CC :op2 :mod :arg2
p4190
g3
tp4191
V:root
p4192
(V:op1
p4193
V:op2
p4194
tp4195
tp4196
I1
s((Vwhat has XXX-VB :arg1 :arg2 :arg0
p4197
Vactive
p4198
tp4199
V:root
p4200
(V:arg0
p4201
V:arg1
p4202
V:arg2
p4203
tp4204
tp4205
I1
s((Vi :arg1 , :arg0 XXX-VB , :arg1 :location :purpose :arg0 :purpose
p4206
Vactive
p4207
tp4208
V:root
p4209
(V:arg0
p4210
V:arg1
p4211
tp4212
tp4213
I1
s((Vis :arg1 in XXX-NN :arg1-of :arg0
p4214
g3
tp4215
V:root
p4216
(V:arg1
p4217
V:arg1-of
p4218
tp4219
tp4220
I1
s((V:arg0 XXX-VB :arg1
p4221
Vactive
p4222
tp4223
V:root
p4224
(V:arg0
p4225
V:arg1
p4226
V:purpose
p4227
tp4228
tp4229
I1
s((V:arg0 was :polarity XXX-JJ :op2
p4230
Vactive
p4231
tp4232
V:root
p4233
(V:arg1
p4234
V:polarity
p4235
tp4236
tp4237
I1
s((VXXX-VB :arg1
p4238
Vactive
p4239
tp4240
V:root
p4241
(V:arg1
p4242
V:arg2
p4243
tp4244
tp4245
I1
s((V:op2 XXX-VB :arg2 two
p4246
Vactive
p4247
tp4248
V:root
p4249
(V:arg1
p4250
V:arg2
p4251
tp4252
tp4253
I1
s((Vi XXX-VB , :arg0 :arg1
p4254
Vactive
p4255
tp4256
V:root
p4257
(V:arg1
p4258
tp4259
tp4260
I1
s((V:arg1 , :arg0 XXX-VB :manner , :manner
p4261
Vactive
p4262
tp4263
V:root
p4264
(V:arg0
p4265
V:arg1
p4266
V:manner
p4267
V:manner
p4268
tp4269
tp4270
I1
s((VXXX-IN :arg0 :arg1
p4271
g3
tp4272
V:root
p4273
(V:arg1
p4274
tp4275
tp4276
I2
s((VXXX-CC :time :arg0 :op1 :op2
p4277
g3
tp4278
V:root
p4279
(V:op1
p4280
tp4281
tp4282
I1
s((VXXX-CC :time :arg1 :time :arg1-of :arg1
p4283
g3
tp4284
V:root
p4285
(V:op2
p4286
tp4287
tp4288
I1
s((V:domain is , XXX-TO :arg0 , :arg1
p4289
Vactive
p4290
tp4291
V:root
p4292
(V:arg0
p4293
V:arg1
p4294
tp4295
tp4296
I1
s((V:arg0 XXX-VB :arg1 :arg1-of
p4297
Vactive
p4298
tp4299
V:root
p4300
(V:arg0
p4301
V:arg1
p4302
V:arg1-of
p4303
tp4304
tp4305
I1
s((VXXX-TO :arg0 , :domain :mod
p4306
g3
tp4307
V:root
p4308
(V:arg0
p4309
V:arg1
p4310
tp4311
tp4312
I1
s((VXXX-IN :arg1-of was :arg1 :arg2
p4313
g3
tp4314
V:root
p4315
(V:arg0
p4316
V:arg1
p4317
tp4318
tp4319
I1
s((V:quant XXX-.
p4320
g3
tp4321
V:root
p4322
(V:quant
p4323
tp4324
tp4325
I1
s((VXXX-PRP :location
p4326
g3
tp4327
V:root
p4328
(V:location
p4329
tp4330
tp4331
I1
s((VXXX-CC :arg0 :op1 :arg1
p4332
g3
tp4333
V:root
p4334
(V:op1
p4335
tp4336
tp4337
I1
s((V:arg0 will XXX-VB :arg0 :arg2
p4338
Vactive
p4339
tp4340
V:root
p4341
(V:arg0
p4342
V:arg1
p4343
tp4344
tp4345
I1
s((V:arg1 XXX-VB :direction
p4346
Vactive
p4347
tp4348
V:root
p4349
(V:arg1
p4350
V:direction
p4351
V:time
p4352
tp4353
tp4354
I1
s((V:time :arg0 was :arg1-of XXX-VB :arg1
p4355
Vactive
p4356
tp4357
V:root
p4358
(V:arg0
p4359
V:arg1
p4360
V:time
p4361
tp4362
tp4363
I1
s((VXXX-IN :arg0 , :domain :arg1
p4364
g3
tp4365
V:root
p4366
(V:arg0
p4367
V:arg1
p4368
tp4369
tp4370
I1
s((VXXX-CC so :arg0 :op2 :arg2
p4371
g3
tp4372
V:root
p4373
(V:op2
p4374
tp4375
tp4376
I1
s((Vwhat is it that :arg0 are XXX-VB for :arg1
p4377
Vactive
p4378
tp4379
V:root
p4380
(V:arg0
p4381
V:arg1
p4382
tp4383
tp4384
I1
s((Vas for me , :arg1 was XXX-VB :arg0
p4385
Vactive
p4386
tp4387
V:root
p4388
(V:arg0
p4389
V:arg1
p4390
tp4391
tp4392
I1
s((VXXX-RB ,
p4393
g3
tp4394
V:root
p4395
g6
tp4396
I2
s((V:arg0 XXX-VB :arg1-of
p4397
Vactive
p4398
tp4399
V:root
p4400
(V:arg0
p4401
V:arg1-of
p4402
tp4403
tp4404
I1
s((VXXX-VB :direction :time
p4405
Vactive
p4406
tp4407
V:root
p4408
(V:direction
p4409
V:time
p4410
tp4411
tp4412
I1
s((V:time :arg0 :polarity :polarity XXX-VB :arg1
p4413
Vactive
p4414
tp4415
V:root
p4416
(V:arg0
p4417
V:arg1
p4418
V:polarity
p4419
V:polarity
p4420
V:time
p4421
V:time
p4422
tp4423
tp4424
I1
s((VXXX-CC :arg2 at :mod , :arg1 :mod
p4425
g3
tp4426
V:root
p4427
(V:arg2
p4428
tp4429
tp4430
I1
s((V:arg1-of :arg2 , :arg0 XXX-VB :manner , :concession :time :time he :concession
p4431
Vactive
p4432
tp4433
V:root
p4434
(V:arg0
p4435
V:arg2
p4436
V:concession
p4437
V:concession
p4438
V:manner
p4439
tp4440
tp4441
I1
s((Vand :condition :op2 who will :condition XXX-IN :arg1 :arg0
p4442
Vactive
p4443
tp4444
V:root
p4445
(V:arg0
p4446
V:arg1
p4447
V:condition
p4448
V:condition
p4449
tp4450
tp4451
I1
s((V:arg0 have XXX-NN :arg1-of ,
p4452
g3
tp4453
V:root
p4454
(V:arg0
p4455
V:arg1
p4456
tp4457
tp4458
I1
s((VXXX-WRB :condition , :condition :arg1
p4459
g3
tp4460
V:root
p4461
(V:arg1
p4462
V:condition
p4463
V:condition
p4464
tp4465
tp4466
I1
s((V:arg0 , :arg0 XXX-VB to himself
p4467
Vactive
p4468
tp4469
V:root
p4470
(V:arg0
p4471
V:arg1
p4472
tp4473
tp4474
I1
s((V:arg0 XXX-VB , :mod , :arg2 , :purpose
p4475
Vactive
p4476
tp4477
V:root
p4478
(V:arg0
p4479
V:arg2
p4480
V:mod
p4481
V:purpose
p4482
tp4483
tp4484
I1
s((V:arg1 :time XXX-VB :mod :arg2
p4485
Vactive
p4486
tp4487
V:root
p4488
(V:arg1
p4489
V:arg2
p4490
V:polarity
p4491
V:time
p4492
tp4493
tp4494
I1
s((VXXX-IN :arg1 :poss :arg1
p4495
g3
tp4496
V:root
p4497
(V:arg1
p4498
V:arg2
p4499
V:time
p4500
tp4501
tp4502
I1
s((V:arg1 , XXX-VB :arg0-of
p4503
Vactive
p4504
tp4505
V:root
p4506
(V:arg0
p4507
V:arg2
p4508
tp4509
tp4510
I1
s((V:op1 , :arg1 it is of :arg1 to :op2 , XXX-WDT :arg0
p4511
g3
tp4512
V:root
p4513
(V:arg0
p4514
V:arg1
p4515
tp4516
tp4517
I1
s((V:domain , :arg0 XXX-VB
p4518
Vactive
p4519
tp4520
V:root
p4521
(V:arg0
p4522
V:arg1
p4523
tp4524
tp4525
I1
s((V:arg0 :op1 :arg1 , XXX-CC :op2
p4526
g3
tp4527
V:root
p4528
(V:op1
p4529
V:op2
p4530
tp4531
tp4532
I2
s((V:snt1 XXX-RB :snt1 :snt2
p4533
g3
tp4534
V:root
p4535
(V:snt1
p4536
V:snt1
p4537
V:snt2
p4538
tp4539
tp4540
I1
s((Vare :arg0 XXX-VB :arg1
p4541
Vactive
p4542
tp4543
V:root
p4544
(V:arg0
p4545
V:arg1
p4546
tp4547
tp4548
I1
s((V:arg1 XXX-VB :mod
p4549
Vactive
p4550
tp4551
V:root
p4552
(V:arg1
p4553
V:mod
p4554
tp4555
tp4556
I1
s((V:arg0 XXX-FW :arg1
p4557
g3
tp4558
V:root
p4559
(V:arg0
p4560
V:arg1
p4561
V:arg2
p4562
tp4563
tp4564
I1
s((V:arg1-of , :arg0 XXX-VB :arg1
p4565
Vactive
p4566
tp4567
V:root
p4568
(V:arg0
p4569
V:arg1
p4570
V:arg1-of
p4571
tp4572
tp4573
I1
s((V:instrument , :arg0 XXX-VB :arg1 :arg1
p4574
Vactive
p4575
tp4576
V:root
p4577
(V:arg0
p4578
V:arg1
p4579
V:instrument
p4580
tp4581
tp4582
I1
s((V:arg0 do n't XXX-VB :arg1
p4583
Vactive
p4584
tp4585
V:root
p4586
(V:arg0
p4587
V:arg1
p4588
tp4589
tp4590
I1
s((Vit is :mod XXX-IN :arg2
p4591
Vactive
p4592
tp4593
V:root
p4594
(V:arg1
p4595
V:arg2
p4596
V:mod
p4597
tp4598
tp4599
I1
s((VXXX-UH
p4600
g3
tp4601
V:root
p4602
g6
tp4603
I7
s((V:location :domain are :arg1-of :degree :degree XXX-JJ :compared-to
p4604
Vactive
p4605
tp4606
V:root
p4607
(V:arg1-of
p4608
V:compared-to
p4609
V:degree
p4610
V:domain
p4611
V:location
p4612
tp4613
tp4614
I1
s((V:arg0 made a XXX-NN :arg1
p4615
g3
tp4616
V:root
p4617
(V:arg0
p4618
V:arg1
p4619
tp4620
tp4621
I1
s((V:arg0 am XXX-JJ :arg2
p4622
Vactive
p4623
tp4624
V:root
p4625
(V:arg0
p4626
V:arg2
p4627
tp4628
tp4629
I1
s((V:arg1 , XXX-CC :arg2 :arg1
p4630
g3
tp4631
V:root
p4632
(V:arg1
p4633
V:arg2
p4634
tp4635
tp4636
I1
s((V:arg1-of , :arg0 XXX-VB
p4637
Vactive
p4638
tp4639
V:root
p4640
(V:arg0
p4641
V:arg1
p4642
tp4643
tp4644
I1
s((VXXX-CD XXX-NN
p4645
g3
tp4646
V:root
p4647
g6
tp4648
I2
s((VXXX-RB , :arg0 :arg1
p4649
g3
tp4650
V:root
p4651
(V:arg1
p4652
tp4653
tp4654
I1
s((VXXX-CC :arg2
p4655
g3
tp4656
V:root
p4657
(V:arg2
p4658
tp4659
tp4660
I3
s((Vand :time :arg0 XXX-VB :arg1
p4661
Vactive
p4662
tp4663
V:root
p4664
(V:arg0
p4665
V:arg1
p4666
V:time
p4667
tp4668
tp4669
I1
s((VXXX-VB , :time
p4670
Vactive
p4671
tp4672
V:root
p4673
(V:time
p4674
tp4675
tp4676
I1
s((V:arg1 :arg1 be :arg2 XXX-VB :arg0
p4677
Vactive
p4678
tp4679
V:root
p4680
(V:arg0
p4681
V:arg1
p4682
tp4683
tp4684
I1
s((V:arg1 XXX-VB :time :op1
p4685
Vactive
p4686
tp4687
V:root
p4688
(V:arg1
p4689
V:time
p4690
V:time
p4691
V:time
p4692
tp4693
tp4694
I1
s((Vi am :polarity :arg2 , :arg0 XXX-VB , :manner
p4695
Vactive
p4696
tp4697
V:root
p4698
(V:arg0
p4699
V:arg2
p4700
V:manner
p4701
tp4702
tp4703
I1
s((V:arg0 made :arg1 :degree XXX-JJ
p4704
g3
tp4705
V:root
p4706
(V:arg0
p4707
V:arg1
p4708
V:degree
p4709
tp4710
tp4711
I1
s((V:time will be :poss XXX-NN
p4712
g3
tp4713
V:root
p4714
(V:poss
p4715
V:time
p4716
tp4717
tp4718
I1
s((VXXX-IN :mod :arg1 :arg0
p4719
g3
tp4720
V:root
p4721
(V:arg0
p4722
tp4723
tp4724
I1
s((V:arg0 :time :time been XXX-CC :op2
p4725
Vactive
p4726
tp4727
V:root
p4728
(V:op1
p4729
V:op2
p4730
V:time
p4731
V:time
p4732
tp4733
tp4734
I1
s((V:arg0 XXX-VB :arg1
p4735
Vactive
p4736
tp4737
V:root
p4738
(V:arg0
p4739
V:arg1
p4740
V:mod
p4741
tp4742
tp4743
I1
s((V:arg0 have XXX-VB :arg1
p4744
Vactive
p4745
tp4746
V:root
p4747
(V:arg0
p4748
V:arg1
p4749
tp4750
tp4751
I1
s((V:arg0 :op1 , :op2 , XXX-CC :op3
p4752
g3
tp4753
V:root
p4754
(V:op1
p4755
V:op2
p4756
V:op3
p4757
tp4758
tp4759
I1
s((V:arg1 XXX-VB :manner :arg0
p4760
Vactive
p4761
tp4762
V:root
p4763
(V:arg1
p4764
V:arg4
p4765
V:arg4
p4766
V:manner
p4767
tp4768
tp4769
I1
s((V:location :arg1-of :consist-of an :mod :consist-of XXX-NN
p4770
g3
tp4771
V:root
p4772
(V:arg1-of
p4773
V:consist-of
p4774
V:consist-of
p4775
V:location
p4776
V:location
p4777
V:mod
p4778
tp4779
tp4780
I1
s((VXXX-CD :arg2
p4781
g3
tp4782
V:root
p4783
(V:arg1
p4784
V:arg2
p4785
tp4786
tp4787
I2
s((V:arg0 had :time :op2 :quant XXX-CC :mod :arg1
p4788
Vactive
p4789
tp4790
V:root
p4791
(V:op1
p4792
V:op2
p4793
V:time
p4794
tp4795
tp4796
I1
s((V:arg0 XXX-VB it is :degree :arg1
p4797
Vactive
p4798
tp4799
V:root
p4800
(V:arg0
p4801
V:arg1
p4802
tp4803
tp4804
I1
s((V:arg0 :mod XXX-VB :arg2 :arg1
p4805
Vactive
p4806
tp4807
V:root
p4808
(V:arg0
p4809
V:arg1
p4810
V:arg2
p4811
V:mod
p4812
tp4813
tp4814
I1
s((V:arg0 , :arg1-of , will :polarity XXX-VB :arg1 :time
p4815
Vactive
p4816
tp4817
V:root
p4818
(V:arg0
p4819
V:arg1
p4820
V:arg1-of
p4821
V:polarity
p4822
V:time
p4823
tp4824
tp4825
I1
s((V:arg1 XXX-VB :arg0 , :purpose :arg1-of
p4826
Vactive
p4827
tp4828
V:root
p4829
(V:arg0
p4830
V:arg1
p4831
V:purpose
p4832
V:purpose
p4833
tp4834
tp4835
I1
s((V:arg0 XXX-VB :arg1 :ord :arg2
p4836
Vactive
p4837
tp4838
V:root
p4839
(V:arg0
p4840
V:arg1
p4841
V:arg2
p4842
tp4843
tp4844
I1
s((V:polarity XXX-VB :arg0 , who :arg0-of
p4845
Vactive
p4846
tp4847
V:root
p4848
(V:arg0
p4849
V:arg1
p4850
tp4851
tp4852
I1
s((V:arg1 XXX-MD be :arg2 about :op1
p4853
Vactive
p4854
tp4855
V:root
p4856
(V:arg1
p4857
V:arg2
p4858
tp4859
tp4860
I1
s((Vit is :location that :arg1 :op1 , XXX-CC :op2
p4861
Vactive
p4862
tp4863
V:root
p4864
(V:location
p4865
V:op1
p4866
V:op2
p4867
tp4868
tp4869
I1
s((V:arg1 , :arg0 XXX-VB :arg3 :arg3
p4870
Vactive
p4871
tp4872
V:root
p4873
(V:arg0
p4874
V:arg1
p4875
V:arg2
p4876
V:arg3
p4877
V:arg3
p4878
tp4879
tp4880
I1
s((VXXX-CC :arg1 was :polarity :arg2 :arg0
p4881
g3
tp4882
V:root
p4883
(V:arg2
p4884
tp4885
tp4886
I1
s((V:domain :op1 , XXX-CC :op2 , :domain :mod
p4887
g3
tp4888
V:root
p4889
(V:op1
p4890
V:op2
p4891
tp4892
tp4893
I1
s((VXXX-IN :arg1
p4894
g3
tp4895
V:root
p4896
(V:arg1
p4897
tp4898
tp4899
I1
s((V:arg0 :polarity :polarity XXX-NN
p4900
g3
tp4901
V:root
p4902
(V:arg0
p4903
V:polarity
p4904
V:polarity
p4905
tp4906
tp4907
I1
s((V:arg1 XXX-VB :op1 , :arg1 :op2
p4908
Vactive
p4909
tp4910
V:root
p4911
(V:arg1
p4912
tp4913
tp4914
I1
s((VXXX-CC :condition , :arg1 , and :arg2
p4915
g3
tp4916
V:root
p4917
(V:arg2
p4918
tp4919
tp4920
I1
s((V:time XXX-VB :arg0 , :time :arg1-of
p4921
Vactive
p4922
tp4923
V:root
p4924
(V:arg0
p4925
V:arg1
p4926
tp4927
tp4928
I1
s((V' to XXX-VB :arg1
p4929
Vactive
p4930
tp4931
V:root
p4932
(V:arg1
p4933
tp4934
tp4935
I1
s((V:mod :arg1 , XXX-VB :arg0 :domain , :time
p4936
Vactive
p4937
tp4938
V:root
p4939
(V:arg0
p4940
V:arg1
p4941
V:time
p4942
tp4943
tp4944
I1
s((VXXX-CC he is :polarity :op1 :domain :op2 :arg2
p4945
g3
tp4946
V:root
p4947
(V:arg2
p4948
tp4949
tp4950
I1
s((V:arg0-of :time is a XXX-NN :arg0-of
p4951
g3
tp4952
V:root
p4953
(V:arg0-of
p4954
V:arg0-of
p4955
V:time
p4956
tp4957
tp4958
I1
s((VXXX-CC :arg1 are :arg2 :arg0
p4959
g3
tp4960
V:root
p4961
(V:arg2
p4962
tp4963
tp4964
I1
s((V:arg1 is :op1 , XXX-CC :op2 , and :op1 :op3 :op2
p4965
Vactive
p4966
tp4967
V:root
p4968
(V:op1
p4969
V:op2
p4970
V:op3
p4971
tp4972
tp4973
I1
s((V:arg0 XXX-VB to myself
p4974
Vactive
p4975
tp4976
V:root
p4977
(V:arg0
p4978
tp4979
tp4980
I1
s((V:arg2 , XXX-VB :arg0 , :manner , :time :frequency :mod
p4981
Vactive
p4982
tp4983
V:root
p4984
(V:arg0
p4985
V:arg1
p4986
V:manner
p4987
V:time
p4988
tp4989
tp4990
I1
s((Vso :arg0 XXX-VB out :arg1 , :mod
p4991
Vactive
p4992
tp4993
V:root
p4994
(V:arg0
p4995
V:arg1
p4996
V:mod
p4997
tp4998
tp4999
I1
s((VXXX-CC so :arg1 will be :op2 if :time
p5000
g3
tp5001
V:root
p5002
(V:op2
p5003
tp5004
tp5005
I1
s((V:time , :time , :arg1 is XXX-VB :arg1-of
p5006
Vactive
p5007
tp5008
V:root
p5009
(V:arg1
p5010
V:time
p5011
V:time
p5012
tp5013
tp5014
I1
s((V:op1 :arg1 :op2 , XXX-VB :arg0
p5015
Vactive
p5016
tp5017
V:root
p5018
(V:arg0
p5019
V:arg1
p5020
tp5021
tp5022
I1
s((V:arg0 XXX-VB :degree :degree :polarity
p5023
Vactive
p5024
tp5025
V:root
p5026
(V:arg0
p5027
V:arg1
p5028
V:degree
p5029
V:degree
p5030
tp5031
tp5032
I1
s((V:arg0 XXX-VB :arg1 :manner
p5033
Vactive
p5034
tp5035
V:root
p5036
(V:arg0
p5037
V:arg1
p5038
V:manner
p5039
tp5040
tp5041
I2
s((V:degree is :degree :arg1-of :arg1-of :arg0 XXX-VB :poss
p5042
Vactive
p5043
tp5044
V:root
p5045
(V:arg0
p5046
V:arg1-of
p5047
V:arg1-of
p5048
V:arg2
p5049
tp5050
tp5051
I1
s((V:degree is :degree :arg1-of :arg1-of :arg0 XXX-VB :arg2-of
p5052
Vactive
p5053
tp5054
V:root
p5055
(V:arg0
p5056
V:arg1
p5057
V:arg1-of
p5058
V:arg1-of
p5059
tp5060
tp5061
I1
s((V:domain am :degree XXX-JJ
p5062
Vactive
p5063
tp5064
V:root
p5065
(V:degree
p5066
V:domain
p5067
tp5068
tp5069
I1
s((VXXX-CC :arg1 :arg1
p5070
g3
tp5071
V:root
p5072
(V:arg1
p5073
tp5074
tp5075
I2
s((V:arg1 , :arg0 XXX-VB , :arg0
p5076
Vactive
p5077
tp5078
V:root
p5079
(V:arg0
p5080
V:arg1
p5081
tp5082
tp5083
I1
s((Vit would be :arg1 XXX-NN
p5084
g3
tp5085
V:root
p5086
(V:arg1
p5087
tp5088
tp5089
I1
s((V:arg1 XXX-VB :arg2 , here :location
p5090
Vactive
p5091
tp5092
V:root
p5093
(V:arg1
p5094
V:arg2
p5095
V:location
p5096
V:mod
p5097
tp5098
tp5099
I1
s((V:arg0 have :arg1 to XXX-VB :arg2
p5100
Vactive
p5101
tp5102
V:root
p5103
(V:arg0
p5104
V:arg1
p5105
V:arg2
p5106
tp5107
tp5108
I1
s((Vwhen he XXX-NN :arg1 , it is :arg1-of if :arg2
p5109
g3
tp5110
V:root
p5111
(V:arg1
p5112
V:arg1-of
p5113
tp5114
tp5115
I1
s((V:arg0 have :time :time XXX-VB :arg1
p5116
Vactive
p5117
tp5118
V:root
p5119
(V:arg0
p5120
V:arg1
p5121
V:polarity
p5122
V:time
p5123
V:time
p5124
tp5125
tp5126
I1
s((Vthe XXX-NN :arg4-of :arg1-of
p5127
g3
tp5128
V:root
p5129
(V:arg1-of
p5130
V:arg4-of
p5131
tp5132
tp5133
I1
s((V:arg1 :polarity :polarity XXX-VB
p5134
Vactive
p5135
tp5136
V:root
p5137
(V:arg1
p5138
V:polarity
p5139
V:polarity
p5140
tp5141
tp5142
I1
s((V:arg1 was XXX-VB :arg0
p5143
Vactive
p5144
tp5145
V:root
p5146
(V:arg0
p5147
V:arg1
p5148
tp5149
tp5150
I2
s((V:manner :part-of , :arg0 :time XXX-VB :arg1
p5151
Vactive
p5152
tp5153
V:root
p5154
(V:arg0
p5155
V:arg1
p5156
V:arg2
p5157
V:time
p5158
tp5159
tp5160
I1
s((VXXX-RB
p5161
g3
tp5162
V:root
p5163
g6
tp5164
I9
s((VXXX-CC , :arg0 , :arg0 :op1
p5165
g3
tp5166
V:root
p5167
(V:arg2
p5168
tp5169
tp5170
I1
s((VXXX-CC :arg1
p5171
g3
tp5172
V:root
p5173
(V:arg2
p5174
tp5175
tp5176
I2
s((V:arg0 XXX-VB , :domain
p5177
Vactive
p5178
tp5179
V:root
p5180
(V:arg0
p5181
V:arg2
p5182
tp5183
tp5184
I1
s((V:arg1-of XXX-CC :op2
p5185
g3
tp5186
V:root
p5187
(V:op1
p5188
V:op2
p5189
tp5190
tp5191
I1
s((V:arg1 :arg1 :arg2 :arg0-of XXX-VB :arg0
p5192
Vactive
p5193
tp5194
V:root
p5195
(V:arg0
p5196
V:arg1
p5197
tp5198
tp5199
I1
s((VXXX-CC :op2 :arg0 , it :arg1
p5200
g3
tp5201
V:root
p5202
(V:op2
p5203
tp5204
tp5205
I1
s((V:arg0 have been XXX-VB :arg1 :duration
p5206
Vactive
p5207
tp5208
V:root
p5209
(V:arg0
p5210
V:arg1
p5211
V:duration
p5212
tp5213
tp5214
I1
s((V:time , he was :degree XXX-JJ :arg0
p5215
Vactive
p5216
tp5217
V:root
p5218
(V:arg0
p5219
V:arg1
p5220
V:degree
p5221
V:time
p5222
tp5223
tp5224
I1
s((V:domain was the XXX-JJS :compared-to
p5225
g3
tp5226
V:root
p5227
(V:compared-to
p5228
V:degree
p5229
V:domain
p5230
tp5231
tp5232
I1
s((VXXX-VB :arg0 :arg1
p5233
Vactive
p5234
tp5235
V:root
p5236
(V:arg0
p5237
V:arg1
p5238
tp5239
tp5240
I2
s((Vthen :arg2 XXX-VB :arg1 two thousand , seven hundred thirty one
p5241
Vactive
p5242
tp5243
V:root
p5244
(V:arg1
p5245
V:arg2
p5246
tp5247
tp5248
I1
s((Vwhere :arg1 :arg3 :arg0 XXX-VB :arg2
p5249
Vactive
p5250
tp5251
V:root
p5252
(V:arg0
p5253
V:arg1
p5254
V:arg2
p5255
tp5256
tp5257
I1
s((VXXX-CC :mod :op2
p5258
g3
tp5259
V:root
p5260
(V:op2
p5261
tp5262
tp5263
I1
s((V:polarity , XXX-VB :arg0
p5264
Vactive
p5265
tp5266
V:root
p5267
(V:arg0
p5268
V:arg1
p5269
tp5270
tp5271
I1
s((V:op1 :arg2 :op2 XXX-VB :arg1
p5272
Vactive
p5273
tp5274
V:root
p5275
(V:arg1
p5276
V:arg2
p5277
tp5278
tp5279
I1
s((V:op1 , XXX-CC :op2
p5280
g3
tp5281
V:root
p5282
(V:op1
p5283
V:op2
p5284
V:time
p5285
tp5286
tp5287
I1
s((V:arg0 XXX-VB :polarity :mod :arg1
p5288
Vactive
p5289
tp5290
V:root
p5291
(V:arg0
p5292
V:arg1
p5293
V:mod
p5294
V:polarity
p5295
tp5296
tp5297
I1
s((VXXX-CC , :time :op1 , :arg0 :op1
p5298
g3
tp5299
V:root
p5300
(V:op1
p5301
V:op2
p5302
V:time
p5303
tp5304
tp5305
I1
s((V:domain is a XXX-NN :arg0-of
p5306
g3
tp5307
V:root
p5308
(V:arg0-of
p5309
V:domain
p5310
tp5311
tp5312
I1
s((V:arg0 XXX-VB there are :op1 :quant :op2 :arg1 :arg1
p5313
Vactive
p5314
tp5315
V:root
p5316
(V:arg0
p5317
V:arg1
p5318
tp5319
tp5320
I1
s((V:arg0 had XXX-JJ the :arg1
p5321
g3
tp5322
V:root
p5323
(V:arg0
p5324
V:arg1
p5325
tp5326
tp5327
I1
s((V:arg0 XXX-VB :arg1 :direction :op1
p5328
Vactive
p5329
tp5330
V:root
p5331
(V:arg0
p5332
V:arg1
p5333
tp5334
tp5335
I1
s((V:arg1 took one XXX-NN
p5336
g3
tp5337
V:root
p5338
(V:arg1
p5339
tp5340
tp5341
I1
s((V:arg0 :op1 , XXX-CC :op2
p5342
g3
tp5343
V:root
p5344
(V:op1
p5345
V:op2
p5346
tp5347
tp5348
I4
s((VXXX-CC :domain :op2
p5349
g3
tp5350
V:root
p5351
(V:op2
p5352
tp5353
tp5354
I3
s((Vwhat :arg0 :polarity :polarity XXX-VB :arg2 was :frequency :arg3
p5355
Vactive
p5356
tp5357
V:root
p5358
(V:arg0
p5359
V:arg2
p5360
V:polarity
p5361
V:polarity
p5362
tp5363
tp5364
I1
s((V:time , :arg0 will XXX-VB and :arg1
p5365
Vactive
p5366
tp5367
V:root
p5368
(V:arg0
p5369
V:arg0-of
p5370
V:time
p5371
tp5372
tp5373
I1
s((VXXX-WP :mod :arg1-of
p5374
g3
tp5375
V:root
p5376
(V:arg1
p5377
V:arg1-of
p5378
tp5379
tp5380
I1
s((V:arg1 will be XXX-VB :arg2 :location
p5381
Vactive
p5382
tp5383
V:root
p5384
(V:arg1
p5385
V:arg2
p5386
V:location
p5387
tp5388
tp5389
I1
s((V:arg1 XXX-VB :degree :manner :compared-to
p5390
Vactive
p5391
tp5392
V:root
p5393
(V:arg1
p5394
V:manner
p5395
tp5396
tp5397
I1
s((V:arg0 XXX-WDT :consist-of :manner
p5398
g3
tp5399
V:root
p5400
(V:arg0
p5401
V:arg1
p5402
tp5403
tp5404
I1
s((V:arg1 , :arg0 XXX-VB :time
p5405
Vactive
p5406
tp5407
V:root
p5408
(V:arg0
p5409
V:arg1
p5410
V:time
p5411
tp5412
tp5413
I1
s((V:arg1-of then the :ord XXX-NN was the earth
p5414
g3
tp5415
V:root
p5416
(V:arg1-of
p5417
V:domain
p5418
V:ord
p5419
tp5420
tp5421
I1
s((V:domain , XXX-VB :arg0
p5422
Vactive
p5423
tp5424
V:root
p5425
(V:arg0
p5426
V:arg1
p5427
tp5428
tp5429
I1
s((V:arg0 XXX-VB :arg1 :location , :arg0 , :arg0-of
p5430
Vactive
p5431
tp5432
V:root
p5433
(V:arg0
p5434
V:arg1
p5435
V:location
p5436
tp5437
tp5438
I1
s((V:polarity , they :arg2 XXX-RP
p5439
g3
tp5440
V:root
p5441
(V:arg1
p5442
V:arg2
p5443
tp5444
tp5445
I1
s((V:domain was :mod :domain XXX-NN :arg1-of :quant
p5446
g3
tp5447
V:root
p5448
(V:arg1-of
p5449
V:domain
p5450
V:domain
p5451
V:mod
p5452
tp5453
tp5454
I1
s((V:arg0 XXX-VB :op2
p5455
Vactive
p5456
tp5457
V:root
p5458
(V:arg0
p5459
V:arg1
p5460
tp5461
tp5462
I1
s((V:condition , :arg0 XXX-VB , i :op2
p5463
Vactive
p5464
tp5465
V:root
p5466
(V:arg0
p5467
V:arg1
p5468
tp5469
tp5470
I1
s((Vit would have been :arg1 :arg1 , XXX-VB :arg0
p5471
Vactive
p5472
tp5473
V:root
p5474
(V:arg0
p5475
V:arg1
p5476
tp5477
tp5478
I1
s((V:op1 XXX-TO be :arg1 :domain
p5479
g3
tp5480
V:root
p5481
(V:op1
p5482
V:op2
p5483
tp5484
tp5485
I1
s((V:time :arg0 XXX-VB , :mod :arg1
p5486
Vactive
p5487
tp5488
V:root
p5489
(V:arg0
p5490
V:arg1
p5491
V:mod
p5492
V:time
p5493
tp5494
tp5495
I1
s((V:arg0 shall XXX-VB :time
p5496
Vactive
p5497
tp5498
V:root
p5499
(V:arg0
p5500
V:arg1
p5501
V:time
p5502
tp5503
tp5504
I1
s((V:arg1 was a thing for the :mod :arg0 to XXX-VB at
p5505
Vactive
p5506
tp5507
V:root
p5508
(V:arg0
p5509
V:arg1
p5510
tp5511
tp5512
I1
s((V:arg0 :arg1-of XXX-VB :arg1 :arg1-of
p5513
Vactive
p5514
tp5515
V:root
p5516
(V:arg0
p5517
V:arg1
p5518
tp5519
tp5520
I1
s((Vwhen :arg0 XXX-VB :arg1 he :time
p5521
Vactive
p5522
tp5523
V:root
p5524
(V:arg0
p5525
V:arg1
p5526
V:time
p5527
tp5528
tp5529
I1
s((V:time :ord :op2 , :arg0 XXX-VB :arg1
p5530
Vactive
p5531
tp5532
V:root
p5533
(V:arg0
p5534
V:arg1
p5535
V:time
p5536
tp5537
tp5538
I1
s((Vit is the XXX-NN :arg1-of
p5539
g3
tp5540
V:root
p5541
(V:arg0-of
p5542
V:arg1-of
p5543
tp5544
tp5545
I1
s((VXXX-WDT :arg1-of :domain
p5546
g3
tp5547
V:root
p5548
(V:arg1-of
p5549
V:domain
p5550
tp5551
tp5552
I1
s((V:arg0 , XXX-CC :op2
p5553
g3
tp5554
V:root
p5555
(V:op1
p5556
V:op2
p5557
tp5558
tp5559
I1
s((Vfor XXX-NN , :condition :arg1 , :arg0 :arg0
p5560
g3
tp5561
V:root
p5562
(V:arg0
p5563
tp5564
tp5565
I1
s((Vthat XXX-VB :arg1 :arg2
p5566
Vactive
p5567
tp5568
V:root
p5569
(V:arg1
p5570
V:arg2
p5571
tp5572
tp5573
I1
s((V:arg2 , :arg0 XXX-VB on
p5574
Vactive
p5575
tp5576
V:root
p5577
(V:arg0
p5578
V:arg1
p5579
tp5580
tp5581
I1
s((V:arg0 shall :arg1 :arg2 , :arg0 XXX-VB
p5582
Vactive
p5583
tp5584
V:root
p5585
(V:arg0
p5586
V:arg2
p5587
tp5588
tp5589
I1
s((V:arg1-of , :arg0 would XXX-VB :arg1 the rose :arg1-of :arg0-of
p5590
Vactive
p5591
tp5592
V:root
p5593
(V:arg0
p5594
V:arg1
p5595
V:arg1-of
p5596
V:arg1-of
p5597
tp5598
tp5599
I1
s((VXXX-CC :arg0 :op1 :arg1-of
p5600
g3
tp5601
V:root
p5602
(V:op1
p5603
tp5604
tp5605
I1
s((V:arg1 :location , :arg0 XXX-VB , :location :op1
p5606
Vactive
p5607
tp5608
V:root
p5609
(V:arg0
p5610
V:arg1
p5611
tp5612
tp5613
I1
s((Vdo :arg2 :arg1 XXX-NN
p5614
g3
tp5615
V:root
p5616
(V:arg1
p5617
V:arg2
p5618
tp5619
tp5620
I1
s((V:arg0 XXX-VB :arg1 :location
p5621
Vactive
p5622
tp5623
V:root
p5624
(V:arg0
p5625
V:arg1
p5626
V:location
p5627
tp5628
tp5629
I1
s((V:domain is :domain :arg1-of XXX-NN
p5630
g3
tp5631
V:root
p5632
(V:arg1-of
p5633
V:domain
p5634
V:domain
p5635
tp5636
tp5637
I2
s((V:op1 , XXX-CC :op3
p5638
g3
tp5639
V:root
p5640
(V:op1
p5641
V:op2
p5642
V:op3
p5643
V:time
p5644
tp5645
tp5646
I1
s((V:arg0 XXX-VB :arg2 :arg1
p5647
Vactive
p5648
tp5649
V:root
p5650
(V:arg0
p5651
V:arg1
p5652
V:arg2
p5653
V:manner
p5654
tp5655
tp5656
I1
s((V:arg0 :polarity :polarity XXX-VB :arg1 ,
p5657
Vactive
p5658
tp5659
V:root
p5660
(V:arg0
p5661
V:arg1
p5662
V:polarity
p5663
V:polarity
p5664
tp5665
tp5666
I1
s((V:domain is XXX-JJ ,
p5667
Vactive
p5668
tp5669
V:root
p5670
(V:domain
p5671
tp5672
tp5673
I1
s((V:arg0 XXX-MD :polarity :arg1
p5674
Vactive
p5675
tp5676
V:root
p5677
(V:arg1
p5678
tp5679
tp5680
I1
s((V:arg1 XXX-MD :arg1
p5681
Vactive
p5682
tp5683
V:root
p5684
(V:arg1
p5685
tp5686
tp5687
I1
s((V:domain was :degree a XXX-JJ :arg0
p5688
g3
tp5689
V:root
p5690
(V:arg0
p5691
V:degree
p5692
tp5693
tp5694
I1
s((V:degree will be a :mod XXX-NN :arg1
p5695
g3
tp5696
V:root
p5697
(V:arg0
p5698
V:arg1
p5699
V:mod
p5700
tp5701
tp5702
I1
s((V:arg1 was :degree XXX-JJ :compared-to :arg1-of
p5703
Vactive
p5704
tp5705
V:root
p5706
(V:arg1
p5707
V:compared-to
p5708
V:degree
p5709
tp5710
tp5711
I1
s((V:arg1 XXX-CC you :arg2
p5712
g3
tp5713
V:root
p5714
(V:arg1
p5715
V:arg2
p5716
tp5717
tp5718
I1
s((VXXX-CC :time :op1
p5719
g3
tp5720
V:root
p5721
(V:op1
p5722
tp5723
tp5724
I1
s((Vit was :time that :arg1 XXX-VB
p5725
Vactive
p5726
tp5727
V:root
p5728
(V:arg1
p5729
V:time
p5730
tp5731
tp5732
I1
s((V:arg0 XXX-MD :time :arg2
p5733
Vactive
p5734
tp5735
V:root
p5736
(V:arg0
p5737
V:arg1
p5738
V:arg2
p5739
V:time
p5740
tp5741
tp5742
I1
s((V:arg0 :polarity :polarity XXX-VB
p5743
Vactive
p5744
tp5745
V:root
p5746
(V:arg0
p5747
V:polarity
p5748
V:polarity
p5749
tp5750
tp5751
I3
s((V:arg1 :arg1 :arg0 XXX-VB :arg0
p5752
Vactive
p5753
tp5754
V:root
p5755
(V:arg0
p5756
V:arg1
p5757
tp5758
tp5759
I1
s((V:arg1 is :polarity XXX-JJ :arg2
p5760
g3
tp5761
V:root
p5762
(V:arg1
p5763
V:arg2
p5764
V:polarity
p5765
tp5766
tp5767
I1
s((V:mod :arg0 XXX-VB :arg1
p5768
Vactive
p5769
tp5770
V:root
p5771
(V:arg0
p5772
V:arg1
p5773
V:mod
p5774
tp5775
tp5776
I1
s((V:arg0 are XXX-JJ :arg1
p5777
g3
tp5778
V:root
p5779
(V:arg0
p5780
V:arg1
p5781
tp5782
tp5783
I2
s((V:arg1 was XXX-VB
p5784
Vactive
p5785
tp5786
V:root
p5787
(V:arg1
p5788
tp5789
tp5790
I2
s((V:arg0 had XXX-VB :poss :arg1
p5791
Vactive
p5792
tp5793
V:root
p5794
(V:arg0
p5795
V:arg1
p5796
tp5797
tp5798
I1
s((VXXX-CC :arg0 :arg2
p5799
g3
tp5800
V:root
p5801
(V:arg2
p5802
tp5803
tp5804
I15
s((V:arg1 XXX-VB :frequency :mod
p5805
Vactive
p5806
tp5807
V:root
p5808
(V:arg1
p5809
V:mod
p5810
tp5811
tp5812
I1
s((Vyou are :polarity XXX-JJ , :arg0 ,
p5813
Vactive
p5814
tp5815
V:root
p5816
(V:arg0
p5817
V:polarity
p5818
tp5819
tp5820
I1
s((V:arg1 , XXX-CC :op2
p5821
g3
tp5822
V:root
p5823
(V:op1
p5824
V:op2
p5825
tp5826
tp5827
I1
s((V:arg0 , :arg1-of , XXX-NN :arg2
p5828
g3
tp5829
V:root
p5830
(V:arg0
p5831
V:arg1-of
p5832
V:arg2
p5833
tp5834
tp5835
I1
s((V:time , :arg0-of , :time :time , :arg0 XXX-VB :arg2 :arg1
p5836
Vactive
p5837
tp5838
V:root
p5839
(V:arg0
p5840
V:arg0-of
p5841
V:arg1
p5842
V:arg2
p5843
V:time
p5844
V:time
p5845
V:time
p5846
tp5847
tp5848
I1
s((V:mod XXX-NNS that :arg0-of
p5849
g3
tp5850
V:root
p5851
(V:arg0-of
p5852
V:mod
p5853
tp5854
tp5855
I1
s((V:domain is of :polarity XXX-NN
p5856
g3
tp5857
V:root
p5858
(V:domain
p5859
V:polarity
p5860
tp5861
tp5862
I1
s((Vthe XXX-NN
p5863
g3
tp5864
V:root
p5865
g6
tp5866
I2
s((Vwhat are :arg0 XXX-VB for :arg1
p5867
Vactive
p5868
tp5869
V:root
p5870
(V:arg0
p5871
V:arg1
p5872
tp5873
tp5874
I1
s((V:poss :topic , :arg0 XXX-VB :arg1
p5875
Vactive
p5876
tp5877
V:root
p5878
(V:arg0
p5879
V:arg1
p5880
tp5881
tp5882
I1
s((V:poss :time :arg1 was XXX-VB :arg2
p5883
Vactive
p5884
tp5885
V:root
p5886
(V:arg0
p5887
V:arg1
p5888
V:arg2
p5889
V:mod
p5890
V:time
p5891
V:time
p5892
V:time
p5893
tp5894
tp5895
I1
s((V:arg0 :mod XXX-VB :arg1
p5896
Vactive
p5897
tp5898
V:root
p5899
(V:arg0
p5900
V:arg1
p5901
tp5902
tp5903
I1
s((V:quant that :polarity :polarity XXX-VB :domain :arg1
p5904
Vactive
p5905
tp5906
V:root
p5907
(V:arg0
p5908
V:arg1
p5909
V:polarity
p5910
V:polarity
p5911
tp5912
tp5913
I1
s((VXXX-RB as :arg0 i made :arg1 :arg2
p5914
g3
tp5915
V:root
p5916
(V:arg1
p5917
V:arg2
p5918
tp5919
tp5920
I1
s((V:arg1 XXX-MD :polarity :arg1
p5921
Vactive
p5922
tp5923
V:root
p5924
(V:arg1
p5925
V:polarity
p5926
tp5927
tp5928
I2
s((VXXX-CC , :manner , :arg0 :op2
p5929
g3
tp5930
V:root
p5931
(V:op2
p5932
tp5933
tp5934
I1
s((Va XXX-NN ,
p5935
g3
tp5936
V:root
p5937
g6
tp5938
I1
s((V:arg0 XXX-VB :arg1 , :op1 :time
p5939
Vactive
p5940
tp5941
V:root
p5942
(V:arg0
p5943
V:arg1
p5944
V:time
p5945
tp5946
tp5947
I1
s((V:arg0 XXX-MD :extent
p5948
Vactive
p5949
tp5950
V:root
p5951
(V:arg1
p5952
tp5953
tp5954
I1
s((VXXX-CC :op2 i am :arg2 , :mod
p5955
g3
tp5956
V:root
p5957
(V:arg2
p5958
tp5959
tp5960
I1
s((V:arg0 XXX-VB :arg2 , :arg1-of the :arg1
p5961
Vactive
p5962
tp5963
V:root
p5964
(V:arg0
p5965
V:arg1
p5966
V:arg1-of
p5967
V:arg2
p5968
tp5969
tp5970
I1
s((V:arg2 , XXX-CC :op2
p5971
g3
tp5972
V:root
p5973
(V:op1
p5974
V:op2
p5975
tp5976
tp5977
I1
s((VXXX-NN they :mod
p5978
g3
tp5979
V:root
p5980
(V:mod
p5981
tp5982
tp5983
I1
s((V:beneficiary , :arg1 was XXX-IN :arg2
p5984
Vactive
p5985
tp5986
V:root
p5987
(V:arg1
p5988
V:arg2
p5989
V:beneficiary
p5990
tp5991
tp5992
I1
s((Vto whom :arg2 :arg1 :arg0 XXX-VB , :manner
p5993
Vactive
p5994
tp5995
V:root
p5996
(V:arg0
p5997
V:arg2
p5998
V:manner
p5999
tp6000
tp6001
I1
s((V:arg1 am XXX-VB :arg0
p6002
Vactive
p6003
tp6004
V:root
p6005
(V:arg0
p6006
V:arg1
p6007
tp6008
tp6009
I1
s((V:arg1 was XXX-VB :manner :arg0
p6010
Vactive
p6011
tp6012
V:root
p6013
(V:arg0
p6014
V:arg1
p6015
tp6016
tp6017
I1
s((VXXX-TO :arg0 , :arg1
p6018
g3
tp6019
V:root
p6020
(V:arg0
p6021
V:arg1
p6022
tp6023
tp6024
I1
s((V:domain , :arg0 XXX-VB :arg1-of , :arg0-of
p6025
Vactive
p6026
tp6027
V:root
p6028
(V:arg0
p6029
V:arg1
p6030
V:arg1-of
p6031
tp6032
tp6033
I1
s((V:time :arg1 was XXX-JJ
p6034
Vactive
p6035
tp6036
V:root
p6037
(V:arg1
p6038
V:time
p6039
tp6040
tp6041
I1
s((V:arg0 had been :degree XXX-JJ :arg1
p6042
Vactive
p6043
tp6044
V:root
p6045
(V:arg0
p6046
V:arg1
p6047
V:degree
p6048
tp6049
tp6050
I1
s((Vyes , XXX-DT XXX-NN
p6051
g3
tp6052
V:root
p6053
g6
tp6054
I1
s((V:arg0 XXX-VB :arg1 , :arg1-of
p6055
Vactive
p6056
tp6057
V:root
p6058
(V:arg0
p6059
V:arg1
p6060
V:arg1-of
p6061
tp6062
tp6063
I1
s((V:arg0 XXX-VB :purpose
p6064
Vactive
p6065
tp6066
V:root
p6067
(V:arg0
p6068
V:purpose
p6069
tp6070
tp6071
I1
s((V:domain XXX-MD , you :mod
p6072
Vactive
p6073
tp6074
V:root
p6075
(V:arg1
p6076
tp6077
tp6078
I1
s((V:arg1 is :mod is :instrument :arg1 :instrument , :arg0 XXX-VB , :arg1-of
p6079
Vactive
p6080
tp6081
V:root
p6082
(V:arg0
p6083
V:arg1
p6084
V:purpose
p6085
tp6086
tp6087
I1
s((V:time :arg1 is XXX-VB :degree
p6088
Vactive
p6089
tp6090
V:root
p6091
(V:arg1
p6092
V:degree
p6093
V:time
p6094
tp6095
tp6096
I1
s((V:arg0 XXX-VB away :source :manner :polarity
p6097
Vactive
p6098
tp6099
V:root
p6100
(V:arg0
p6101
V:manner
p6102
V:manner
p6103
V:source
p6104
tp6105
tp6106
I1
s((VXXX-CC :arg0 :manner :arg0
p6107
g3
tp6108
V:root
p6109
(V:op2
p6110
tp6111
tp6112
I1
s((Vbut :arg0 was XXX-VB
p6113
Vactive
p6114
tp6115
V:root
p6116
(V:arg0
p6117
tp6118
tp6119
I1
s((V:op1 , :arg0 XXX-VB to himself , :condition
p6120
Vactive
p6121
tp6122
V:root
p6123
(V:arg0
p6124
V:arg1
p6125
tp6126
tp6127
I1
s((V:op1 , :arg0 XXX-VB :arg2-of , :arg1 :op2
p6128
Vactive
p6129
tp6130
V:root
p6131
(V:arg0
p6132
V:arg1
p6133
tp6134
tp6135
I1
s((V:domain is an XXX-NN
p6136
g3
tp6137
V:root
p6138
(V:domain
p6139
tp6140
tp6141
I1
s((V:arg0 XXX-VB :polarity :arg1
p6142
Vactive
p6143
tp6144
V:root
p6145
(V:arg0
p6146
V:arg1
p6147
V:polarity
p6148
tp6149
tp6150
I1
s((VXXX-CC :condition :arg0 , it :arg2
p6151
g3
tp6152
V:root
p6153
(V:arg2
p6154
tp6155
tp6156
I1
s((V:arg1 was :degree XXX-VB :arg0-of :arg1
p6157
Vactive
p6158
tp6159
V:root
p6160
(V:arg0-of
p6161
V:arg1
p6162
V:degree
p6163
tp6164
tp6165
I1
s((V:arg2 , XXX-RB , :arg0 :polarity :arg1
p6166
g3
tp6167
V:root
p6168
(V:arg2
p6169
tp6170
tp6171
I1
s((V:time , :condition , :arg0 will XXX-VB who he is
p6172
Vactive
p6173
tp6174
V:root
p6175
(V:arg0
p6176
V:condition
p6177
tp6178
tp6179
I1
s((V:arg0 has :polarity XXX-VB :arg1
p6180
Vactive
p6181
tp6182
V:root
p6183
(V:arg0
p6184
V:arg1
p6185
V:polarity
p6186
V:time
p6187
tp6188
tp6189
I3
s((VXXX-CC it :arg2
p6190
g3
tp6191
V:root
p6192
(V:arg2
p6193
tp6194
tp6195
I1
s((Vfive hundred and one million , six hundred twenty :arg2 XXX-CD one
p6196
g3
tp6197
V:root
p6198
(V:arg2
p6199
tp6200
tp6201
I1
s((VXXX-CC there is :location :location :location :arg1 , and :arg0-of :arg1
p6202
g3
tp6203
V:root
p6204
(V:arg2
p6205
tp6206
tp6207
I1
s((VXXX-RB that is :arg1 :arg0
p6208
g3
tp6209
V:root
p6210
(V:arg1
p6211
tp6212
tp6213
I1
s((V:arg1 is :mod XXX-IN :arg2
p6214
Vactive
p6215
tp6216
V:root
p6217
(V:arg1
p6218
V:arg2
p6219
V:mod
p6220
tp6221
tp6222
I1
s((V:arg0 XXX-VB :direction , :purpose
p6223
Vactive
p6224
tp6225
V:root
p6226
(V:arg0
p6227
V:direction
p6228
V:purpose
p6229
tp6230
tp6231
I1
s((V:arg0 shall XXX-VB as :arg1 :arg2
p6232
Vactive
p6233
tp6234
V:root
p6235
(V:arg0
p6236
V:arg1
p6237
tp6238
tp6239
I1
s((V:arg0 had XXX-VB :arg1 :arg1
p6240
Vactive
p6241
tp6242
V:root
p6243
(V:arg0
p6244
V:arg1
p6245
tp6246
tp6247
I1
s((V:arg0 , :mod , shall XXX-VB :arg1
p6248
Vactive
p6249
tp6250
V:root
p6251
(V:arg0
p6252
V:arg1
p6253
tp6254
tp6255
I1
s((Vthere was :polarity :mod :mod XXX-NN , :arg1-of :arg0
p6256
g3
tp6257
V:root
p6258
(V:arg1-of
p6259
V:mod
p6260
V:polarity
p6261
tp6262
tp6263
I1
s((VXXX-CC , :condition :op2
p6264
g3
tp6265
V:root
p6266
(V:op2
p6267
tp6268
tp6269
I1
s((V:arg0 :time XXX-VB :arg1
p6270
Vactive
p6271
tp6272
V:root
p6273
(V:arg0
p6274
V:arg1
p6275
V:time
p6276
tp6277
tp6278
I1
s((V:domain is :degree a :mod XXX-NN , :domain
p6279
g3
tp6280
V:root
p6281
(V:domain
p6282
V:domain
p6283
V:mod
p6284
tp6285
tp6286
I1
s((V:mod XXX-DT
p6287
g3
tp6288
V:root
p6289
(V:mod
p6290
tp6291
tp6292
I1
s((VXXX-IN , :mod , :domain :arg1
p6293
g3
tp6294
V:root
p6295
(V:arg0
p6296
V:arg1
p6297
tp6298
tp6299
I1
s((Vthere is :polarity XXX-NN :poss :beneficiary
p6300
g3
tp6301
V:root
p6302
(V:beneficiary
p6303
V:polarity
p6304
V:poss
p6305
tp6306
tp6307
I1
s((V:arg0-of :arg0 XXX-VB :arg2
p6308
Vactive
p6309
tp6310
V:root
p6311
(V:arg0
p6312
V:arg0-of
p6313
V:arg2
p6314
tp6315
tp6316
I1
s((VXXX-CC :arg0 :poss
p6317
g3
tp6318
V:root
p6319
(V:op2
p6320
tp6321
tp6322
I1
s((V:location :arg0 XXX-VB :mod
p6323
Vactive
p6324
tp6325
V:root
p6326
(V:arg0
p6327
V:arg1
p6328
V:location
p6329
tp6330
tp6331
I1
s((V:arg1 are :polarity :degree XXX-JJ
p6332
Vactive
p6333
tp6334
V:root
p6335
(V:arg1
p6336
V:degree
p6337
tp6338
tp6339
I1
s((V:arg1 , :arg0 XXX-VB :mod
p6340
Vactive
p6341
tp6342
V:root
p6343
(V:arg0
p6344
V:arg1
p6345
V:mod
p6346
tp6347
tp6348
I2
s((VXXX-WRB have :arg0 :mod :arg1 :arg0
p6349
g3
tp6350
V:root
p6351
(V:arg0
p6352
V:arg1
p6353
tp6354
tp6355
I1
s((V:polite XXX-NN :arg0
p6356
g3
tp6357
V:root
p6358
(V:arg0
p6359
V:arg1
p6360
V:polite
p6361
tp6362
tp6363
I1
s((V:arg2 , :arg0 :op1 , XXX-CC :manner :op2
p6364
g3
tp6365
V:root
p6366
(V:op1
p6367
V:op2
p6368
tp6369
tp6370
I1
s((V:arg0 :op1 XXX-CC :op2
p6371
g3
tp6372
V:root
p6373
(V:op1
p6374
V:op2
p6375
tp6376
tp6377
I2
s((V:arg1 XXX-VB down
p6378
Vactive
p6379
tp6380
V:root
p6381
(V:arg1
p6382
tp6383
tp6384
I1
s((V:arg1 , XXX-VB :arg0 :arg1-of
p6385
Vactive
p6386
tp6387
V:root
p6388
(V:arg0
p6389
V:arg1
p6390
V:arg1-of
p6391
tp6392
tp6393
I1
s((VXXX-CC :arg0 :op2
p6394
g3
tp6395
V:root
p6396
(V:op2
p6397
tp6398
tp6399
I28
s((V:arg0 XXX-VB :arg1
p6400
Vactive
p6401
tp6402
V:root
p6403
(V:arg0
p6404
V:arg1
p6405
V:polarity
p6406
tp6407
tp6408
I3
s((V:arg0 am XXX-JJ :arg1
p6409
g3
tp6410
V:root
p6411
(V:arg0
p6412
V:arg1
p6413
tp6414
tp6415
I1
s((V:mod was XXX-IN :arg1
p6416
Vactive
p6417
tp6418
V:root
p6419
(V:arg1
p6420
V:arg2
p6421
tp6422
tp6423
I1
s((VXXX-TO :arg0 , :domain :arg1
p6424
g3
tp6425
V:root
p6426
(V:arg0
p6427
V:arg1
p6428
tp6429
tp6430
I2
s((V:arg1 XXX-VB :location :location :location , :op2 , :op3
p6431
Vactive
p6432
tp6433
V:root
p6434
(V:op1
p6435
V:op2
p6436
V:op3
p6437
tp6438
tp6439
I1
s((Vbut :location is XXX-NN :location :arg1-of
p6440
g3
tp6441
V:root
p6442
(V:arg1-of
p6443
V:location
p6444
V:location
p6445
tp6446
tp6447
I1
s((V:location :quant :arg0 shall be XXX-VB
p6448
Vactive
p6449
tp6450
V:root
p6451
(V:arg0
p6452
V:location
p6453
V:location
p6454
tp6455
tp6456
I1
s((Vyes , :arg1 is XXX-JJ ,
p6457
Vactive
p6458
tp6459
V:root
p6460
(V:arg1
p6461
tp6462
tp6463
I1
s((VXXX-CC :arg0 :op2 :arg1
p6464
g3
tp6465
V:root
p6466
(V:op2
p6467
tp6468
tp6469
I2
s((V:polarity :polarity :arg0 XXX-VB :arg1 :arg0-of
p6470
Vactive
p6471
tp6472
V:root
p6473
(V:arg0
p6474
V:arg1
p6475
V:polarity
p6476
V:polarity
p6477
tp6478
tp6479
I1
s((V:time , he XXX-VB :arg1-of :arg1
p6480
Vactive
p6481
tp6482
V:root
p6483
(V:arg0
p6484
V:arg1
p6485
V:time
p6486
tp6487
tp6488
I1
s((V:ord was :quant , XXX-WRB :time-of :arg3
p6489
Vactive
p6490
tp6491
V:root
p6492
(V:arg1
p6493
V:arg2
p6494
tp6495
tp6496
I1
s((V:arg0 :time be :mod :degree XXX-JJ :time
p6497
Vactive
p6498
tp6499
V:root
p6500
(V:arg0
p6501
V:degree
p6502
V:time
p6503
V:time
p6504
tp6505
tp6506
I1
s((V:arg1 is :degree , XXX-IN :arg2
p6507
Vactive
p6508
tp6509
V:root
p6510
(V:arg1
p6511
V:arg2
p6512
tp6513
tp6514
I1
s((V:arg1 , :arg0 XXX-VB
p6515
Vactive
p6516
tp6517
V:root
p6518
(V:arg0
p6519
V:arg1
p6520
tp6521
tp6522
I13
s((VXXX-CC :time would :arg0 :polarity
p6523
g3
tp6524
V:root
p6525
(V:op2
p6526
tp6527
tp6528
I1
s((V:location-of , XXX-VB :arg0
p6529
Vactive
p6530
tp6531
V:root
p6532
(V:arg0
p6533
V:arg1
p6534
V:time
p6535
tp6536
tp6537
I1
s((V:arg0 XXX-VB :arg2
p6538
Vactive
p6539
tp6540
V:root
p6541
(V:arg0
p6542
V:arg2
p6543
tp6544
tp6545
I4
s((V:arg0 XXX-MD :manner :op2
p6546
Vactive
p6547
tp6548
V:root
p6549
(V:arg1
p6550
tp6551
tp6552
I1
s((V:arg0 will XXX-VB :time :domain :arg1
p6553
Vactive
p6554
tp6555
V:root
p6556
(V:arg0
p6557
V:arg1
p6558
V:time
p6559
tp6560
tp6561
I1
s((V:arg1 , :arg0 XXX-VB :arg2 , :time
p6562
Vactive
p6563
tp6564
V:root
p6565
(V:arg0
p6566
V:arg1
p6567
V:arg2
p6568
V:time
p6569
tp6570
tp6571
I1
s((V:domain is :degree :degree XXX-JJ :arg1-of
p6572
Vactive
p6573
tp6574
V:root
p6575
(V:degree
p6576
V:domain
p6577
tp6578
tp6579
I1
s((V:quant :mod :arg0 XXX-NN :time :arg1
p6580
g3
tp6581
V:root
p6582
(V:arg0
p6583
V:arg1
p6584
V:time
p6585
tp6586
tp6587
I1
s((VXXX-IN :arg0 :condition-of
p6588
g3
tp6589
V:root
p6590
(V:arg1
p6591
tp6592
tp6593
I1
s((V:arg1 is of :polarity XXX-NN :arg0
p6594
g3
tp6595
V:root
p6596
(V:arg0
p6597
V:arg1
p6598
V:polarity
p6599
tp6600
tp6601
I1
s((Vi am :arg1 , :arg0 XXX-VB , :arg1-of
p6602
Vactive
p6603
tp6604
V:root
p6605
(V:arg0
p6606
V:arg1
p6607
V:purpose
p6608
V:purpose
p6609
tp6610
tp6611
I1
s((VXXX-CC :arg2-of :op1
p6612
g3
tp6613
V:root
p6614
(V:op1
p6615
tp6616
tp6617
I1
s((V:arg1-of XXX-NN
p6618
g3
tp6619
V:root
p6620
(V:arg1-of
p6621
tp6622
tp6623
I7
s((V:arg0 XXX-JJ :mod :arg1
p6624
g3
tp6625
V:root
p6626
(V:arg0
p6627
V:arg1
p6628
tp6629
tp6630
I1
s((V:time :arg1 :time makes :arg3 , XXX-CC :op2
p6631
g3
tp6632
V:root
p6633
(V:op1
p6634
V:op2
p6635
V:time
p6636
tp6637
tp6638
I1
s((VXXX-CC , :time :time , :arg0 :op2
p6639
g3
tp6640
V:root
p6641
(V:op2
p6642
tp6643
tp6644
I1
s((VXXX-CC :arg1 :op2 , :arg2 :op2
p6645
g3
tp6646
V:root
p6647
(V:arg2
p6648
tp6649
tp6650
I1
s((V:arg0 XXX-VB :arg1 :arg2 , :op1 :op1 :op2 :concession-of :op3
p6651
Vactive
p6652
tp6653
V:root
p6654
(V:arg0
p6655
V:arg1
p6656
V:arg2
p6657
tp6658
tp6659
I1
s((V:time :mod :time :arg0 was XXX-VB to myself :arg1
p6660
Vactive
p6661
tp6662
V:root
p6663
(V:arg0
p6664
V:arg1
p6665
V:time
p6666
V:time
p6667
tp6668
tp6669
I1
s((V:arg0 , XXX-VB :domain , are :arg1 , :arg1-of :arg2 , are :degree :arg0-of :arg0-of :arg1
p6670
Vactive
p6671
tp6672
V:root
p6673
(V:arg0
p6674
V:arg1
p6675
tp6676
tp6677
I1
s((VXXX-CC , :mod , :arg0 :op2
p6678
g3
tp6679
V:root
p6680
(V:op2
p6681
tp6682
tp6683
I1
s((V:domain is :degree XXX-JJ :compared-to
p6684
Vactive
p6685
tp6686
V:root
p6687
(V:compared-to
p6688
V:degree
p6689
V:domain
p6690
tp6691
tp6692
I1
s((VXXX-TO :arg0 , :domain are :mod :mod
p6693
g3
tp6694
V:root
p6695
(V:arg0
p6696
V:arg1
p6697
tp6698
tp6699
I1
s((V:arg0 have the XXX-NN :arg2
p6700
g3
tp6701
V:root
p6702
(V:arg1-of
p6703
V:arg2
p6704
tp6705
tp6706
I1
s((V:arg1 was XXX-JJ :arg2 , :arg1-of :arg2
p6707
Vactive
p6708
tp6709
V:root
p6710
(V:arg1
p6711
V:arg2
p6712
tp6713
tp6714
I1
s((V:poss XXX-NN :mod
p6715
g3
tp6716
V:root
p6717
(V:arg1-of
p6718
V:beneficiary
p6719
V:poss
p6720
V:quant
p6721
tp6722
tp6723
I1
s((VXXX-WRB :condition , it :arg1
p6724
g3
tp6725
V:root
p6726
(V:arg1
p6727
V:condition
p6728
tp6729
tp6730
I1
s((V:condition , :arg0 would :arg1-of been XXX-JJ :arg1
p6731
Vactive
p6732
tp6733
V:root
p6734
(V:arg1
p6735
V:condition
p6736
tp6737
tp6738
I1
s((V:arg1 , XXX-VB :arg0 , :concession :arg1
p6739
Vactive
p6740
tp6741
V:root
p6742
(V:arg0
p6743
V:arg1
p6744
tp6745
tp6746
I1
s((V:location is :polarity XXX-NN :location :purpose :purpose
p6747
g3
tp6748
V:root
p6749
(V:location
p6750
V:location
p6751
V:polarity
p6752
V:purpose
p6753
V:purpose
p6754
tp6755
tp6756
I1
s((V:arg0 XXX-VB :arg1-of :op2 :arg2
p6757
Vactive
p6758
tp6759
V:root
p6760
(V:arg0
p6761
V:arg1
p6762
V:arg2
p6763
tp6764
tp6765
I1
s.