(dp1
((Vi XXX-VB , :arg0 :arg1
p2
Vactive
p3
tp4
V:root
p5
(V:arg1
p6
tp7
Vsay-01
p8
tp9
I1
s((Vare :arg1 :mod :arg2
p10
S'active'
p11
tp12
V:root
p13
(V:arg1
p14
V:arg2
p15
V:mod
p16
tp17
Vbe-located-at-91
p18
tp19
I1
s((V:arg1 had XXX-VB
p20
Vactive
p21
tp22
V:root
p23
(V:arg1
p24
tp25
Vfall-04
p26
tp27
I1
s((Vthere was a XXX-NN :arg2
p28
g11
tp29
V:root
p30
(V:arg1-of
p31
tp32
Vmoment
p33
tp34
I1
s((VXXX-IN , :mod , :domain :arg1
p35
g11
tp36
V:root
p37
(V:arg0
p38
V:arg1
p39
tp40
Vopine-01
p41
tp42
I1
s((V:arg1-of , :arg0 would XXX-VB :arg1 the rose :arg1-of :arg0-of
p43
Vactive
p44
tp45
V:root
p46
(V:arg0
p47
V:arg1
p48
V:arg1-of
p49
V:arg1-of
p50
tp51
Vthink-01
p52
tp53
I1
s((V:arg1 were :mod XXX-JJ :arg0
p54
Vactive
p55
tp56
V:root
p57
(V:arg0
p58
V:arg1
p59
V:mod
p60
tp61
Vcontent-01
p62
tp63
I1
s((V:arg0 XXX-VB , :domain
p64
Vactive
p65
tp66
V:root
p67
(V:arg0
p68
V:arg2
p69
tp70
Vreply-01
p71
tp72
I1
s((V:arg1 XXX-NN are :arg1-of :arg2
p73
g11
tp74
V:root
p75
(V:arg1
p76
V:arg1-of
p77
tp78
Verupt-01
p79
tp80
I1
s((V:domain , :arg0 XXX-VB
p81
Vactive
p82
tp83
V:root
p84
(V:arg0
p85
V:arg1
p86
tp87
Vsay-01
p88
tp89
I1
s((V:op2 XXX-VB :arg2 two
p90
Vactive
p91
tp92
V:root
p93
(V:arg1
p94
V:arg2
p95
tp96
Vequal-01
p97
tp98
I1
s((VXXX-CC :arg0 :degree :op2
p99
g11
tp100
V:root
p101
(V:op2
p102
tp103
Vand
p104
tp105
I1
s((V:arg0 had :frequency XXX-VB :arg1
p106
Vactive
p107
tp108
V:root
p109
(V:arg0
p110
V:arg1
p111
V:frequency
p112
V:frequency
p113
tp114
Vsee-01
p115
tp116
I1
s((V:arg1 was XXX-VB
p117
Vactive
p118
tp119
V:root
p120
(V:arg1
p121
tp122
Vtire-01
p123
tp124
I1
s((V:time XXX-VB :location , :mod :op1 , :concession :concession :arg0-of
p125
Vactive
p126
tp127
V:root
p128
(V:arg0
p129
V:arg1
p130
V:mod
p131
V:time
p132
V:time
p133
tp134
Vsay-01
p135
tp136
I1
s((Vdo :arg2 :arg1 XXX-NN
p137
g11
tp138
V:root
p139
(V:arg1
p140
V:arg2
p141
tp142
Vkind-01
p143
tp144
I1
s((Vyes , :arg0 XXX-VB
p145
Vactive
p146
tp147
V:root
p148
(V:arg0
p149
tp150
Vknow-01
p151
tp152
I3
s((VXXX-CD :arg2
p153
g11
tp154
V:root
p155
(V:arg1
p156
V:arg2
p157
tp158
Vequal-01
p159
tp160
I2
s((V:domain is the XXX-NN
p161
g11
tp162
V:root
p163
(V:domain
p164
tp165
Vmountain
p166
tp167
I1
s((Vfive hundred and one million , six hundred twenty :arg2 XXX-CD one
p168
g11
tp169
V:root
p170
(V:arg2
p171
tp172
Vhave-quant-91
p173
tp174
I1
s((VXXX-WRB :condition , :condition :arg1
p175
g11
tp176
V:root
p177
(V:arg1
p178
V:condition
p179
V:condition
p180
tp181
Vbelong-01
p182
tp183
I1
s((V:op2 :arg1 :arg2 :arg0 :op1 XXX-RP :arg1 :mod
p184
g11
tp185
V:root
p186
(V:op1
p187
V:op2
p188
tp189
Vand
p190
tp191
I1
s((V:arg2 , XXX-VB :arg0
p192
Vactive
p193
tp194
V:root
p195
(V:arg0
p196
V:arg2
p197
tp198
Vreply-01
p199
tp200
I2
s((V:arg0 XXX-VB :arg1 :mod :purpose
p201
Vactive
p202
tp203
V:root
p204
(V:arg0
p205
V:arg1
p206
V:mod
p207
V:purpose
p208
tp209
Vhave-03
p210
tp211
I1
s((V:arg0 XXX-VB :ord :arg1
p212
Vactive
p213
tp214
V:root
p215
(V:arg0
p216
V:arg1
p217
tp218
Vbelong-01
p219
tp220
I1
s((VXXX-CC :arg1 :polarity
p221
g11
tp222
V:root
p223
(V:arg1
p224
tp225
Vcontrast-01
p226
tp227
I1
s((VXXX-CC :domain is :mod :arg2
p228
g11
tp229
V:root
p230
(V:arg2
p231
tp232
Vcontrast-01
p233
tp234
I1
s((V:time :arg0 XXX-VB :arg1 :arg1 :mod
p235
Vactive
p236
tp237
V:root
p238
(V:arg1
p239
V:time
p240
tp241
Vkeep-02
p242
tp243
I1
s((V:arg0 have :polarity yet :polarity a :arg1-of XXX-NN :arg1
p244
g11
tp245
V:root
p246
(V:arg0
p247
V:arg1
p248
V:arg1-of
p249
V:polarity
p250
V:polarity
p251
tp252
Vtour-01
p253
tp254
I1
s((VXXX-CC :domain :op2
p255
g11
tp256
V:root
p257
(V:op2
p258
tp259
Vand
p260
tp261
I3
s((VXXX-RB
p262
g11
tp263
V:root
p264
S'empty'
p265
Vexact
p266
tp267
I1
s((V:arg0 XXX-VB :arg1
p268
Vactive
p269
tp270
V:root
p271
(V:arg0
p272
V:arg1
p273
tp274
Veat-01
p275
tp276
I1
s((V:arg0 should be :arg0 , for XXX-NN , :arg1
p277
g11
tp278
V:root
p279
(V:arg0
p280
tp281
Vexemplify-01
p282
tp283
I1
s((V:arg0 XXX-VB , :arg1 that it is :mod :arg1 :arg2 :op3
p284
Vactive
p285
tp286
V:root
p287
(V:arg0
p288
V:arg1
p289
tp290
Vsay-01
p291
tp292
I1
s((V:arg0 had XXX-VB :poss :arg1
p293
Vactive
p294
tp295
V:root
p296
(V:arg0
p297
V:arg1
p298
tp299
Vtell-01
p300
tp301
I1
s((V:time :arg0 XXX-VB :arg1 :purpose
p302
Vactive
p303
tp304
V:root
p305
(V:arg0
p306
V:arg1
p307
V:degree
p308
V:degree
p309
V:purpose
p310
V:time
p311
tp312
Vforce-02
p313
tp314
I1
s((V:arg0 had XXX-VB :arg1 :arg1
p315
Vactive
p316
tp317
V:root
p318
(V:arg0
p319
V:arg1
p320
tp321
Vlet-01
p322
tp323
I1
s((V:arg1 is XXX-IN :arg2
p324
Vactive
p325
tp326
V:root
p327
(V:arg1
p328
V:arg2
p329
tp330
Vresemble-01
p331
tp332
I1
s((V:arg0 XXX-VB :op1 , :arg1 :op2
p333
Vactive
p334
tp335
V:root
p336
(V:arg0
p337
V:arg1
p338
tp339
Vfeel-01
p340
tp341
I1
s((Vit XXX-VB :arg1
p342
Vactive
p343
tp344
V:root
p345
(V:arg1
p346
tp347
Vseem-01
p348
tp349
I1
s((V:arg1 is :polarity XXX-JJ :arg2
p350
g11
tp351
V:root
p352
(V:arg1
p353
V:arg2
p354
V:polarity
p355
tp356
Vworth-02
p357
tp358
I1
s((VXXX-PRP :arg1
p359
g11
tp360
V:root
p361
(V:arg1
p362
V:time
p363
tp364
Vpass-03
p365
tp366
I1
s((V:mod :arg0 , :arg0 XXX-VB :arg2
p367
Vactive
p368
tp369
V:root
p370
(V:arg0
p371
V:arg1
p372
tp373
Vsay-01
p374
tp375
I1
s((V:op1 , :arg0 XXX-VB :arg2-of , :arg1 :op2
p376
Vactive
p377
tp378
V:root
p379
(V:arg0
p380
V:arg1
p381
tp382
Vsay-01
p383
tp384
I1
s((V:arg0 XXX-VB :arg1 :arg4
p385
Vactive
p386
tp387
V:root
p388
(V:arg0
p389
V:arg1
p390
V:arg4
p391
tp392
Vraise-01
p393
tp394
I1
s((V:arg0 XXX-VB :arg1
p395
Vactive
p396
tp397
V:root
p398
(V:arg0
p399
V:arg1
p400
tp401
Vwrite-01
p402
tp403
I1
s((V:domain is XXX-JJ
p404
Vactive
p405
tp406
V:root
p407
(V:domain
p408
tp409
Vdifficult
p410
tp411
I1
s((V:arg0 :polarity :polarity XXX-VB :arg1
p412
Vactive
p413
tp414
V:root
p415
(V:arg0
p416
V:arg1
p417
V:polarity
p418
V:polarity
p419
tp420
Vknow-01
p421
tp422
I1
s((Vwhat does that XXX-NN :arg1 :arg2
p423
g11
tp424
V:root
p425
(V:arg1
p426
V:arg2
p427
tp428
Vmean-01
p429
tp430
I4
s((V:op1 , these would XXX-VB :arg0 :purpose
p431
Vactive
p432
tp433
V:root
p434
(V:arg0
p435
V:purpose
p436
V:time
p437
tp438
Vgo-02
p439
tp440
I1
s((Vit is :arg1 XXX-NN :arg2
p441
g11
tp442
V:root
p443
(V:arg1
p444
V:arg2
p445
tp446
Vfault-01
p447
tp448
I1
s((V:arg1 am :polarity XXX-VB
p449
Vactive
p450
tp451
V:root
p452
(V:arg1
p453
V:polarity
p454
tp455
Vtame-01
p456
tp457
I1
s((V:arg1 was XXX-VB :manner :arg0
p458
Vactive
p459
tp460
V:root
p461
(V:arg0
p462
V:arg1
p463
tp464
Vastonish-01
p465
tp466
I1
s((V:arg0 had :time :op2 :quant XXX-CC :mod :arg1
p467
Vactive
p468
tp469
V:root
p470
(V:op1
p471
V:op2
p472
V:time
p473
tp474
Vand
p475
tp476
I1
s((VXXX-CC :condition , :arg0 :arg2
p477
g11
tp478
V:root
p479
(V:arg2
p480
tp481
Vcontrast-01
p482
tp483
I1
s((Vfive hundred XXX-CC :op1 :arg1
p484
g11
tp485
V:root
p486
(V:op1
p487
V:op2
p488
tp489
Vand
p490
tp491
I1
s((V:mod , :arg0 XXX-VB , i :arg1
p492
Vactive
p493
tp494
V:root
p495
(V:arg0
p496
V:arg1
p497
tp498
Vsay-01
p499
tp500
I1
s((VXXX-CC :arg0
p501
g11
tp502
V:root
p503
(V:op1
p504
tp505
Vand
p506
tp507
I1
s((V:arg0 XXX-VB :mod
p508
Vactive
p509
tp510
V:root
p511
(V:arg0
p512
V:arg1
p513
tp514
Vstare-01
p515
tp516
I1
s((V:quant :op1 :arg1 , :arg0 XXX-VB , :arg1-of
p517
Vactive
p518
tp519
V:root
p520
(V:arg0
p521
V:arg1
p522
tp523
Vsay-01
p524
tp525
I1
s((Vwhat are :arg0 XXX-VB :arg1
p526
Vactive
p527
tp528
V:root
p529
(V:arg0
p530
V:arg1
p531
tp532
Vdo-02
p533
tp534
I1
s((V:arg0 am XXX-JJ :arg2
p535
Vactive
p536
tp537
V:root
p538
(V:arg0
p539
V:arg2
p540
tp541
Vresponsible-03
p542
tp543
I1
s((V:arg0 has :polarity XXX-VB :arg1
p544
Vactive
p545
tp546
V:root
p547
(V:arg0
p548
V:arg1
p549
V:polarity
p550
V:time
p551
tp552
Vlove-01
p553
tp554
I1
s((VXXX-VB :arg0
p555
Vactive
p556
tp557
V:root
p558
(V:arg0
p559
V:arg1
p560
tp561
Vask-01
p562
tp563
I1
s((Vdo :polarity XXX-VB
p564
Vactive
p565
tp566
V:root
p567
(V:polarity
p568
tp569
Vgo-02
p570
tp571
I1
s((VXXX-IN :mod :arg1 :arg0
p572
g11
tp573
V:root
p574
(V:arg0
p575
tp576
Vcause-01
p577
tp578
I1
s((V:arg0 :polarity XXX-VB :arg1
p579
Vactive
p580
tp581
V:root
p582
(V:arg0
p583
V:arg1
p584
V:polarity
p585
V:time
p586
tp587
Vlet-01
p588
tp589
I1
s((VXXX-UH ,
p590
g11
tp591
V:root
p592
g265
Vyes
p593
tp594
I1
s((VXXX-CC is it :polarity :op1 matter :arg1 :arg0
p595
g11
tp596
V:root
p597
(V:op1
p598
tp599
Vand
p600
tp601
I1
s((VXXX-CC :arg1 was :polarity :arg2 :arg0
p602
g11
tp603
V:root
p604
(V:arg2
p605
tp606
Vcontrast-01
p607
tp608
I1
s((V:arg1 is XXX-JJ
p609
Vactive
p610
tp611
V:root
p612
(V:arg1
p613
tp614
Vpossible-01
p615
tp616
I1
s((V:arg1 are :polarity XXX-JJR :compared-to
p617
g11
tp618
V:root
p619
(V:arg1
p620
V:compared-to
p621
V:polarity
p622
tp623
Vthick-03/more
p624
tp625
I1
s((V:arg0 are objects of XXX-NN
p626
g11
tp627
V:root
p628
(V:arg0
p629
V:arg1
p630
tp631
Vcurious-01
p632
tp633
I1
s((V:arg0 :op1 , XXX-CC :op2
p634
g11
tp635
V:root
p636
(V:op1
p637
V:op2
p638
tp639
Vand
p640
tp641
I4
s((VXXX-CC , :condition :op2
p642
g11
tp643
V:root
p644
(V:op2
p645
tp646
Vand
p647
tp648
I1
s((V:arg1 am :degree XXX-RB
p649
Vactive
p650
tp651
V:root
p652
(V:arg1
p653
V:degree
p654
tp655
Vawake-03
p656
tp657
I1
s((VXXX-CC :arg0 :time :arg2
p658
g11
tp659
V:root
p660
(V:arg2
p661
tp662
Vcontrast-01
p663
tp664
I1
s((V:domain am all :mod , XXX-VB :arg0
p665
Vactive
p666
tp667
V:root
p668
(V:arg0
p669
V:arg2
p670
tp671
Vanswer-01
p672
tp673
I1
s((VXXX-NN :topic
p674
g11
tp675
V:root
p676
(V:topic
p677
tp678
Vminister
p679
tp680
I1
s((V:arg2 , :arg0 XXX-VB
p681
Vactive
p682
tp683
V:root
p684
(V:arg0
p685
V:arg2
p686
tp687
Vreply-01
p688
tp689
I1
s((Vthe XXX-NN
p690
g11
tp691
V:root
p692
g265
Vscreen
p693
tp694
I1
s((VXXX-CC then , too , :arg1 :op2
p695
g11
tp696
V:root
p697
(V:op2
p698
tp699
Vand
p700
tp701
I1
s((V:condition :arg0 :condition :arg2 , XXX-JJ :arg1
p702
g11
tp703
V:root
p704
(V:arg0
p705
V:arg1
p706
V:condition
p707
V:condition
p708
tp709
Vtame-01
p710
tp711
I1
s((V:arg0 XXX-VB :arg1
p712
Vactive
p713
tp714
V:root
p715
(V:arg0
p716
V:arg1
p717
tp718
Vbelieve-01
p719
tp720
I2
s((V:arg0 made :arg1 :degree XXX-JJ
p721
g11
tp722
V:root
p723
(V:arg0
p724
V:arg1
p725
V:degree
p726
tp727
Vshame-01
p728
tp729
I1
s((VXXX-CC so :arg1 will be :op2 if :time
p730
g11
tp731
V:root
p732
(V:op2
p733
tp734
Vand
p735
tp736
I1
s((Vto :arg1 XXX-VB :arg2
p737
Vactive
p738
tp739
V:root
p740
(V:arg1
p741
V:arg2
p742
tp743
Vmean-01
p744
tp745
I1
s((V:arg0 :polarity :polarity XXX-VB :arg1
p746
Vactive
p747
tp748
V:root
p749
(V:arg0
p750
V:arg1
p751
V:polarity
p752
V:polarity
p753
tp754
Vbelieve-01
p755
tp756
I1
s((Vi :arg1 :arg1 , :arg0 XXX-VB :arg2 :time
p757
Vactive
p758
tp759
V:root
p760
(V:arg0
p761
V:arg1
p762
V:arg2
p763
V:time
p764
tp765
Vconfide-01
p766
tp767
I1
s((VXXX-CC , :time :op1 , :arg0 :op1
p768
g11
tp769
V:root
p770
(V:op1
p771
V:op2
p772
V:time
p773
tp774
Vand
p775
tp776
I1
s((VXXX-TO :arg0 , :arg1
p777
g11
tp778
V:root
p779
(V:arg0
p780
V:arg1
p781
tp782
Vopine-01
p783
tp784
I1
s((VXXX-IN :arg1 am :time :arg0
p785
g11
tp786
V:root
p787
(V:arg0
p788
tp789
Vcause-01
p790
tp791
I1
s((Vthe :mod :arg0 XXX-MD :arg1 :arg2 :op2 she was :degree
p792
Vactive
p793
tp794
V:root
p795
(V:arg1
p796
tp797
Vpossible-01
p798
tp799
I1
s((V:arg0 :polarity :polarity XXX-VB
p800
Vactive
p801
tp802
V:root
p803
(V:arg0
p804
V:polarity
p805
V:polarity
p806
tp807
Vanswer-01
p808
tp809
I1
s((V:condition , :arg1 XXX-VB :arg1-of and :manner , :manner :arg1-of
p810
Vactive
p811
tp812
V:root
p813
(V:arg1
p814
V:arg1-of
p815
V:condition
p816
V:manner
p817
V:manner
p818
tp819
Vburn-01
p820
tp821
I1
s((V:arg0 XXX-VB that :domain
p822
Vactive
p823
tp824
V:root
p825
(V:arg0
p826
V:arg1
p827
tp828
Vbelieve-01
p829
tp830
I1
s((V:arg1 was :degree XXX-JJ :compared-to :arg1-of
p831
Vactive
p832
tp833
V:root
p834
(V:arg1
p835
V:compared-to
p836
V:degree
p837
tp838
Vsweet-04
p839
tp840
I1
s((V:arg0 are :arg1 :mod XXX-NN
p841
g11
tp842
V:root
p843
(V:arg0
p844
V:arg1
p845
V:mod
p846
tp847
Vinterest-01
p848
tp849
I1
s((Vit is XXX-JJ :domain
p850
Vactive
p851
tp852
V:root
p853
(V:domain
p854
V:domain
p855
tp856
Vabsurd
p857
tp858
I1
s((V:time , :arg0 XXX-VB :mod :arg1
p859
Vactive
p860
tp861
V:root
p862
(V:arg0
p863
V:arg1
p864
V:purpose
p865
tp866
Vneed-01
p867
tp868
I1
s((VXXX-CC :time :op1
p869
g11
tp870
V:root
p871
(V:op1
p872
tp873
Vand
p874
tp875
I1
s((V:degree is :degree :arg1-of :arg1-of :arg0 XXX-VB :poss
p876
Vactive
p877
tp878
V:root
p879
(V:arg0
p880
V:arg1-of
p881
V:arg1-of
p882
V:arg2
p883
tp884
Vempty-01
p885
tp886
I1
s((V:arg0 :arg1-of XXX-VB :arg1 :arg1-of
p887
Vactive
p888
tp889
V:root
p890
(V:arg0
p891
V:arg1
p892
tp893
Vloosen-01
p894
tp895
I1
s((V:arg1 XXX-VB :time :op1
p896
Vactive
p897
tp898
V:root
p899
(V:arg1
p900
V:time
p901
V:time
p902
V:time
p903
tp904
Vwait-01
p905
tp906
I1
s((V:op1 :time , :source :source :arg1-of :source :mod :source where , :arg2 XXX-CC :op2 :arg1
p907
g11
tp908
V:root
p909
(V:op1
p910
V:op2
p911
tp912
Vand
p913
tp914
I1
s((VXXX-RB that is :arg1 :arg0
p915
g11
tp916
V:root
p917
(V:arg1
p918
tp919
Vpossible-01
p920
tp921
I1
s((VXXX-IN :arg0
p922
g11
tp923
V:root
p924
(V:arg0
p925
tp926
Vcause-01
p927
tp928
I1
s((V:arg0 had been :degree XXX-JJ :arg1
p929
Vactive
p930
tp931
V:root
p932
(V:arg0
p933
V:arg1
p934
V:degree
p935
tp936
Vpride-01
p937
tp938
I1
s((V:arg0 XXX-VB :arg1 :subevent-of
p939
Vactive
p940
tp941
V:root
p942
(V:arg0
p943
V:arg1
p944
V:subevent-of
p945
tp946
Vraise-01
p947
tp948
I1
s((V:arg1 , XXX-CC :arg1
p949
g11
tp950
V:root
p951
(V:op1
p952
V:op2
p953
tp954
Vand
p955
tp956
I2
s((V:arg0 shall XXX-VB :time
p957
Vactive
p958
tp959
V:root
p960
(V:arg0
p961
V:arg1
p962
V:time
p963
tp964
Vfeel-01
p965
tp966
I1
s((Vthere is :polarity XXX-NN :poss :beneficiary
p967
g11
tp968
V:root
p969
(V:beneficiary
p970
V:polarity
p971
V:poss
p972
tp973
Vroom
p974
tp975
I1
s((V:arg1 XXX-VB :mod
p976
Vactive
p977
tp978
V:root
p979
(V:arg1
p980
V:mod
p981
tp982
Vflush-03
p983
tp984
I1
s((VXXX-NN
p985
g11
tp986
V:root
p987
g265
Vphew
p988
tp989
I1
s((VXXX-CC :arg2
p990
g11
tp991
V:root
p992
(V:arg2
p993
tp994
Vcontrast-01
p995
tp996
I3
s((V:arg1 :arg1 :arg0 XXX-VB :arg0
p997
Vactive
p998
tp999
V:root
p1000
(V:arg0
p1001
V:arg1
p1002
tp1003
Vdemand-01
p1004
tp1005
I1
s((V:poss :time :arg1 was XXX-VB :arg2
p1006
Vactive
p1007
tp1008
V:root
p1009
(V:arg0
p1010
V:arg1
p1011
V:arg2
p1012
V:mod
p1013
V:time
p1014
V:time
p1015
V:time
p1016
tp1017
Vreveal-01
p1018
tp1019
I1
s((VXXX-NN :arg0-of :arg1 :arg0-of
p1020
g11
tp1021
V:root
p1022
(V:arg0-of
p1023
V:arg0-of
p1024
tp1025
Vmatter
p1026
tp1027
I1
s((VXXX-CC :arg0 :op2
p1028
g11
tp1029
V:root
p1030
(V:op2
p1031
tp1032
Vand
p1033
tp1034
I28
s((V:instrument , :arg0 XXX-VB :arg1 :arg1
p1035
Vactive
p1036
tp1037
V:root
p1038
(V:arg0
p1039
V:arg1
p1040
V:instrument
p1041
tp1042
Vsave-03
p1043
tp1044
I1
s((Vand it XXX-VB :arg0
p1045
Vactive
p1046
tp1047
V:root
p1048
(V:arg0
p1049
tp1050
Vtire-01
p1051
tp1052
I1
s((V:location are a XXX-NN :arg0
p1053
g11
tp1054
V:root
p1055
(V:arg0
p1056
V:location
p1057
tp1058
Vbloom-01
p1059
tp1060
I1
s((V:arg0 are XXX-JJ :arg1
p1061
g11
tp1062
V:root
p1063
(V:arg0
p1064
V:arg1
p1065
tp1066
Vresponsible-03
p1067
tp1068
I1
s((V:arg1 XXX-VB :op1 , :arg1 :op2
p1069
Vactive
p1070
tp1071
V:root
p1072
(V:arg1
p1073
tp1074
Vseem-01
p1075
tp1076
I1
s((V:time :arg1 am XXX-JJ
p1077
Vactive
p1078
tp1079
V:root
p1080
(V:arg1
p1081
V:time
p1082
tp1083
Vhappy-01
p1084
tp1085
I1
s((Vbut :arg0 will XXX-NN :arg1
p1086
Vactive
p1087
tp1088
V:root
p1089
(V:arg0
p1090
V:arg1
p1091
V:arg1-of
p1092
V:frequency
p1093
V:frequency
p1094
tp1095
Vpardon-01
p1096
tp1097
I1
s((VXXX-WRB :condition , it :arg1
p1098
g11
tp1099
V:root
p1100
(V:arg1
p1101
V:condition
p1102
tp1103
Vbelong-01
p1104
tp1105
I1
s((Vwhat does that XXX-NN ' :arg1 :arg2
p1106
g11
tp1107
V:root
p1108
(V:arg1
p1109
V:arg2
p1110
tp1111
Vmean-01
p1112
tp1113
I1
s((V:op1 , XXX-CC :op3
p1114
g11
tp1115
V:root
p1116
(V:op1
p1117
V:op2
p1118
V:op3
p1119
V:time
p1120
tp1121
Vand
p1122
tp1123
I1
s((V:arg1 XXX-VB :arg2 :arg1-of , :arg1 :arg1-of
p1124
Vactive
p1125
tp1126
V:root
p1127
(V:arg1
p1128
V:arg2
p1129
tp1130
Vstand-01
p1131
tp1132
I1
s((V:arg0 XXX-VB :arg2 :arg1
p1133
Vactive
p1134
tp1135
V:root
p1136
(V:arg0
p1137
V:arg1
p1138
V:arg2
p1139
V:manner
p1140
tp1141
Vsay-01
p1142
tp1143
I1
s((V:arg0 is a XXX-NN , :arg0-of , :arg0-of
p1144
g11
tp1145
V:root
p1146
(V:arg0-of
p1147
V:arg1-of
p1148
tp1149
Vrite
p1150
tp1151
I1
s((VXXX-DT
p1152
g11
tp1153
V:root
p1154
g265
Vno
p1155
tp1156
I4
s((V:domain is :degree :degree XXX-JJ :arg1-of
p1157
Vactive
p1158
tp1159
V:root
p1160
(V:degree
p1161
V:domain
p1162
tp1163
Vimportant
p1164
tp1165
I1
s((V:arg0 have XXX-VB :arg1
p1166
Vactive
p1167
tp1168
V:root
p1169
(V:arg0
p1170
V:arg1
p1171
tp1172
Vdecide-01
p1173
tp1174
I1
s((VXXX-CC :arg1 :arg0
p1175
g11
tp1176
V:root
p1177
(V:arg2
p1178
tp1179
Vcontrast-01
p1180
tp1181
I1
s((V:arg1 , XXX-VB :arg0-of
p1182
Vactive
p1183
tp1184
V:root
p1185
(V:arg0
p1186
V:arg2
p1187
tp1188
Vreply-01
p1189
tp1190
I1
s((V:arg0 XXX-VB :arg1
p1191
Vactive
p1192
tp1193
V:root
p1194
(V:arg0
p1195
V:arg1
p1196
tp1197
Vclap-01
p1198
tp1199
I1
s((V:arg0 , :arg1-of , will :polarity XXX-VB :arg1 :time
p1200
Vactive
p1201
tp1202
V:root
p1203
(V:arg0
p1204
V:arg1
p1205
V:arg1-of
p1206
V:polarity
p1207
V:time
p1208
tp1209
Vbelieve-01
p1210
tp1211
I1
s((V:arg0 XXX-VB :arg1 :time :arg1-of
p1212
Vactive
p1213
tp1214
V:root
p1215
(V:arg0
p1216
V:arg1
p1217
V:location
p1218
tp1219
Vbuy-01
p1220
tp1221
I1
s((V:location , :time , is a :mod XXX-NN
p1222
g11
tp1223
V:root
p1224
(V:location
p1225
V:mod
p1226
V:time
p1227
tp1228
Vmystery
p1229
tp1230
I1
s((Vi am :polarity :degree :arg1 , :arg0 XXX-VB on , :arg1 :arg2
p1231
Vactive
p1232
tp1233
V:root
p1234
(V:arg0
p1235
V:arg1
p1236
tp1237
Vgo-on-25
p1238
tp1239
I1
s((Vwhen :arg0 XXX-VB :arg1 he :time
p1240
Vactive
p1241
tp1242
V:root
p1243
(V:arg0
p1244
V:arg1
p1245
V:time
p1246
tp1247
Vsucceed-01
p1248
tp1249
I1
s((V:arg0 XXX-VB :arg1
p1250
Vactive
p1251
tp1252
V:root
p1253
(V:arg0
p1254
V:arg1
p1255
V:arg2
p1256
tp1257
Vask-02
p1258
tp1259
I1
s((V:arg1 :arg1 XXX-VB :arg0-of
p1260
Vactive
p1261
tp1262
V:root
p1263
(V:arg0
p1264
V:arg1
p1265
tp1266
Vsay-01
p1267
tp1268
I1
s((V:arg0 have XXX-NN :arg1-of ,
p1269
g11
tp1270
V:root
p1271
(V:arg0
p1272
V:arg1
p1273
tp1274
Vplan-01
p1275
tp1276
I1
s((VXXX-IN :duration-of :duration-of
p1277
g11
tp1278
V:root
p1279
(V:arg1
p1280
V:duration-of
p1281
V:duration-of
p1282
tp1283
Vpass-03
p1284
tp1285
I1
s((Vand what :arg1 :arg1 :arg0 XXX-VB
p1286
Vactive
p1287
tp1288
V:root
p1289
(V:arg0
p1290
V:arg1
p1291
tp1292
Vask-01
p1293
tp1294
I1
s((V:arg2 , XXX-VB :arg0-of , :manner :arg0
p1295
Vactive
p1296
tp1297
V:root
p1298
(V:arg0
p1299
V:arg2
p1300
V:manner
p1301
V:manner
p1302
tp1303
Vreply-01
p1304
tp1305
I1
s((VXXX-CC :time :arg1 :op2
p1306
g11
tp1307
V:root
p1308
(V:op2
p1309
tp1310
Vand
p1311
tp1312
I2
s((Vthere :time XXX-WDT :mod
p1313
g11
tp1314
V:root
p1315
(V:mod
p1316
V:time
p1317
tp1318
Vthat
p1319
tp1320
I1
s((V:arg0 XXX-VB :arg1
p1321
Vactive
p1322
tp1323
V:root
p1324
(V:arg0
p1325
V:arg1
p1326
tp1327
Vfind-out-03
p1328
tp1329
I1
s((V:arg1-of :arg1 XXX-VB :mod :arg2
p1330
Vactive
p1331
tp1332
V:root
p1333
(V:arg1
p1334
V:arg2
p1335
V:mod
p1336
tp1337
Vrest-02
p1338
tp1339
I1
s((VXXX-CC :arg0 :op1
p1340
g11
tp1341
V:root
p1342
(V:op1
p1343
tp1344
Vand
p1345
tp1346
I2
s((VXXX-CC :arg0 :arg2 you know , :arg1
p1347
g11
tp1348
V:root
p1349
(V:arg2
p1350
tp1351
Vcontrast-01
p1352
tp1353
I1
s((V:arg1 , XXX-VB :arg0
p1354
Vactive
p1355
tp1356
V:root
p1357
(V:arg0
p1358
V:arg2
p1359
V:manner
p1360
tp1361
Vreply-01
p1362
tp1363
I1
s((V:arg2 , XXX-VB :arg0
p1364
Vactive
p1365
tp1366
V:root
p1367
(V:arg0
p1368
V:arg1
p1369
tp1370
Vsay-01
p1371
tp1372
I1
s((Vbut :location is XXX-NN :location :arg1-of
p1373
g11
tp1374
V:root
p1375
(V:arg1-of
p1376
V:location
p1377
V:location
p1378
tp1379
Vnobody
p1380
tp1381
I1
s((V:time :arg0 put :arg1 :time :arg1-of XXX-NN
p1382
g11
tp1383
V:root
p1384
(V:arg0
p1385
V:arg1
p1386
V:arg1-of
p1387
V:time
p1388
V:time
p1389
tp1390
Vorder-03
p1391
tp1392
I1
s((V:arg0 XXX-VB :arg1
p1393
Vactive
p1394
tp1395
V:root
p1396
(V:arg0
p1397
V:arg1
p1398
tp1399
Vown-01
p1400
tp1401
I2
s((Vas for me , :arg1 was XXX-VB :arg0
p1402
Vactive
p1403
tp1404
V:root
p1405
(V:arg0
p1406
V:arg1
p1407
tp1408
Vupset-01
p1409
tp1410
I1
s((VXXX-CC :arg1 :op2 , :arg2 :op2
p1411
g11
tp1412
V:root
p1413
(V:arg2
p1414
tp1415
Vcontrast-01
p1416
tp1417
I1
s((V:arg1-of then the :ord XXX-NN was the earth
p1418
g11
tp1419
V:root
p1420
(V:arg1-of
p1421
V:domain
p1422
V:ord
p1423
tp1424
Vplanet
p1425
tp1426
I1
s((V:arg2 was :quant :arg1 , for it was becoming :arg0 XXX-IN :arg1
p1427
Vactive
p1428
tp1429
V:root
p1430
(V:arg0
p1431
V:arg1
p1432
tp1433
Vcause-01
p1434
tp1435
I1
s((V:arg1 , :arg0 XXX-VB :quant :time
p1436
Vactive
p1437
tp1438
V:root
p1439
(V:arg0
p1440
V:arg1
p1441
V:time
p1442
tp1443
Vadd-01
p1444
tp1445
I1
s((V:arg2 , XXX-CC :degree
p1446
g11
tp1447
V:root
p1448
(V:arg1
p1449
V:arg2
p1450
tp1451
Vhave-concession-91
p1452
tp1453
I1
s((V:arg0 shall XXX-VB :degree
p1454
Vactive
p1455
tp1456
V:root
p1457
(V:arg0
p1458
V:arg1
p1459
V:degree
p1460
tp1461
Vlook-02
p1462
tp1463
I1
s((Vis :arg1 in XXX-NN :arg1-of :arg0
p1464
g11
tp1465
V:root
p1466
(V:arg1
p1467
V:arg1-of
p1468
tp1469
Vendanger-01
p1470
tp1471
I1
s((VXXX-CC :time :domain :arg2
p1472
g11
tp1473
V:root
p1474
(V:arg2
p1475
tp1476
Vcontrast-01
p1477
tp1478
I1
s((V:arg1 , and :arg1 would :arg1 :arg1 XXX-IN :arg1 :arg1
p1479
g11
tp1480
V:root
p1481
(V:arg0
p1482
V:arg1
p1483
tp1484
Vcause-01
p1485
tp1486
I1
s((VXXX-VB , :time
p1487
Vactive
p1488
tp1489
V:root
p1490
(V:time
p1491
tp1492
Vcome-01
p1493
tp1494
I1
s((V:arg1 are :mod :mod XXX-VB
p1495
Vactive
p1496
tp1497
V:root
p1498
(V:arg1
p1499
V:mod
p1500
tp1501
Varrange-01
p1502
tp1503
I1
s((V:time :arg1 :time makes :arg3 , XXX-CC :op2
p1504
g11
tp1505
V:root
p1506
(V:op1
p1507
V:op2
p1508
V:time
p1509
tp1510
Vand
p1511
tp1512
I1
s((V:arg0 XXX-VB :arg1 :location , :arg0 , :arg0-of
p1513
Vactive
p1514
tp1515
V:root
p1516
(V:arg0
p1517
V:arg1
p1518
V:location
p1519
tp1520
Vlook-01
p1521
tp1522
I1
s((V:arg0 was XXX-VB :arg1
p1523
Vactive
p1524
tp1525
V:root
p1526
(V:arg0
p1527
V:arg1
p1528
tp1529
Vregret-01
p1530
tp1531
I1
s((V:domain is :degree XXX-JJ :domain :arg2
p1532
Vactive
p1533
tp1534
V:root
p1535
(V:degree
p1536
V:domain
p1537
V:domain
p1538
tp1539
Vlonely
p1540
tp1541
I1
s((VXXX-PRP :location
p1542
g11
tp1543
V:root
p1544
(V:location
p1545
tp1546
Vyou
p1547
tp1548
I1
s((Vit is :location that :arg1 :op1 , XXX-CC :op2
p1549
Vactive
p1550
tp1551
V:root
p1552
(V:location
p1553
V:op1
p1554
V:op2
p1555
tp1556
Vand
p1557
tp1558
I1
s((V:time XXX-VB :arg0 , :time :arg1-of
p1559
Vactive
p1560
tp1561
V:root
p1562
(V:arg0
p1563
V:arg1
p1564
tp1565
Vmurmur-01
p1566
tp1567
I1
s((V:arg0 , :arg1-of , XXX-NN :arg2
p1568
g11
tp1569
V:root
p1570
(V:arg0
p1571
V:arg1-of
p1572
V:arg2
p1573
tp1574
Vtrust-01
p1575
tp1576
I1
s((VXXX-CC , besides , :arg3
p1577
g11
tp1578
V:root
p1579
(V:op1
p1580
tp1581
Vand
p1582
tp1583
I1
s((V:arg0 have the XXX-NN :arg2
p1584
g11
tp1585
V:root
p1586
(V:arg1-of
p1587
V:arg2
p1588
tp1589
Vright-05
p1590
tp1591
I1
s((V:arg1 are XXX-IN :arg2 :time
p1592
Vactive
p1593
tp1594
V:root
p1595
(V:arg1
p1596
V:arg2
p1597
V:time
p1598
tp1599
Vresemble-01
p1600
tp1601
I1
s((V:arg1-of , :arg0 XXX-VB :op1 :frequency :op2 times , :purpose
p1602
Vactive
p1603
tp1604
V:root
p1605
(V:arg0
p1606
V:frequency
p1607
V:frequency
p1608
V:purpose
p1609
tp1610
Vcough-01
p1611
tp1612
I1
s((Vthey XXX-JJ :arg0 :compared-to
p1613
g11
tp1614
V:root
p1615
(V:arg0
p1616
V:arg1
p1617
tp1618
Vfancy-01
p1619
tp1620
I1
s((V:arg0 will be :degree XXX-JJ
p1621
Vactive
p1622
tp1623
V:root
p1624
(V:arg0
p1625
V:degree
p1626
tp1627
Vamuse-01
p1628
tp1629
I1
s((V:arg0 XXX-VB :op2
p1630
Vactive
p1631
tp1632
V:root
p1633
(V:arg0
p1634
V:arg1
p1635
tp1636
Vfeel-01
p1637
tp1638
I1
s((V:op1 :arg1 :op2 XXX-VB :arg2
p1639
Vactive
p1640
tp1641
V:root
p1642
(V:arg1
p1643
V:arg2
p1644
tp1645
Vequal-01
p1646
tp1647
I3
s((V:arg1 , XXX-CC :op2
p1648
g11
tp1649
V:root
p1650
(V:op1
p1651
V:op2
p1652
tp1653
Vand
p1654
tp1655
I1
s((VXXX-CC :arg1 :op2
p1656
g11
tp1657
V:root
p1658
(V:op2
p1659
tp1660
Vand
p1661
tp1662
I7
s((V:arg1 XXX-VB down
p1663
Vactive
p1664
tp1665
V:root
p1666
(V:arg1
p1667
tp1668
Vsit-down-02
p1669
tp1670
I1
s((Vit would have been :arg1 :arg1 , XXX-VB :arg0
p1671
Vactive
p1672
tp1673
V:root
p1674
(V:arg0
p1675
V:arg1
p1676
tp1677
Vsay-01
p1678
tp1679
I1
s((V:arg0 shall XXX-VB :arg1
p1680
Vactive
p1681
tp1682
V:root
p1683
(V:arg0
p1684
V:arg1
p1685
tp1686
Vhave-03
p1687
tp1688
I1
s((V:arg1 XXX-VB :location :location :location , :op2 , :op3
p1689
Vactive
p1690
tp1691
V:root
p1692
(V:op1
p1693
V:op2
p1694
V:op3
p1695
tp1696
Vand
p1697
tp1698
I1
s((Vthen :arg2 XXX-VB :arg1 two thousand , seven hundred thirty one
p1699
Vactive
p1700
tp1701
V:root
p1702
(V:arg1
p1703
V:arg2
p1704
tp1705
Vequal-01
p1706
tp1707
I1
s((V:arg0 XXX-VB :arg1 :manner
p1708
Vactive
p1709
tp1710
V:root
p1711
(V:arg0
p1712
V:arg1
p1713
V:manner
p1714
tp1715
Vchoose-01
p1716
tp1717
I1
s((V:arg1 is XXX-IN :quant :arg2
p1718
Vactive
p1719
tp1720
V:root
p1721
(V:arg1
p1722
V:arg2
p1723
tp1724
Vresemble-01
p1725
tp1726
I1
s((V:arg1 am XXX-VB :arg0
p1727
Vactive
p1728
tp1729
V:root
p1730
(V:arg0
p1731
V:arg1
p1732
tp1733
Vconcern-01
p1734
tp1735
I1
s((VXXX-VB :arg1
p1736
Vactive
p1737
tp1738
V:root
p1739
(V:arg1
p1740
tp1741
Vtry-01
p1742
tp1743
I1
s((V:domain , :arg0 XXX-VB :arg1-of , :arg0-of
p1744
Vactive
p1745
tp1746
V:root
p1747
(V:arg0
p1748
V:arg1
p1749
V:arg1-of
p1750
tp1751
Vsay-01
p1752
tp1753
I1
s((V:arg0 XXX-VB :arg1
p1754
Vactive
p1755
tp1756
V:root
p1757
(V:arg0
p1758
V:arg1
p1759
tp1760
Vimagine-01
p1761
tp1762
I1
s((V:domain is of :polarity XXX-NN
p1763
g11
tp1764
V:root
p1765
(V:domain
p1766
V:polarity
p1767
tp1768
Vimportant
p1769
tp1770
I1
s((VXXX-NN :mod
p1771
g11
tp1772
V:root
p1773
(V:mod
p1774
tp1775
Vchapter
p1776
tp1777
I21
s((V:time , :arg1 shall :time be :op1 XXX-CC :op2 :direction
p1778
Vactive
p1779
tp1780
V:root
p1781
(V:op1
p1782
V:op2
p1783
V:time
p1784
V:time
p1785
tp1786
Vand
p1787
tp1788
I1
s((V:arg1 was XXX-VB :ord :arg0
p1789
Vactive
p1790
tp1791
V:root
p1792
(V:arg0
p1793
V:arg1
p1794
tp1795
Vinhabit-01
p1796
tp1797
I1
s((V:arg2 , XXX-RB , :arg0 :polarity :arg1
p1798
g11
tp1799
V:root
p1800
(V:arg2
p1801
tp1802
Vcontrast-01
p1803
tp1804
I1
s((V:time :arg1 XXX-MD :arg2
p1805
Vactive
p1806
tp1807
V:root
p1808
(V:arg1
p1809
V:arg2
p1810
V:time
p1811
tp1812
Vobligate-01
p1813
tp1814
I1
s((Vit would be :arg1 XXX-NN
p1815
g11
tp1816
V:root
p1817
(V:arg1
p1818
tp1819
Vfault-01
p1820
tp1821
I1
s((V:arg1 XXX-VB :manner :arg0
p1822
Vactive
p1823
tp1824
V:root
p1825
(V:arg1
p1826
V:arg4
p1827
V:arg4
p1828
V:manner
p1829
tp1830
Vcome-01
p1831
tp1832
I1
s((VXXX-CC :arg0 :op2 :arg1
p1833
g11
tp1834
V:root
p1835
(V:op2
p1836
tp1837
Vand
p1838
tp1839
I2
s((V:op1 , XXX-CC :op2
p1840
g11
tp1841
V:root
p1842
(V:op1
p1843
V:op2
p1844
tp1845
Vand
p1846
tp1847
I13
s((V:location is :polarity XXX-NN :location :purpose :purpose
p1848
g11
tp1849
V:root
p1850
(V:location
p1851
V:location
p1852
V:polarity
p1853
V:purpose
p1854
V:purpose
p1855
tp1856
Vroom
p1857
tp1858
I1
s((VXXX-RB the :arg1 are they
p1859
g11
tp1860
V:root
p1861
(V:arg1
p1862
V:arg1-of
p1863
V:arg2
p1864
tp1865
Vhave-purpose-91
p1866
tp1867
I1
s((V:arg0 XXX-VB :arg1
p1868
Vactive
p1869
tp1870
V:root
p1871
(V:arg0
p1872
V:arg1
p1873
V:arg2
p1874
tp1875
Vsay-01
p1876
tp1877
I1
s((V:mod was XXX-IN :arg1
p1878
Vactive
p1879
tp1880
V:root
p1881
(V:arg1
p1882
V:arg2
p1883
tp1884
Vresemble-01
p1885
tp1886
I1
s((Vit is :arg1 :arg1 , :arg0 XXX-VB :arg2
p1887
Vactive
p1888
tp1889
V:root
p1890
(V:arg0
p1891
V:arg1
p1892
V:arg2
p1893
tp1894
Vsay-01
p1895
tp1896
I1
s((V:quant :mod :arg0 XXX-NN :time :arg1
p1897
g11
tp1898
V:root
p1899
(V:arg0
p1900
V:arg1
p1901
V:time
p1902
tp1903
Vlove-01
p1904
tp1905
I1
s((V:domain is :polarity :arg1 :degree :arg0-of XXX-VB :arg1
p1906
Vactive
p1907
tp1908
V:root
p1909
(V:arg0
p1910
V:arg1
p1911
tp1912
Vsay-01
p1913
tp1914
I1
s((V:concession :concession :arg2 was :op1 XXX-CC :op2 :extent :arg1
p1915
Vactive
p1916
tp1917
V:root
p1918
(V:concession
p1919
V:concession
p1920
V:op1
p1921
V:op2
p1922
tp1923
Vand
p1924
tp1925
I1
s((VXXX-CC :arg1 :op1
p1926
g11
tp1927
V:root
p1928
(V:op1
p1929
tp1930
Vand
p1931
tp1932
I1
s((V:domain is the :mod XXX-NN :compared-to
p1933
g11
tp1934
V:root
p1935
(V:domain
p1936
V:mod
p1937
tp1938
Vthing
p1939
tp1940
I1
s((V:degree will be a :mod XXX-NN :arg1
p1941
g11
tp1942
V:root
p1943
(V:arg0
p1944
V:arg1
p1945
V:mod
p1946
tp1947
Vtrick-01
p1948
tp1949
I1
s((Vover what XXX-MD :arg0 :arg1 :arg1
p1950
Vactive
p1951
tp1952
V:root
p1953
(V:arg1
p1954
tp1955
Vpossible-01
p1956
tp1957
I1
s((VXXX-IN :arg2
p1958
g11
tp1959
V:root
p1960
(V:arg2
p1961
tp1962
Vbe-located-at-91
p1963
tp1964
I1
s((V:arg0 XXX-MD :arg1
p1965
Vactive
p1966
tp1967
V:root
p1968
(V:arg1
p1969
tp1970
Vrecommend-01
p1971
tp1972
I4
s((V:arg0 XXX-VB :arg1-of :op2 :arg2
p1973
Vactive
p1974
tp1975
V:root
p1976
(V:arg0
p1977
V:arg1
p1978
V:arg2
p1979
tp1980
Vcast-01
p1981
tp1982
I1
s((VXXX-CC :time would :arg0 :polarity
p1983
g11
tp1984
V:root
p1985
(V:op2
p1986
tp1987
Vand
p1988
tp1989
I1
s((VXXX-CC , :op1 , :arg0 :op2
p1990
g11
tp1991
V:root
p1992
(V:op2
p1993
tp1994
Vand
p1995
tp1996
I1
s((V:arg0 are XXX-JJ :arg1
p1997
Vactive
p1998
tp1999
V:root
p2000
(V:arg0
p2001
V:arg1
p2002
tp2003
Vsure-02
p2004
tp2005
I1
s((V:arg0 :polarity :polarity XXX-VB :arg1 ,
p2006
Vactive
p2007
tp2008
V:root
p2009
(V:arg0
p2010
V:arg1
p2011
V:polarity
p2012
V:polarity
p2013
tp2014
Vfind-01
p2015
tp2016
I1
s((VXXX-CC , :arg1-of :arg0 , :arg0 :arg1
p2017
g11
tp2018
V:root
p2019
(V:arg1
p2020
tp2021
Vhave-concession-91
p2022
tp2023
I1
s((V:arg0 has XXX-VB :arg2 :arg1 :mod
p2024
Vactive
p2025
tp2026
V:root
p2027
(V:arg0
p2028
V:arg1
p2029
V:arg2
p2030
V:mod
p2031
tp2032
Vdo-02
p2033
tp2034
I1
s((V:arg0 is :degree XXX-JJ
p2035
Vactive
p2036
tp2037
V:root
p2038
(V:arg0
p2039
V:degree
p2040
tp2041
Vdisturb-01
p2042
tp2043
I1
s((VXXX-CC :arg0 :op2 :arg2
p2044
g11
tp2045
V:root
p2046
(V:op2
p2047
tp2048
Vand
p2049
tp2050
I1
s((VXXX-CC i :op2 :arg0
p2051
g11
tp2052
V:root
p2053
(V:arg1-of
p2054
V:op2
p2055
tp2056
Vand
p2057
tp2058
I1
s((Vand :arg0 XXX-VB himself :manner :arg1 :arg0 :arg1 :condition :manner
p2059
Vactive
p2060
tp2061
V:root
p2062
(V:arg0
p2063
V:arg1
p2064
tp2065
Vask-01
p2066
tp2067
I1
s((V:arg0 had XXX-JJ the :arg1
p2068
g11
tp2069
V:root
p2070
(V:arg0
p2071
V:arg1
p2072
tp2073
Vdrink-01
p2074
tp2075
I1
s((V:time :arg1 will XXX-VB :direction :direction :unit :example :time :location
p2076
Vactive
p2077
tp2078
V:root
p2079
(V:arg1
p2080
V:direction
p2081
V:direction
p2082
V:example
p2083
V:location
p2084
V:time
p2085
V:time
p2086
tp2087
Vsit-down-02
p2088
tp2089
I1
s((V:arg0 runs the XXX-NN :arg2
p2090
g11
tp2091
V:root
p2092
(V:arg0
p2093
V:arg2
p2094
V:condition
p2095
V:condition
p2096
tp2097
Vrisk-01
p2098
tp2099
I1
s((V:arg0 , :mod , shall XXX-VB :arg1
p2100
Vactive
p2101
tp2102
V:root
p2103
(V:arg0
p2104
V:arg1
p2105
tp2106
Vlook-01
p2107
tp2108
I1
s((V:op1 :arg2 :op2 XXX-VB :arg1
p2109
Vactive
p2110
tp2111
V:root
p2112
(V:arg1
p2113
V:arg2
p2114
tp2115
Vequal-01
p2116
tp2117
I1
s((VXXX-CC , :op2 , :arg1 :arg1
p2118
g11
tp2119
V:root
p2120
(V:op2
p2121
tp2122
Vand
p2123
tp2124
I1
s((V:arg0 XXX-FW :arg1
p2125
g11
tp2126
V:root
p2127
(V:arg0
p2128
V:arg1
p2129
V:arg2
p2130
tp2131
Vforbid-01
p2132
tp2133
I1
s((V:domain was :arg1-of :degree XXX-JJ
p2134
Vactive
p2135
tp2136
V:root
p2137
(V:arg1-of
p2138
V:degree
p2139
V:domain
p2140
tp2141
Vangry
p2142
tp2143
I1
s((V:domain was :mod :domain XXX-NN :arg1-of :quant
p2144
g11
tp2145
V:root
p2146
(V:arg1-of
p2147
V:domain
p2148
V:domain
p2149
V:mod
p2150
tp2151
Vfox
p2152
tp2153
I1
s((V:arg0 has :polarity XXX-NN :arg1 ,
p2154
g11
tp2155
V:root
p2156
(V:arg1
p2157
V:polarity
p2158
tp2159
Vpossible-01
p2160
tp2161
I1
s((V:arg1 XXX-VB
p2162
Vactive
p2163
tp2164
V:root
p2165
(V:arg0
p2166
V:arg1
p2167
V:mod
p2168
tp2169
Vneed-01
p2170
tp2171
I1
s((V:domain is the XXX-NN
p2172
g11
tp2173
V:root
p2174
(V:domain
p2175
tp2176
Vtragedy
p2177
tp2178
I1
s((V:time :op1 , :arg0 XXX-VB :arg1
p2179
Vactive
p2180
tp2181
V:root
p2182
(V:arg0
p2183
V:arg1
p2184
V:time
p2185
tp2186
Vclimb-01
p2187
tp2188
I1
s((V:arg0 XXX-VB :arg1-of :arg1-of :arg1
p2189
Vactive
p2190
tp2191
V:root
p2192
(V:arg0
p2193
V:arg1
p2194
V:arg1-of
p2195
V:arg1-of
p2196
tp2197
Vrealize-01
p2198
tp2199
I1
s((V:domain was :arg0-of XXX-NN :mod
p2200
g11
tp2201
V:root
p2202
(V:arg0-of
p2203
V:domain
p2204
V:mod
p2205
tp2206
Vflower
p2207
tp2208
I1
s((V:arg1 , :arg0 XXX-VB :arg2 , :time
p2209
Vactive
p2210
tp2211
V:root
p2212
(V:arg0
p2213
V:arg1
p2214
V:arg2
p2215
V:time
p2216
tp2217
Vsay-01
p2218
tp2219
I1
s((V:op1 , :arg0 XXX-VB to himself , :condition
p2220
Vactive
p2221
tp2222
V:root
p2223
(V:arg0
p2224
V:arg1
p2225
tp2226
Vsay-01
p2227
tp2228
I1
s((V:arg0 have :arg1 to XXX-VB :arg2
p2229
Vactive
p2230
tp2231
V:root
p2232
(V:arg0
p2233
V:arg1
p2234
V:arg2
p2235
tp2236
Vsay-01
p2237
tp2238
I1
s((V:arg1 would be :degree XXX-VB
p2239
Vactive
p2240
tp2241
V:root
p2242
(V:arg1
p2243
V:degree
p2244
tp2245
Vcomplicate-01
p2246
tp2247
I1
s((V:time :time , :mod :time :time , :arg0 :manner XXX-VB :manner
p2248
Vactive
p2249
tp2250
V:root
p2251
(V:arg0
p2252
V:manner
p2253
V:manner
p2254
V:time
p2255
V:time
p2256
V:time
p2257
V:time
p2258
tp2259
Vshow-01
p2260
tp2261
I1
s((V:time , XXX-VB :arg0
p2262
Vactive
p2263
tp2264
V:root
p2265
(V:arg0
p2266
V:arg1
p2267
tp2268
Vsay-01
p2269
tp2270
I1
s((VXXX-CC :time
p2271
g11
tp2272
V:root
p2273
(V:op2
p2274
tp2275
Vand
p2276
tp2277
I1
s((V:arg1 is :arg0 XXX-JJ
p2278
g11
tp2279
V:root
p2280
(V:arg0
p2281
V:arg1
p2282
tp2283
Vpresent-01
p2284
tp2285
I1
s((Vthere is :polarity XXX-NN :duration :manner
p2286
g11
tp2287
V:root
p2288
(V:duration
p2289
V:duration
p2290
V:polarity
p2291
V:purpose
p2292
tp2293
Vtime
p2294
tp2295
I1
s((V:arg0 will XXX-VB :time :domain :arg1
p2296
Vactive
p2297
tp2298
V:root
p2299
(V:arg0
p2300
V:arg1
p2301
V:time
p2302
tp2303
Vunderstand-01
p2304
tp2305
I1
s((VXXX-CC what :op1 :arg1
p2306
g11
tp2307
V:root
p2308
(V:op1
p2309
tp2310
Vand
p2311
tp2312
I1
s((VXXX-IN :arg0 :domain :arg1
p2313
g11
tp2314
V:root
p2315
(V:arg0
p2316
V:arg1
p2317
tp2318
Vopine-01
p2319
tp2320
I1
s((V:domain is :domain :arg1-of XXX-NN
p2321
g11
tp2322
V:root
p2323
(V:arg1-of
p2324
V:domain
p2325
V:domain
p2326
tp2327
Voccupation
p2328
tp2329
I1
s((V:time :arg0
p2330
g11
tp2331
V:root
p2332
(V:arg0
p2333
V:time
p2334
tp2335
Vgo-02
p2336
tp2337
I1
s((VXXX-CC :op1 :domain
p2338
g11
tp2339
V:root
p2340
(V:op1
p2341
tp2342
Vand
p2343
tp2344
I1
s((V:mod the XXX-NN :domain
p2345
g11
tp2346
V:root
p2347
(V:domain
p2348
V:domain
p2349
V:mod
p2350
tp2351
Vstar
p2352
tp2353
I1
s((V:arg0 was :polarity XXX-JJ :op2
p2354
Vactive
p2355
tp2356
V:root
p2357
(V:arg1
p2358
V:polarity
p2359
tp2360
Vpossible-01
p2361
tp2362
I1
s((V:domain is :degree XXX-JJ :compared-to
p2363
Vactive
p2364
tp2365
V:root
p2366
(V:compared-to
p2367
V:degree
p2368
V:domain
p2369
tp2370
Vheavy
p2371
tp2372
I1
s((V:time , :arg0-of , :arg0 XXX-VB :arg1
p2373
Vactive
p2374
tp2375
V:root
p2376
(V:arg0
p2377
V:arg1
p2378
V:time
p2379
tp2380
Vtake-01
p2381
tp2382
I1
s((V:mod :arg0 XXX-VB :arg1
p2383
Vactive
p2384
tp2385
V:root
p2386
(V:arg0
p2387
V:arg1
p2388
V:mod
p2389
tp2390
Vdisturb-01
p2391
tp2392
I1
s((VXXX-CC :op3
p2393
g11
tp2394
V:root
p2395
(V:op2
p2396
tp2397
Vand
p2398
tp2399
I1
s((V:arg1 XXX-MD :arg1
p2400
Vactive
p2401
tp2402
V:root
p2403
(V:arg1
p2404
tp2405
Vpossible-01
p2406
tp2407
I1
s((VXXX-CC :ord :mod
p2408
g11
tp2409
V:root
p2410
(V:op2
p2411
tp2412
Vand
p2413
tp2414
I1
s((V:time , :frequency :frequency XXX-VB :degree :arg1 :op1
p2415
Vactive
p2416
tp2417
V:root
p2418
(V:arg1
p2419
V:degree
p2420
V:frequency
p2421
V:frequency
p2422
V:time
p2423
tp2424
Vwander-01
p2425
tp2426
I1
s((Vis :domain :polarity XXX-JJ
p2427
g11
tp2428
V:root
p2429
(V:domain
p2430
V:domain
p2431
V:polarity
p2432
tp2433
Vimportant
p2434
tp2435
I1
s((V:arg0 :mod XXX-VB :arg1
p2436
Vactive
p2437
tp2438
V:root
p2439
(V:arg0
p2440
V:arg1
p2441
V:mod
p2442
tp2443
Vraise-03
p2444
tp2445
I1
s((V:arg0-of :arg0 XXX-VB :arg2
p2446
Vactive
p2447
tp2448
V:root
p2449
(V:arg0
p2450
V:arg0-of
p2451
V:arg2
p2452
tp2453
Vsee-01
p2454
tp2455
I1
s((V:domain is :domain :mod XXX-NN :arg1-of
p2456
g11
tp2457
V:root
p2458
(V:arg1-of
p2459
V:domain
p2460
V:domain
p2461
V:mod
p2462
tp2463
Vhat
p2464
tp2465
I1
s((V:arg1 , :arg0 XXX-VB :domain , :time
p2466
Vactive
p2467
tp2468
V:root
p2469
(V:arg0
p2470
V:arg1
p2471
V:time
p2472
tp2473
Vsay-01
p2474
tp2475
I1
s((V:arg0 :polarity :polarity XXX-VB :arg1
p2476
Vactive
p2477
tp2478
V:root
p2479
(V:arg0
p2480
V:arg1
p2481
V:polarity
p2482
V:polarity
p2483
tp2484
Vpermit-01
p2485
tp2486
I1
s((VXXX-NN
p2487
g11
tp2488
V:root
p2489
g265
Vnothing
p2490
tp2491
I1
s((Va XXX-NN ,
p2492
g11
tp2493
V:root
p2494
g265
Vsheep
p2495
tp2496
I1
s((V:arg0 XXX-VB himself :consist-of :arg2 , :manner :arg2
p2497
Vactive
p2498
tp2499
V:root
p2500
(V:arg0
p2501
V:arg2
p2502
V:manner
p2503
tp2504
Vtwine-01
p2505
tp2506
I1
s((Vif i ordered a general , :arg0 would XXX-VB , :condition-of , :arg1 , and :condition-of
p2507
Vactive
p2508
tp2509
V:root
p2510
(V:arg0
p2511
V:arg0-of
p2512
V:arg0-of
p2513
V:arg1
p2514
tp2515
Vsay-01
p2516
tp2517
I1
s((V:arg0 :polarity :polarity XXX-VB :arg1 :mod :arg1-of , :arg1-of :arg2
p2518
Vactive
p2519
tp2520
V:root
p2521
(V:arg0
p2522
V:arg1
p2523
V:polarity
p2524
V:polarity
p2525
tp2526
Vwish-01
p2527
tp2528
I1
s((V:time :arg0 XXX-VB :direction :direction , :manner :mod :arg1
p2529
Vactive
p2530
tp2531
V:root
p2532
(V:arg0
p2533
V:arg1
p2534
V:arg2
p2535
V:direction
p2536
V:direction
p2537
V:manner
p2538
V:manner
p2539
V:time
p2540
tp2541
Vflash-01
p2542
tp2543
I1
s((V:poss :part-of :arg0 :op1 XXX-CC they are :degree :op2
p2544
g11
tp2545
V:root
p2546
(V:op1
p2547
V:op2
p2548
tp2549
Vand
p2550
tp2551
I1
s((V:arg0 am XXX-VB :arg1 :arg2
p2552
Vactive
p2553
tp2554
V:root
p2555
(V:arg0
p2556
V:arg1
p2557
tp2558
Vlook-01
p2559
tp2560
I1
s((V:condition , :time :time :arg0 shall XXX-VB :arg1
p2561
Vactive
p2562
tp2563
V:root
p2564
(V:arg0
p2565
V:arg1
p2566
V:condition
p2567
V:condition
p2568
V:time
p2569
V:time
p2570
tp2571
Vbegin-01
p2572
tp2573
I1
s((V:source :compared-to :arg1-of , :arg0 XXX-VB to himself , i :arg1
p2574
Vactive
p2575
tp2576
V:root
p2577
(V:arg0
p2578
V:arg1
p2579
tp2580
Vsay-01
p2581
tp2582
I1
s((V:arg2 :mod , :arg0 XXX-VB
p2583
Vactive
p2584
tp2585
V:root
p2586
(V:arg0
p2587
V:arg2
p2588
tp2589
Vanswer-01
p2590
tp2591
I1
s((V:mod :op2 :arg0 XXX-NN :frequency
p2592
g11
tp2593
V:root
p2594
(V:arg0
p2595
V:arg1
p2596
V:arg2
p2597
V:mod
p2598
tp2599
Vorder-01
p2600
tp2601
I1
s((V:arg1 XXX-MD be :arg2 about :op1
p2602
Vactive
p2603
tp2604
V:root
p2605
(V:arg1
p2606
V:arg2
p2607
tp2608
Vbe-temporally-at-91
p2609
tp2610
I1
s((Vbe XXX-PRP$ :arg2
p2611
g11
tp2612
V:root
p2613
(V:arg1
p2614
V:arg2
p2615
tp2616
Vhave-rel-role-91
p2617
tp2618
I1
s((V:snt1 XXX-RB :snt1 :snt2
p2619
g11
tp2620
V:root
p2621
(V:snt1
p2622
V:snt1
p2623
V:snt2
p2624
tp2625
Vmulti-sentence
p2626
tp2627
I1
s((V:time :time , XXX-VB :arg0
p2628
Vactive
p2629
tp2630
V:root
p2631
(V:arg0
p2632
V:arg1
p2633
tp2634
Vsay-01
p2635
tp2636
I1
s((VXXX-VB :arg1
p2637
Vactive
p2638
tp2639
V:root
p2640
(V:arg1
p2641
tp2642
Vlook-01
p2643
tp2644
I1
s((Vbut :arg0 :polarity :polarity XXX-VB :arg2
p2645
Vactive
p2646
tp2647
V:root
p2648
(V:arg0
p2649
V:arg2
p2650
V:polarity
p2651
V:polarity
p2652
tp2653
Vhear-01
p2654
tp2655
I1
s((V:arg0 :op1 XXX-CC :op2
p2656
g11
tp2657
V:root
p2658
(V:op1
p2659
V:op2
p2660
tp2661
Vand
p2662
tp2663
I2
s((V:arg2 , XXX-VB :arg1
p2664
Vactive
p2665
tp2666
V:root
p2667
(V:arg0
p2668
V:arg2
p2669
tp2670
Vreply-01
p2671
tp2672
I2
s((V:domain is an XXX-NN
p2673
g11
tp2674
V:root
p2675
(V:domain
p2676
tp2677
Vexchange-01
p2678
tp2679
I1
s((V:time , :time , :arg1 is XXX-VB :arg1-of
p2680
Vactive
p2681
tp2682
V:root
p2683
(V:arg1
p2684
V:time
p2685
V:time
p2686
tp2687
Vorder-01
p2688
tp2689
I1
s((V:time , :condition , :arg0 will XXX-VB who he is
p2690
Vactive
p2691
tp2692
V:root
p2693
(V:arg0
p2694
V:condition
p2695
tp2696
Vknow-01
p2697
tp2698
I1
s((VXXX-IN :arg1
p2699
g11
tp2700
V:root
p2701
(V:arg1
p2702
tp2703
Vbelong-01
p2704
tp2705
I1
s((V:domain was :degree a XXX-JJ :arg0
p2706
g11
tp2707
V:root
p2708
(V:arg0
p2709
V:degree
p2710
tp2711
Vpride-01
p2712
tp2713
I1
s((Vgood morning :arg1-of :arg1 , XXX-VB :arg0
p2714
Vactive
p2715
tp2716
V:root
p2717
(V:arg0
p2718
V:arg1
p2719
tp2720
Vanswer-01
p2721
tp2722
I1
s((V:arg0 :op1 :arg1 , XXX-CC :op2
p2723
g11
tp2724
V:root
p2725
(V:op1
p2726
V:op2
p2727
tp2728
Vand
p2729
tp2730
I2
s((V:arg0 XXX-NN :arg1 :arg2
p2731
g11
tp2732
V:root
p2733
(V:arg0
p2734
V:arg1
p2735
V:arg2
p2736
tp2737
Vorder-01
p2738
tp2739
I1
s((Vthat XXX-VB :arg1 :arg2
p2740
Vactive
p2741
tp2742
V:root
p2743
(V:arg1
p2744
V:arg2
p2745
tp2746
Vmean-01
p2747
tp2748
I1
s((V:arg1 , :arg0 XXX-VB , :arg2 they are :polarity :arg2
p2749
Vactive
p2750
tp2751
V:root
p2752
(V:arg0
p2753
V:arg2
p2754
tp2755
Vanswer-01
p2756
tp2757
I1
s((V:arg0 XXX-VB :arg2 , :arg1-of the :arg1
p2758
Vactive
p2759
tp2760
V:root
p2761
(V:arg0
p2762
V:arg1
p2763
V:arg1-of
p2764
V:arg2
p2765
tp2766
Vsay-01
p2767
tp2768
I1
s((V:location , :arg0-of , was one of :arg2-of :arg1-of XXX-NN :arg1-of :arg2-of
p2769
g11
tp2770
V:root
p2771
(V:arg0-of
p2772
V:arg1-of
p2773
V:arg1-of
p2774
V:arg2-of
p2775
V:arg2-of
p2776
V:location
p2777
V:location
p2778
tp2779
Vsnake
p2780
tp2781
I1
s((V:arg1-of , :arg0 XXX-VB :manner
p2782
Vactive
p2783
tp2784
V:root
p2785
(V:arg0
p2786
V:arg1
p2787
V:manner
p2788
tp2789
Vsay-01
p2790
tp2791
I1
s((V:arg1 , XXX-VB :arg0 , :arg1-of
p2792
Vactive
p2793
tp2794
V:root
p2795
(V:arg0
p2796
V:arg1
p2797
V:arg1-of
p2798
tp2799
Vsay-01
p2800
tp2801
I1
s((VXXX-CC it :arg2
p2802
g11
tp2803
V:root
p2804
(V:arg2
p2805
tp2806
Vcontrast-01
p2807
tp2808
I1
s((V:arg0 , XXX-RB , :arg2
p2809
g11
tp2810
V:root
p2811
(V:arg2
p2812
tp2813
Vcontrast-01
p2814
tp2815
I1
s((V:arg0 XXX-VB away :source :manner :polarity
p2816
Vactive
p2817
tp2818
V:root
p2819
(V:arg0
p2820
V:manner
p2821
V:manner
p2822
V:source
p2823
tp2824
Vget-away-08
p2825
tp2826
I1
s((V:arg4 :arg0 XXX-VB :arg2
p2827
Vactive
p2828
tp2829
V:root
p2830
(V:arg0
p2831
V:arg2
p2832
V:frequency
p2833
tp2834
Vdance-01
p2835
tp2836
I1
s((V:arg1 were :direction the XXX-PRP$ :direction :arg4
p2837
g11
tp2838
V:root
p2839
(V:arg1
p2840
V:arg4
p2841
V:direction
p2842
V:direction
p2843
tp2844
Vgo-02
p2845
tp2846
I1
s((V:arg1 was a thing for the :mod :arg0 to XXX-VB at
p2847
Vactive
p2848
tp2849
V:root
p2850
(V:arg0
p2851
V:arg1
p2852
tp2853
Vmarvel-01
p2854
tp2855
I1
s((VXXX-NN :arg2
p2856
g11
tp2857
V:root
p2858
(V:arg1
p2859
V:arg2
p2860
tp2861
Vorder-01
p2862
tp2863
I1
s((Vwhere :arg1 :arg3 :arg0 XXX-VB :arg2
p2864
Vactive
p2865
tp2866
V:root
p2867
(V:arg0
p2868
V:arg1
p2869
V:arg2
p2870
tp2871
Vsay-01
p2872
tp2873
I1
s((VXXX-CC :location was :op1 :location , :arg2 :arg1
p2874
g11
tp2875
V:root
p2876
(V:arg2
p2877
tp2878
Vcontrast-01
p2879
tp2880
I1
s((V:domain are XXX-JJ
p2881
Vactive
p2882
tp2883
V:root
p2884
(V:domain
p2885
tp2886
Vnaive
p2887
tp2888
I1
s((V:arg1 took one XXX-NN
p2889
g11
tp2890
V:root
p2891
(V:arg1
p2892
tp2893
Vstep-01
p2894
tp2895
I1
s((V:arg0 was XXX-VB , then , :arg1
p2896
Vactive
p2897
tp2898
V:root
p2899
(V:arg0
p2900
V:arg1
p2901
tp2902
Vsay-01
p2903
tp2904
I1
s((Vand :time :arg0 XXX-VB :arg1
p2905
Vactive
p2906
tp2907
V:root
p2908
(V:arg0
p2909
V:arg1
p2910
V:time
p2911
tp2912
Vthink-01
p2913
tp2914
I1
s((V:arg2 , :arg0 XXX-VB on
p2915
Vactive
p2916
tp2917
V:root
p2918
(V:arg0
p2919
V:arg1
p2920
tp2921
Vgo-on-25
p2922
tp2923
I1
s((VXXX-CC :arg0 :polarity
p2924
g11
tp2925
V:root
p2926
(V:arg2
p2927
tp2928
Vcontrast-01
p2929
tp2930
I1
s((V:domain is the XXX-NN
p2931
g11
tp2932
V:root
p2933
(V:domain
p2934
tp2935
Vdesert
p2936
tp2937
I1
s((V:mod XXX-NNS that :arg0-of
p2938
g11
tp2939
V:root
p2940
(V:arg0-of
p2941
V:mod
p2942
tp2943
Vflower
p2944
tp2945
I1
s((V:arg0 XXX-VB :arg1
p2946
Vactive
p2947
tp2948
V:root
p2949
(V:arg0
p2950
V:arg1
p2951
tp2952
Vfrighten-01
p2953
tp2954
I1
s((VXXX-CC :arg0 :arg1
p2955
g11
tp2956
V:root
p2957
(V:arg2
p2958
tp2959
Vcontrast-01
p2960
tp2961
I3
s((V:op1 , :arg1 it is of :arg1 to :op2 , XXX-WDT :arg0
p2962
g11
tp2963
V:root
p2964
(V:arg0
p2965
V:arg1
p2966
tp2967
Vcause-01
p2968
tp2969
I1
s((Vthe XXX-NN :arg2
p2970
g11
tp2971
V:root
p2972
(V:arg2
p2973
tp2974
Vorder-01
p2975
tp2976
I1
s((VXXX-UH
p2977
g11
tp2978
V:root
p2979
g265
Vyes
p2980
tp2981
I3
s((V:arg0 XXX-VB :arg1
p2982
Vactive
p2983
tp2984
V:root
p2985
(V:arg0
p2986
V:arg1
p2987
V:polarity
p2988
tp2989
Vhave-03
p2990
tp2991
I2
s((Vit XXX-VB :arg2
p2992
Vactive
p2993
tp2994
V:root
p2995
(V:arg1
p2996
V:arg2
p2997
tp2998
Vseem-01
p2999
tp3000
I1
s((V:arg0 XXX-MD :polarity :arg1
p3001
Vactive
p3002
tp3003
V:root
p3004
(V:arg1
p3005
tp3006
Vobligate-01
p3007
tp3008
I1
s((V:arg1 XXX-VB :arg1-of
p3009
Vactive
p3010
tp3011
V:root
p3012
(V:arg1
p3013
V:arg1-of
p3014
tp3015
Vwait-01
p3016
tp3017
I1
s((V:domain is :degree XXX-JJ
p3018
Vactive
p3019
tp3020
V:root
p3021
(V:degree
p3022
V:domain
p3023
tp3024
Vpoetry
p3025
tp3026
I1
s((V:arg0 :polarity :polarity XXX-VB :arg1
p3027
Vactive
p3028
tp3029
V:root
p3030
(V:arg0
p3031
V:arg1
p3032
V:polarity
p3033
V:polarity
p3034
tp3035
Veat-01
p3036
tp3037
I1
s((V:arg0 XXX-VB :arg2 it is :mod :arg0
p3038
Vactive
p3039
tp3040
V:root
p3041
(V:arg0
p3042
V:arg1
p3043
V:arg2
p3044
tp3045
Vtell-01
p3046
tp3047
I1
s((Vthe planet earth , XXX-VB :arg0
p3048
Vactive
p3049
tp3050
V:root
p3051
(V:arg0
p3052
V:arg2
p3053
tp3054
Vreply-01
p3055
tp3056
I1
s((V:arg1 XXX-CC :arg2
p3057
g11
tp3058
V:root
p3059
(V:arg1
p3060
V:arg2
p3061
tp3062
Vcontrast-01
p3063
tp3064
I1
s((V:arg0 , XXX-CC :op2
p3065
g11
tp3066
V:root
p3067
(V:op1
p3068
V:op2
p3069
tp3070
Vor
p3071
tp3072
I1
s((V:arg1 , :arg0-of , am :degree XXX-JJ :arg0 :arg0
p3073
Vactive
p3074
tp3075
V:root
p3076
(V:arg0
p3077
V:arg1
p3078
V:degree
p3079
tp3080
Vglad-02
p3081
tp3082
I1
s((VXXX-CC nevertheless :arg0 :arg1
p3083
g11
tp3084
V:root
p3085
(V:arg1
p3086
tp3087
Vhave-concession-91
p3088
tp3089
I1
s((Vi am XXX-VB :arg0 :op2
p3090
Vactive
p3091
tp3092
V:root
p3093
(V:op1
p3094
V:op2
p3095
tp3096
Vand
p3097
tp3098
I1
s((V:arg1 XXX-VB :arg0 , :purpose :arg1-of
p3099
Vactive
p3100
tp3101
V:root
p3102
(V:arg0
p3103
V:arg1
p3104
V:purpose
p3105
V:purpose
p3106
tp3107
Vsay-01
p3108
tp3109
I1
s((VXXX-NN
p3110
g11
tp3111
V:root
p3112
g265
Vhum
p3113
tp3114
I5
s((V:time :polarity :op1 XXX-CC :op2 :arg1
p3115
g11
tp3116
V:root
p3117
(V:op1
p3118
V:op2
p3119
V:time
p3120
tp3121
Vor
p3122
tp3123
I1
s((V:arg0 XXX-NN :arg1
p3124
g11
tp3125
V:root
p3126
(V:arg0
p3127
V:arg1
p3128
tp3129
Vlove-01
p3130
tp3131
I1
s((Vit XXX-VB :arg2 :arg1
p3132
Vactive
p3133
tp3134
V:root
p3135
(V:arg1
p3136
V:arg2
p3137
tp3138
Vseem-01
p3139
tp3140
I1
s((VXXX-VB :arg0
p3141
Vactive
p3142
tp3143
V:root
p3144
(V:arg0
p3145
V:arg1
p3146
V:manner
p3147
tp3148
Vadmire-01
p3149
tp3150
I1
s((V:time :ord :op2 , :arg0 XXX-VB :arg1
p3151
Vactive
p3152
tp3153
V:root
p3154
(V:arg0
p3155
V:arg1
p3156
V:time
p3157
tp3158
Vrealize-01
p3159
tp3160
I1
s((V:purpose are :arg0 XXX-VB :arg2 :purpose
p3161
Vactive
p3162
tp3163
V:root
p3164
(V:arg0
p3165
V:arg2
p3166
V:purpose
p3167
V:purpose
p3168
tp3169
Vtalk-01
p3170
tp3171
I1
s((V:condition :arg1 , :arg0 XXX-VB , he :arg1
p3172
Vactive
p3173
tp3174
V:root
p3175
(V:arg0
p3176
V:arg1
p3177
tp3178
Vsay-01
p3179
tp3180
I1
s((Va XXX-NN
p3181
g11
tp3182
V:root
p3183
g265
Vmushroom
p3184
tp3185
I1
s((Vbut :arg0 was XXX-VB
p3186
Vactive
p3187
tp3188
V:root
p3189
(V:arg0
p3190
tp3191
Vwonder-01
p3192
tp3193
I1
s((V:mod , XXX-DT
p3194
g11
tp3195
V:root
p3196
(V:mod
p3197
tp3198
Vno
p3199
tp3200
I3
s((V:location-of , XXX-VB :arg0
p3201
Vactive
p3202
tp3203
V:root
p3204
(V:arg0
p3205
V:arg1
p3206
V:time
p3207
tp3208
Vexclaim-01
p3209
tp3210
I1
s((V:arg1-of , XXX-VB :arg0
p3211
Vactive
p3212
tp3213
V:root
p3214
(V:arg0
p3215
V:arg1
p3216
tp3217
Vsay-01
p3218
tp3219
I9
s((VXXX-NN :mod
p3220
g11
tp3221
V:root
p3222
(V:mod
p3223
tp3224
Vyawn-01
p3225
tp3226
I1
s((V:quant XXX-.
p3227
g11
tp3228
V:root
p3229
(V:quant
p3230
tp3231
Vamr-unknown
p3232
tp3233
I1
s((VXXX-CC what :op2 :arg1
p3234
g11
tp3235
V:root
p3236
(V:op2
p3237
tp3238
Vand
p3239
tp3240
I1
s((V:arg0 :manner XXX-VB :arg1
p3241
Vactive
p3242
tp3243
V:root
p3244
(V:arg0
p3245
V:arg1
p3246
V:manner
p3247
tp3248
Vrealize-01
p3249
tp3250
I1
s((VXXX-CC there is :arg2 :time
p3251
g11
tp3252
V:root
p3253
(V:arg2
p3254
tp3255
Vcontrast-01
p3256
tp3257
I1
s((V:arg0 :mod XXX-VB :arg1
p3258
Vactive
p3259
tp3260
V:root
p3261
(V:arg0
p3262
V:arg1
p3263
V:mod
p3264
tp3265
Vhave-03
p3266
tp3267
I1
s((Vand :arg0 will XXX-VB :degree :arg1
p3268
Vactive
p3269
tp3270
V:root
p3271
(V:arg0
p3272
V:arg1
p3273
tp3274
Vsee-01
p3275
tp3276
I1
s((V:arg0 XXX-VB it is :degree :arg1
p3277
Vactive
p3278
tp3279
V:root
p3280
(V:arg0
p3281
V:arg1
p3282
tp3283
Vunderstand-01
p3284
tp3285
I1
s((VXXX-CC :arg1
p3286
g11
tp3287
V:root
p3288
(V:arg2
p3289
tp3290
Vcontrast-01
p3291
tp3292
I2
s((V:arg1 XXX-VB :arg1 :arg2
p3293
Vactive
p3294
tp3295
V:root
p3296
(V:arg1
p3297
V:arg2
p3298
tp3299
Vobligate-01
p3300
tp3301
I1
s((VXXX-RB :domain :arg1 :domain
p3302
g11
tp3303
V:root
p3304
(V:arg1
p3305
tp3306
Vcause-01
p3307
tp3308
I1
s((V:arg1 are :degree XXX-JJ :polarity
p3309
Vactive
p3310
tp3311
V:root
p3312
(V:arg1
p3313
V:degree
p3314
V:polarity
p3315
tp3316
Vconsistent-01
p3317
tp3318
I1
s((V:op1 , XXX-CC :op2 :concession , :concession if :arg1
p3319
g11
tp3320
V:root
p3321
(V:op1
p3322
V:op2
p3323
tp3324
Vand
p3325
tp3326
I1
s((V:ord XXX-RB , :domain :domain :ord
p3327
g11
tp3328
V:root
p3329
(V:domain
p3330
V:domain
p3331
V:ord
p3332
V:ord
p3333
tp3334
Vdisturb-01
p3335
tp3336
I1
s((V:manner is it XXX-JJ :arg0 :manner
p3337
g11
tp3338
V:root
p3339
(V:arg1
p3340
V:manner
p3341
V:manner
p3342
tp3343
Vpossible-01
p3344
tp3345
I1
s((V:arg1-of XXX-NN
p3346
g11
tp3347
V:root
p3348
(V:arg1-of
p3349
tp3350
Vevening
p3351
tp3352
I2
s((V:domain are :arg1-of XXX-NN
p3353
g11
tp3354
V:root
p3355
(V:arg1-of
p3356
V:domain
p3357
tp3358
Vcreature
p3359
tp3360
I1
s((V:arg0 XXX-VB
p3361
Vactive
p3362
tp3363
V:root
p3364
(V:arg0
p3365
tp3366
Vcough-01
p3367
tp3368
I1
s((V:arg0 XXX-MD :polarity :mod
p3369
Vactive
p3370
tp3371
V:root
p3372
(V:arg1
p3373
V:mod
p3374
V:polarity
p3375
tp3376
Vpossible-01
p3377
tp3378
I1
s((V:arg0 :polarity :polarity XXX-VB :arg1
p3379
Vactive
p3380
tp3381
V:root
p3382
(V:arg0
p3383
V:arg1
p3384
V:polarity
p3385
V:polarity
p3386
tp3387
Vneed-01
p3388
tp3389
I1
s((V:arg0 :polarity :polarity XXX-VB :arg1 , :concession-of :concession-of
p3390
Vactive
p3391
tp3392
V:root
p3393
(V:arg0
p3394
V:arg1
p3395
V:concession-of
p3396
V:concession-of
p3397
V:polarity
p3398
V:polarity
p3399
tp3400
Vunderstand-01
p3401
tp3402
I1
s((V:arg0 is XXX-WRB :arg0
p3403
Vactive
p3404
tp3405
V:root
p3406
(V:arg0
p3407
V:arg1
p3408
tp3409
Vcause-01
p3410
tp3411
I1
s((VXXX-CC so :arg0 :op2 :arg2
p3412
g11
tp3413
V:root
p3414
(V:op2
p3415
tp3416
Vand
p3417
tp3418
I1
s((V:arg1 has XXX-VB out
p3419
Vactive
p3420
tp3421
V:root
p3422
(V:arg1
p3423
tp3424
Vgo-out-18
p3425
tp3426
I1
s((V:arg0 XXX-VB :arg2
p3427
Vactive
p3428
tp3429
V:root
p3430
(V:arg0
p3431
V:arg2
p3432
tp3433
Vmean-01
p3434
tp3435
I1
s((V:arg1-of :arg1 been XXX-VB :arg0 :arg1-of
p3436
Vactive
p3437
tp3438
V:root
p3439
(V:arg0
p3440
V:arg1
p3441
tp3442
Vmake-01
p3443
tp3444
I1
s((V:arg0 :time XXX-VB :arg1
p3445
Vactive
p3446
tp3447
V:root
p3448
(V:arg0
p3449
V:arg1
p3450
V:time
p3451
tp3452
Vlearn-01
p3453
tp3454
I1
s((VXXX-CC , :arg2 , :arg0 :polarity :arg1
p3455
g11
tp3456
V:root
p3457
(V:arg2
p3458
tp3459
Vcontrast-01
p3460
tp3461
I1
s((VXXX-CC you , :arg0 , :op2
p3462
g11
tp3463
V:root
p3464
(V:op2
p3465
tp3466
Vand
p3467
tp3468
I1
s((Vfor :arg0 :polarity :polarity XXX-VB :arg1
p3469
Vactive
p3470
tp3471
V:root
p3472
(V:arg0
p3473
V:arg1
p3474
V:polarity
p3475
V:polarity
p3476
tp3477
Vwant-01
p3478
tp3479
I1
s((V:location-of :location-of be XXX-RB :time
p3480
Vactive
p3481
tp3482
V:root
p3483
(V:location-of
p3484
V:location-of
p3485
V:time
p3486
tp3487
Vthere
p3488
tp3489
I1
s((VXXX-CC :arg2-of :op1
p3490
g11
tp3491
V:root
p3492
(V:op1
p3493
tp3494
Vand
p3495
tp3496
I1
s((V:arg1 :polarity :polarity XXX-VB
p3497
Vactive
p3498
tp3499
V:root
p3500
(V:arg1
p3501
V:polarity
p3502
V:polarity
p3503
tp3504
Vchange-01
p3505
tp3506
I1
s((V:arg1 is :mod is :instrument :arg1 :instrument , :arg0 XXX-VB , :arg1-of
p3507
Vactive
p3508
tp3509
V:root
p3510
(V:arg0
p3511
V:arg1
p3512
V:purpose
p3513
tp3514
Vrepeat-01
p3515
tp3516
I1
s((V:arg1 XXX-VB , ' which :arg1-of '
p3517
Vactive
p3518
tp3519
V:root
p3520
(V:arg1
p3521
V:arg2
p3522
tp3523
Vmean-01
p3524
tp3525
I1
s((V:arg0 XXX-VB :arg1
p3526
Vactive
p3527
tp3528
V:root
p3529
(V:arg0
p3530
V:arg1
p3531
V:purpose
p3532
tp3533
Vhave-03
p3534
tp3535
I1
s((VXXX-NN they :mod
p3536
g11
tp3537
V:root
p3538
(V:mod
p3539
tp3540
Vsnake
p3541
tp3542
I1
s((V:arg1 , i am XXX-VB :arg0
p3543
Vactive
p3544
tp3545
V:root
p3546
(V:arg0
p3547
V:arg1
p3548
tp3549
Vconcern-01
p3550
tp3551
I1
s((V:arg0 XXX-MD
p3552
Vactive
p3553
tp3554
V:root
p3555
(V:arg0
p3556
tp3557
Vdo-02
p3558
tp3559
I1
s((V:arg0 XXX-VB , :mod , :arg2 , :purpose
p3560
Vactive
p3561
tp3562
V:root
p3563
(V:arg0
p3564
V:arg2
p3565
V:mod
p3566
V:purpose
p3567
tp3568
Vbegin-01
p3569
tp3570
I1
s((V:arg0 XXX-VB
p3571
Vactive
p3572
tp3573
V:root
p3574
(V:arg0
p3575
tp3576
Vcry-01
p3577
tp3578
I1
s((VXXX-RB :arg1-of i :arg1
p3579
g11
tp3580
V:root
p3581
(V:arg0
p3582
V:arg1
p3583
V:arg1-of
p3584
tp3585
Vcause-01
p3586
tp3587
I1
s((V:domain were the :quant XXX-NN , :arg1-of
p3588
g11
tp3589
V:root
p3590
(V:arg1-of
p3591
V:domain
p3592
V:quant
p3593
tp3594
Vvolcano
p3595
tp3596
I1
s((V:arg0-of , :arg2 :op2
p3597
g11
tp3598
V:root
p3599
(V:arg2
p3600
tp3601
Vobligate-01
p3602
tp3603
I1
s((V:beneficiary , :arg1 was XXX-IN :arg2
p3604
Vactive
p3605
tp3606
V:root
p3607
(V:arg1
p3608
V:arg2
p3609
V:beneficiary
p3610
tp3611
Vresemble-01
p3612
tp3613
I1
s((V:arg1 XXX-VB :frequency :mod
p3614
Vactive
p3615
tp3616
V:root
p3617
(V:arg1
p3618
V:mod
p3619
tp3620
Vflush-03
p3621
tp3622
I1
s((VXXX-NN :domain
p3623
g11
tp3624
V:root
p3625
(V:domain
p3626
tp3627
Vorder
p3628
tp3629
I1
s((Vare XXX-EX :arg0-of :location
p3630
g11
tp3631
V:root
p3632
(V:arg0-of
p3633
V:location
p3634
tp3635
Vperson
p3636
tp3637
I1
s((V:arg0 XXX-VB :arg1 :manner
p3638
Vactive
p3639
tp3640
V:root
p3641
(V:arg0
p3642
V:arg1
p3643
V:manner
p3644
tp3645
Vadjust-01
p3646
tp3647
I1
s((VXXX-VB :arg1
p3648
Vactive
p3649
tp3650
V:root
p3651
(V:arg1
p3652
tp3653
Vallow-01
p3654
tp3655
I1
s((V:arg0 will XXX-VB :arg2 :arg1
p3656
Vactive
p3657
tp3658
V:root
p3659
(V:arg0
p3660
V:arg1
p3661
V:arg2
p3662
tp3663
Vdraw-01
p3664
tp3665
I1
s((VXXX-RB , :arg1 :arg2
p3666
g11
tp3667
V:root
p3668
(V:arg2
p3669
tp3670
Vhave-concession-91
p3671
tp3672
I1
s((V:arg1 , :arg0-of XXX-VB , :arg0-of
p3673
Vactive
p3674
tp3675
V:root
p3676
(V:arg0
p3677
V:arg1
p3678
tp3679
Vconfess-01
p3680
tp3681
I1
s((V:arg0 , :arg0 XXX-VB to himself
p3682
Vactive
p3683
tp3684
V:root
p3685
(V:arg0
p3686
V:arg1
p3687
tp3688
Vsay-01
p3689
tp3690
I1
s((V:arg1 :arg0 XXX-VB :arg2 , :arg1-of :arg2 , :arg1 :arg2
p3691
Vactive
p3692
tp3693
V:root
p3694
(V:arg0
p3695
V:arg1
p3696
V:arg1-of
p3697
V:arg2
p3698
tp3699
Vcall-03
p3700
tp3701
I1
s((V:arg0 :mod XXX-VB :direction , :ord :arg0-of
p3702
Vactive
p3703
tp3704
V:root
p3705
(V:arg0
p3706
V:arg1
p3707
V:direction
p3708
V:mod
p3709
tp3710
Vpull-01
p3711
tp3712
I1
s((V:arg0 :polarity :polarity XXX-NN
p3713
g11
tp3714
V:root
p3715
(V:arg0
p3716
V:polarity
p3717
V:polarity
p3718
tp3719
Vreply-01
p3720
tp3721
I1
s((V:polarity :polarity :arg0 XXX-VB :arg1 :arg0-of
p3722
Vactive
p3723
tp3724
V:root
p3725
(V:arg0
p3726
V:arg1
p3727
V:polarity
p3728
V:polarity
p3729
tp3730
Vsee-01
p3731
tp3732
I1
s((VXXX-CC , :mod , :arg0 :op2
p3733
g11
tp3734
V:root
p3735
(V:op2
p3736
tp3737
Vand
p3738
tp3739
I1
s((V:arg0 XXX-VB :arg1
p3740
Vactive
p3741
tp3742
V:root
p3743
(V:arg0
p3744
V:arg1
p3745
tp3746
Vthink-01
p3747
tp3748
I1
s((V:arg0 XXX-VB :arg1 :arg1-of :arg2
p3749
Vactive
p3750
tp3751
V:root
p3752
(V:arg0
p3753
V:arg1
p3754
tp3755
Vhave-03
p3756
tp3757
I1
s((Vit makes it XXX-JJ :arg1 , :condition
p3758
Vactive
p3759
tp3760
V:root
p3761
(V:arg1
p3762
V:condition
p3763
tp3764
Vpossible-01
p3765
tp3766
I1
s((V:arg0 XXX-VB :arg1 :arg0
p3767
Vactive
p3768
tp3769
V:root
p3770
(V:arg0
p3771
V:arg1
p3772
tp3773
Vgo-on-25
p3774
tp3775
I1
s((V:arg0 XXX-VB :arg1 :arg1-of
p3776
Vactive
p3777
tp3778
V:root
p3779
(V:arg0
p3780
V:arg1
p3781
tp3782
Vfeel-01
p3783
tp3784
I1
s((VXXX-CD XXX-NN
p3785
g11
tp3786
V:root
p3787
g265
Vtemporal-quantity
p3788
tp3789
I2
s((VXXX-VB :direction :time
p3790
Vactive
p3791
tp3792
V:root
p3793
(V:direction
p3794
V:time
p3795
tp3796
Vcome-01
p3797
tp3798
I1
s((V:arg0 has :time XXX-VB :arg1 but :arg1
p3799
Vactive
p3800
tp3801
V:root
p3802
(V:arg0
p3803
V:arg1
p3804
V:arg2-of
p3805
V:arg2-of
p3806
V:polarity
p3807
V:time
p3808
V:time
p3809
V:time
p3810
tp3811
Vdo-02
p3812
tp3813
I1
s((V:location , :arg2 , there was XXX-NN :mod
p3814
g11
tp3815
V:root
p3816
(V:location
p3817
V:mod
p3818
tp3819
Vnobody
p3820
tp3821
I1
s((V:arg1 , XXX-VB :arg0 :arg1-of
p3822
Vactive
p3823
tp3824
V:root
p3825
(V:arg0
p3826
V:arg1
p3827
V:arg1-of
p3828
tp3829
Vsay-01
p3830
tp3831
I1
s((V:arg0 will XXX-VB :arg2-of
p3832
Vactive
p3833
tp3834
V:root
p3835
(V:arg0
p3836
V:arg1
p3837
V:arg2
p3838
tp3839
Vdraw-01
p3840
tp3841
I1
s((V:arg0 :polarity :polarity XXX-VB
p3842
Vactive
p3843
tp3844
V:root
p3845
(V:arg0
p3846
V:polarity
p3847
V:polarity
p3848
tp3849
Vknow-01
p3850
tp3851
I2
s((V:arg0 :op1 , XXX-CC :op2 :mod :arg2
p3852
g11
tp3853
V:root
p3854
(V:op1
p3855
V:op2
p3856
tp3857
Vand
p3858
tp3859
I1
s((V:arg0 XXX-VB :arg1 , :arg1-of :arg0
p3860
Vactive
p3861
tp3862
V:root
p3863
(V:arg0
p3864
V:arg1
p3865
V:arg1-of
p3866
tp3867
Vbelong-01
p3868
tp3869
I1
s((V:poss :topic , :arg0 XXX-VB :arg1
p3870
Vactive
p3871
tp3872
V:root
p3873
(V:arg0
p3874
V:arg1
p3875
tp3876
Vhave-03
p3877
tp3878
I1
s((V:arg1 had taken XXX-RB :arg2 , and :arg0-of
p3879
Vactive
p3880
tp3881
V:root
p3882
(V:arg0-of
p3883
V:arg0-of
p3884
V:arg1
p3885
V:arg2
p3886
tp3887
Vserious-01
p3888
tp3889
I1
s((V:arg1 , :mod , :arg0 XXX-VB
p3890
Vactive
p3891
tp3892
V:root
p3893
(V:arg0
p3894
V:arg1
p3895
tp3896
Vsay-01
p3897
tp3898
I1
s((V:arg0 XXX-VB :polarity :mod :arg1
p3899
Vactive
p3900
tp3901
V:root
p3902
(V:arg0
p3903
V:arg1
p3904
V:mod
p3905
V:polarity
p3906
tp3907
Vhave-03
p3908
tp3909
I1
s((VXXX-CC , :manner , :arg0 :op2
p3910
g11
tp3911
V:root
p3912
(V:op2
p3913
tp3914
Vand
p3915
tp3916
I1
s((V:arg1 was :degree XXX-VB :arg0-of :arg1
p3917
Vactive
p3918
tp3919
V:root
p3920
(V:arg0-of
p3921
V:arg1
p3922
V:degree
p3923
tp3924
Voccupy-01
p3925
tp3926
I1
s((V:arg0 shall XXX-VB :arg2
p3927
Vactive
p3928
tp3929
V:root
p3930
(V:arg0
p3931
V:arg2
p3932
tp3933
Vcommand-02
p3934
tp3935
I1
s((VXXX-TO :arg0 , :domain are :mod :mod
p3936
g11
tp3937
V:root
p3938
(V:arg0
p3939
V:arg1
p3940
tp3941
Vopine-01
p3942
tp3943
I1
s((V:arg0 was XXX-VB :arg1 :location
p3944
Vactive
p3945
tp3946
V:root
p3947
(V:arg0
p3948
V:arg1
p3949
V:location
p3950
tp3951
Vhide-01
p3952
tp3953
I1
s((Vas for me , XXX-VB :arg0 :destination :arg1 :arg1
p3954
Vactive
p3955
tp3956
V:root
p3957
(V:arg0
p3958
V:arg1
p3959
tp3960
Vsay-01
p3961
tp3962
I1
s((V:arg0 will XXX-VB
p3963
Vactive
p3964
tp3965
V:root
p3966
(V:arg0
p3967
tp3968
Vsuffer-01
p3969
tp3970
I1
s((V:arg0 XXX-VB :direction , :purpose
p3971
Vactive
p3972
tp3973
V:root
p3974
(V:arg0
p3975
V:direction
p3976
V:purpose
p3977
tp3978
Vgo-02
p3979
tp3980
I1
s((VXXX-CC :domain :arg2
p3981
g11
tp3982
V:root
p3983
(V:arg2
p3984
tp3985
Vcontrast-01
p3986
tp3987
I6
s((V:arg0 will XXX-VB :arg1 , :location
p3988
Vactive
p3989
tp3990
V:root
p3991
(V:arg0
p3992
V:arg1
p3993
tp3994
Vsee-01
p3995
tp3996
I1
s((VXXX-CC there is :location :location :location :arg1 , and :arg0-of :arg1
p3997
g11
tp3998
V:root
p3999
(V:arg2
p4000
tp4001
Vcontrast-01
p4002
tp4003
I1
s((V:arg2 :arg2 XXX-VB you :arg1 :arg1
p4004
Vactive
p4005
tp4006
V:root
p4007
(V:arg1
p4008
V:arg2
p4009
tp4010
Vsay-01
p4011
tp4012
I1
s((Vwhat are :arg0 XXX-VB for :arg1
p4013
Vactive
p4014
tp4015
V:root
p4016
(V:arg0
p4017
V:arg1
p4018
tp4019
Vlook-01
p4020
tp4021
I1
s((V:arg0 has :polarity XXX-VB :arg1
p4022
Vactive
p4023
tp4024
V:root
p4025
(V:arg0
p4026
V:arg1
p4027
V:polarity
p4028
V:time
p4029
tp4030
Vsmell-01
p4031
tp4032
I1
s((VXXX-CC :frequency
p4033
g11
tp4034
V:root
p4035
(V:op2
p4036
tp4037
Vand
p4038
tp4039
I1
s((Vin the XXX-NN :arg1 :arg3-of
p4040
g11
tp4041
V:root
p4042
(V:arg3-of
p4043
tp4044
Vlocation
p4045
tp4046
I1
s((VXXX-CC :arg1 :arg3
p4047
g11
tp4048
V:root
p4049
(V:op2
p4050
tp4051
Vand
p4052
tp4053
I2
s((V:arg0 :polarity :polarity XXX-VB :arg1 :arg1-of
p4054
Vactive
p4055
tp4056
V:root
p4057
(V:arg0
p4058
V:arg1
p4059
V:polarity
p4060
V:polarity
p4061
tp4062
Vknow-01
p4063
tp4064
I1
s((V:arg0 XXX-VB :arg1 :ord :arg2
p4065
Vactive
p4066
tp4067
V:root
p4068
(V:arg0
p4069
V:arg1
p4070
V:arg2
p4071
tp4072
Vanswer-01
p4073
tp4074
I1
s((Vso :arg0 XXX-VB out :arg1 , :mod
p4075
Vactive
p4076
tp4077
V:root
p4078
(V:arg0
p4079
V:arg1
p4080
V:mod
p4081
tp4082
Vclean-out-03
p4083
tp4084
I1
s((VXXX-CC :arg0 :op1 and :op2 :arg1
p4085
g11
tp4086
V:root
p4087
(V:op1
p4088
V:op2
p4089
tp4090
Vand
p4091
tp4092
I1
s((V:arg1 , :arg0 XXX-VB
p4093
Vactive
p4094
tp4095
V:root
p4096
(V:arg0
p4097
V:arg1
p4098
tp4099
Vobject-01
p4100
tp4101
I1
s((V:arg0 XXX-VB :polarity :arg0-of
p4102
Vactive
p4103
tp4104
V:root
p4105
(V:arg0
p4106
V:arg1
p4107
V:polarity
p4108
tp4109
Vhave-03
p4110
tp4111
I1
s((Vthere is :polarity XXX-JJ :polarity :arg0
p4112
g11
tp4113
V:root
p4114
(V:arg0
p4115
V:polarity
p4116
V:polarity
p4117
tp4118
Vsad-02
p4119
tp4120
I1
s((V:arg2 is an XXX-NN
p4121
g11
tp4122
V:root
p4123
(V:arg2
p4124
tp4125
Vorder-01
p4126
tp4127
I1
s((V:arg0 XXX-VB :arg2
p4128
Vactive
p4129
tp4130
V:root
p4131
(V:arg0
p4132
V:arg2
p4133
tp4134
Vsay-01
p4135
tp4136
I2
s((V:op1 :arg1 :op2 , XXX-VB :arg0
p4137
Vactive
p4138
tp4139
V:root
p4140
(V:arg0
p4141
V:arg1
p4142
tp4143
Vpropose-01
p4144
tp4145
I1
s((V:domain :arg0-of XXX-.
p4146
g11
tp4147
V:root
p4148
(V:arg0-of
p4149
V:domain
p4150
tp4151
Vperson
p4152
tp4153
I1
s((V:arg1 , :arg0 XXX-VB
p4154
Vactive
p4155
tp4156
V:root
p4157
(V:arg0
p4158
V:arg1
p4159
tp4160
Vsay-01
p4161
tp4162
I10
s((V:domain is :polarity :mod an :mod XXX-NN
p4163
g11
tp4164
V:root
p4165
(V:domain
p4166
V:mod
p4167
tp4168
Vplanet
p4169
tp4170
I1
s((VXXX-WRB have :arg0 :mod :arg1 :arg0
p4171
g11
tp4172
V:root
p4173
(V:arg0
p4174
V:arg1
p4175
tp4176
Vcause-01
p4177
tp4178
I1
s((V:arg1-of , :arg0 XXX-VB :arg1
p4179
Vactive
p4180
tp4181
V:root
p4182
(V:arg0
p4183
V:arg1
p4184
V:arg1-of
p4185
tp4186
Vtend-01
p4187
tp4188
I1
s((VXXX-PRP is :mod :arg2 :direction :op1
p4189
g11
tp4190
V:root
p4191
(V:arg1
p4192
V:arg2
p4193
tp4194
Vbe-located-at-91
p4195
tp4196
I1
s((V:domain is :degree XXX-JJ :domain
p4197
Vactive
p4198
tp4199
V:root
p4200
(V:degree
p4201
V:domain
p4202
V:domain
p4203
tp4204
Vfunny
p4205
tp4206
I1
s((V:arg0 XXX-VB :arg0 , :op1 :op2
p4207
Vactive
p4208
tp4209
V:root
p4210
(V:arg0
p4211
V:arg1
p4212
tp4213
Vsay-01
p4214
tp4215
I1
s((V:arg0 have :time :time XXX-VB :arg1
p4216
Vactive
p4217
tp4218
V:root
p4219
(V:arg0
p4220
V:arg1
p4221
V:polarity
p4222
V:time
p4223
V:time
p4224
tp4225
Vtell-01
p4226
tp4227
I1
s((V:arg1 , XXX-CC :domain
p4228
g11
tp4229
V:root
p4230
(V:arg1
p4231
V:arg2
p4232
tp4233
Vcontrast-01
p4234
tp4235
I1
s((V:location XXX-PRP is
p4236
g11
tp4237
V:root
p4238
(V:location
p4239
tp4240
Vit
p4241
tp4242
I1
s((V:arg2 , :arg0 :op1 , XXX-CC :manner :op2
p4243
g11
tp4244
V:root
p4245
(V:op1
p4246
V:op2
p4247
tp4248
Vand
p4249
tp4250
I1
s((Voh , XXX-UH
p4251
g11
tp4252
V:root
p4253
g265
Vyes
p4254
tp4255
I1
s((VXXX-CC :op2
p4256
g11
tp4257
V:root
p4258
(V:op2
p4259
tp4260
Vand
p4261
tp4262
I3
s((V:arg0 :polarity :polarity XXX-VB :op1 :manner-of
p4263
Vactive
p4264
tp4265
V:root
p4266
(V:arg0
p4267
V:arg1
p4268
V:polarity
p4269
V:polarity
p4270
tp4271
Vknow-01
p4272
tp4273
I1
s((V:domain :arg1 would :arg0 :arg1 :arg0 XXX-VB
p4274
Vactive
p4275
tp4276
V:root
p4277
(V:arg0
p4278
V:arg1
p4279
tp4280
Vask-01
p4281
tp4282
I1
s((V:arg1 , :arg0 XXX-VB :arg2
p4283
Vactive
p4284
tp4285
V:root
p4286
(V:arg0
p4287
V:arg1
p4288
V:arg2
p4289
tp4290
Vsay-01
p4291
tp4292
I4
s((Vi have :polarity :arg1 , :arg0 XXX-VB :arg1 :arg2
p4293
Vactive
p4294
tp4295
V:root
p4296
(V:arg0
p4297
V:arg1
p4298
V:arg2
p4299
tp4300
Vsay-01
p4301
tp4302
I1
s((Vyes , :arg1 is XXX-JJ ,
p4303
Vactive
p4304
tp4305
V:root
p4306
(V:arg1
p4307
tp4308
Vtrue-01
p4309
tp4310
I1
s((VXXX-CC he is :polarity :op1 :domain :op2 :arg2
p4311
g11
tp4312
V:root
p4313
(V:arg2
p4314
tp4315
Vcontrast-01
p4316
tp4317
I1
s((Vare :arg0 XXX-VB :arg1
p4318
Vactive
p4319
tp4320
V:root
p4321
(V:arg0
p4322
V:arg1
p4323
tp4324
Vlook-01
p4325
tp4326
I1
s((V:arg0 :polarity :polarity XXX-VB out
p4327
Vactive
p4328
tp4329
V:root
p4330
(V:arg0
p4331
V:polarity
p4332
V:polarity
p4333
tp4334
Vcry-out-03
p4335
tp4336
I1
s((VXXX-CC there :op2
p4337
g11
tp4338
V:root
p4339
(V:op2
p4340
tp4341
Vand
p4342
tp4343
I1
s((Vfor XXX-NN , :condition :arg1 , :arg0 :arg0
p4344
g11
tp4345
V:root
p4346
(V:arg0
p4347
tp4348
Vexemplify-01
p4349
tp4350
I1
s((V:polarity , XXX-VB :arg0
p4351
Vactive
p4352
tp4353
V:root
p4354
(V:arg0
p4355
V:arg1
p4356
tp4357
Vsay-01
p4358
tp4359
I1
s((V:arg1 is of :polarity XXX-NN :arg0
p4360
g11
tp4361
V:root
p4362
(V:arg0
p4363
V:arg1
p4364
V:polarity
p4365
tp4366
Vuse-01
p4367
tp4368
I1
s((Vis :arg0 :polarity of :arg1 :compared-to XXX-DT :arg1-of :arg1-of :part :compared-to
p4369
g11
tp4370
V:root
p4371
(V:arg0
p4372
V:arg1
p4373
V:polarity
p4374
tp4375
Vhave-03
p4376
tp4377
I1
s((V:time :arg0 XXX-VB :arg1
p4378
Vactive
p4379
tp4380
V:root
p4381
(V:arg0
p4382
V:arg1
p4383
tp4384
Vwant-01
p4385
tp4386
I1
s((VXXX-VB :degree :arg1
p4387
Vactive
p4388
tp4389
V:root
p4390
(V:arg1
p4391
tp4392
Vthink-01
p4393
tp4394
I1
s((V:direction , i XXX-VB :location :arg1 , :arg0-of :arg1
p4395
Vactive
p4396
tp4397
V:root
p4398
(V:arg0
p4399
V:arg1
p4400
V:time
p4401
tp4402
Vsee-01
p4403
tp4404
I1
s((V:arg0 XXX-VB :arg2 :arg1
p4405
Vactive
p4406
tp4407
V:root
p4408
(V:arg0
p4409
V:arg1
p4410
V:arg2
p4411
tp4412
Vsay-01
p4413
tp4414
I2
s((V:arg0 :time XXX-VB :arg1
p4415
Vactive
p4416
tp4417
V:root
p4418
(V:arg0
p4419
V:arg1
p4420
V:polarity
p4421
V:time
p4422
tp4423
Vhear-01
p4424
tp4425
I1
s((V:arg0 XXX-MD :arg1
p4426
Vactive
p4427
tp4428
V:root
p4429
(V:arg1
p4430
tp4431
Vpossible-01
p4432
tp4433
I4
s((VXXX-CC , :arg0 , :arg0 :op1
p4434
g11
tp4435
V:root
p4436
(V:arg2
p4437
tp4438
Vcontrast-01
p4439
tp4440
I1
s((VXXX-CC :purpose :arg2 :purpose
p4441
g11
tp4442
V:root
p4443
(V:arg2
p4444
tp4445
Vcontrast-01
p4446
tp4447
I1
s((V:arg2 :arg1 XXX-VB :op1 :arg2 :op2
p4448
Vactive
p4449
tp4450
V:root
p4451
(V:arg1
p4452
V:arg2
p4453
V:frequency
p4454
V:frequency
p4455
tp4456
Vobligate-01
p4457
tp4458
I1
s((V:domain was :degree XXX-JJ
p4459
Vactive
p4460
tp4461
V:root
p4462
(V:degree
p4463
V:domain
p4464
tp4465
Vstrange
p4466
tp4467
I1
s((VXXX-CC :arg0 :manner :arg0
p4468
g11
tp4469
V:root
p4470
(V:op2
p4471
tp4472
Vand
p4473
tp4474
I1
s((V:arg0 XXX-VB :arg1-of :arg2
p4475
Vactive
p4476
tp4477
V:root
p4478
(V:arg0
p4479
V:arg1
p4480
V:arg2
p4481
tp4482
Vtake-01
p4483
tp4484
I1
s((VXXX-CC :condition :arg0 , then :arg0 :arg2
p4485
g11
tp4486
V:root
p4487
(V:arg2
p4488
tp4489
Vcontrast-01
p4490
tp4491
I1
s((V:duration :arg0 :arg1-of been XXX-VB :arg1-of
p4492
Vactive
p4493
tp4494
V:root
p4495
(V:arg0
p4496
V:arg1
p4497
V:arg1-of
p4498
V:arg1-of
p4499
V:duration
p4500
tp4501
Veat-01
p4502
tp4503
I1
s((V:arg1 XXX-VB :arg2 , here :location
p4504
Vactive
p4505
tp4506
V:root
p4507
(V:arg1
p4508
V:arg2
p4509
V:location
p4510
V:mod
p4511
tp4512
Vlast-01
p4513
tp4514
I1
s((V:arg1 XXX-VB :arg2
p4515
Vactive
p4516
tp4517
V:root
p4518
(V:arg1
p4519
V:arg2
p4520
tp4521
Vbecome-01
p4522
tp4523
I1
s((V:arg0 XXX-VB :arg1
p4524
Vactive
p4525
tp4526
V:root
p4527
(V:arg0
p4528
V:arg1
p4529
tp4530
Vknow-02
p4531
tp4532
I1
s((VXXX-NN :topic :topic
p4533
g11
tp4534
V:root
p4535
(V:topic
p4536
V:topic
p4537
tp4538
Vminister
p4539
tp4540
I1
s((V:domain was an :mod XXX-NN
p4541
g11
tp4542
V:root
p4543
(V:domain
p4544
V:mod
p4545
tp4546
Vmonarch
p4547
tp4548
I1
s((V:time :arg0 XXX-MD :arg1
p4549
Vactive
p4550
tp4551
V:root
p4552
(V:arg1
p4553
V:time
p4554
tp4555
Vpossible-01
p4556
tp4557
I1
s((V:time :duration :arg0 :duration XXX-JJ :arg1
p4558
g11
tp4559
V:root
p4560
(V:arg0
p4561
V:arg1
p4562
V:time
p4563
tp4564
Vtire-01
p4565
tp4566
I1
s((VXXX-IN :op1
p4567
g11
tp4568
V:root
p4569
(V:op1
p4570
tp4571
Vover
p4572
tp4573
I1
s((V:arg0 shall :polarity XXX-VB :arg1 ,
p4574
Vactive
p4575
tp4576
V:root
p4577
(V:arg0
p4578
V:arg1
p4579
V:polarity
p4580
tp4581
Vleave-15
p4582
tp4583
I1
s((V:frequency :arg0 will XXX-VB :arg1 :arg3
p4584
Vactive
p4585
tp4586
V:root
p4587
(V:arg0
p4588
V:arg1
p4589
V:arg3
p4590
V:frequency
p4591
tp4592
Vcondemn-01
p4593
tp4594
I1
s((V:arg0 :mod XXX-VB :arg2 :arg1
p4595
Vactive
p4596
tp4597
V:root
p4598
(V:arg0
p4599
V:arg1
p4600
V:arg2
p4601
V:mod
p4602
tp4603
Vsay-01
p4604
tp4605
I1
s((Vthere was :arg1 XXX-CC :arg2 :arg2
p4606
g11
tp4607
V:root
p4608
(V:arg1
p4609
V:arg2
p4610
tp4611
Vcontrast-01
p4612
tp4613
I1
s((V:arg0 XXX-VB :mod :arg1-of :arg2
p4614
Vactive
p4615
tp4616
V:root
p4617
(V:arg0
p4618
V:arg1-of
p4619
tp4620
Vtalk-01
p4621
tp4622
I1
s((Vwhatever does :arg1 XXX-VB :arg2
p4623
Vactive
p4624
tp4625
V:root
p4626
(V:arg1
p4627
V:arg2
p4628
tp4629
Vmean-01
p4630
tp4631
I1
s((V:arg1 , XXX-VB :arg0
p4632
Vactive
p4633
tp4634
V:root
p4635
(V:arg0
p4636
V:arg1
p4637
tp4638
Vsigh-01
p4639
tp4640
I1
s((V:domain was :poss :ord XXX-NN :mod
p4641
g11
tp4642
V:root
p4643
(V:domain
p4644
V:mod
p4645
V:ord
p4646
V:poss
p4647
tp4648
Vmoment
p4649
tp4650
I1
s((VXXX-IN :arg1 :poss :arg1
p4651
g11
tp4652
V:root
p4653
(V:arg1
p4654
V:arg2
p4655
V:time
p4656
tp4657
Vresemble-01
p4658
tp4659
I1
s((V:mod :time now was :op1 , :op2 , XXX-CC :op3 , or :op4
p4660
g11
tp4661
V:root
p4662
(V:op1
p4663
V:op2
p4664
V:op3
p4665
V:op4
p4666
V:time
p4667
tp4668
Vor
p4669
tp4670
I1
s((V:degree is :degree XXX-JJ
p4671
Vactive
p4672
tp4673
V:root
p4674
(V:degree
p4675
V:degree
p4676
tp4677
Vheavy
p4678
tp4679
I1
s((V:arg0 XXX-VB :arg1
p4680
Vactive
p4681
tp4682
V:root
p4683
(V:arg0
p4684
V:arg1
p4685
tp4686
Vhave-03
p4687
tp4688
I6
s((V:arg1 XXX-VB :location :location :op1
p4689
Vactive
p4690
tp4691
V:root
p4692
(V:arg1
p4693
V:location
p4694
V:location
p4695
tp4696
Vsit-down-02
p4697
tp4698
I1
s((VXXX-RB as :arg0 i made :arg1 :arg2
p4699
g11
tp4700
V:root
p4701
(V:arg1
p4702
V:arg2
p4703
tp4704
Vcontrast-01
p4705
tp4706
I1
s((V:domain is :degree :degree XXX-JJ :domain
p4707
Vactive
p4708
tp4709
V:root
p4710
(V:compared-to
p4711
V:degree
p4712
V:domain
p4713
V:domain
p4714
tp4715
Vdifficult
p4716
tp4717
I1
s((V:mod :arg1 , XXX-VB :arg0
p4718
Vactive
p4719
tp4720
V:root
p4721
(V:arg0
p4722
V:arg1
p4723
tp4724
Vsay-01
p4725
tp4726
I1
s((V:arg1 :time XXX-VB :mod :arg2
p4727
Vactive
p4728
tp4729
V:root
p4730
(V:arg1
p4731
V:arg2
p4732
V:polarity
p4733
V:time
p4734
tp4735
Vbecome-01
p4736
tp4737
I1
s((VXXX-CC :arg0 :arg2
p4738
g11
tp4739
V:root
p4740
(V:arg2
p4741
tp4742
Vcontrast-01
p4743
tp4744
I15
s((V:arg0 XXX-VB
p4745
Vactive
p4746
tp4747
V:root
p4748
(V:arg0
p4749
tp4750
Vsmile-01
p4751
tp4752
I1
s((Vand , :manner , :arg0 XXX-VB :arg1
p4753
Vactive
p4754
tp4755
V:root
p4756
(V:arg0
p4757
V:arg1
p4758
V:manner
p4759
tp4760
Vshow-01
p4761
tp4762
I1
s((VXXX-JJ :arg0
p4763
g11
tp4764
V:root
p4765
(V:arg0
p4766
tp4767
Vshame-01
p4768
tp4769
I1
s((V:location :arg1 had :time been :degree XXX-JJ
p4770
Vactive
p4771
tp4772
V:root
p4773
(V:arg1
p4774
V:degree
p4775
V:location
p4776
V:time
p4777
tp4778
Vsimple-02
p4779
tp4780
I1
s((V:arg0 shall :polarity XXX-VB :arg1
p4781
Vactive
p4782
tp4783
V:root
p4784
(V:arg0
p4785
V:arg1
p4786
V:polarity
p4787
tp4788
Vleave-15
p4789
tp4790
I2
s((Vdo :polarity XXX-VB :purpose
p4791
Vactive
p4792
tp4793
V:root
p4794
(V:polarity
p4795
V:purpose
p4796
tp4797
Vcome-01
p4798
tp4799
I1
s((VXXX-CC , :time :op1 , :op2 :arg1
p4800
g11
tp4801
V:root
p4802
(V:op2
p4803
tp4804
Vand
p4805
tp4806
I1
s((Vand :arg0 XXX-VB :arg1
p4807
Vactive
p4808
tp4809
V:root
p4810
(V:arg0
p4811
V:arg1
p4812
tp4813
Vobey-01
p4814
tp4815
I1
s((V:arg0 XXX-VB :arg1 :instrument :subevent-of
p4816
Vactive
p4817
tp4818
V:root
p4819
(V:arg0
p4820
V:arg1
p4821
V:mod
p4822
V:subevent-of
p4823
tp4824
Vraise-01
p4825
tp4826
I1
s((Vit will be XXX-IN if , :arg1 , :arg0 :arg2
p4827
Vactive
p4828
tp4829
V:root
p4830
(V:arg1
p4831
tp4832
Vresemble-01
p4833
tp4834
I1
s((VXXX-UH
p4835
g11
tp4836
V:root
p4837
g265
Veh
p4838
tp4839
I1
s((V:arg0 will :time have been XXX-JJ :arg1
p4840
Vactive
p4841
tp4842
V:root
p4843
(V:arg1
p4844
V:polarity
p4845
V:time
p4846
tp4847
Vpossible-01
p4848
tp4849
I1
s((VXXX-CC :quant , :mod :arg1-of , :location
p4850
g11
tp4851
V:root
p4852
(V:op1
p4853
tp4854
Vand
p4855
tp4856
I1
s((V:arg0 XXX-VB :degree :arg1
p4857
Vactive
p4858
tp4859
V:root
p4860
(V:arg0
p4861
V:arg1
p4862
tp4863
Vremember-01
p4864
tp4865
I1
s((V:arg0 :polarity :polarity XXX-VB :arg0 :arg1 :instrument
p4866
Vactive
p4867
tp4868
V:root
p4869
(V:arg0
p4870
V:arg1
p4871
V:polarity
p4872
V:polarity
p4873
tp4874
Vwant-01
p4875
tp4876
I1
s((VXXX-CC :arg1 :arg1
p4877
g11
tp4878
V:root
p4879
(V:arg1
p4880
tp4881
Vhave-concession-91
p4882
tp4883
I2
s((V:arg0 shall :arg1 :arg2 , :arg0 XXX-VB
p4884
Vactive
p4885
tp4886
V:root
p4887
(V:arg0
p4888
V:arg2
p4889
tp4890
Vanswer-01
p4891
tp4892
I1
s((V:mod :arg1 , XXX-VB :arg0 :domain , :time
p4893
Vactive
p4894
tp4895
V:root
p4896
(V:arg0
p4897
V:arg1
p4898
V:time
p4899
tp4900
Vsay-01
p4901
tp4902
I1
s((V:arg0 made a XXX-NN , :arg0-of
p4903
g11
tp4904
V:root
p4905
(V:arg0
p4906
V:arg0-of
p4907
tp4908
Vgesture-01
p4909
tp4910
I1
s((V:arg1 XXX-VB :arg2
p4911
Vactive
p4912
tp4913
V:root
p4914
(V:arg1
p4915
V:arg2
p4916
tp4917
Vmean-01
p4918
tp4919
I1
s((V:time :arg0 was :arg1-of XXX-VB :arg1
p4920
Vactive
p4921
tp4922
V:root
p4923
(V:arg0
p4924
V:arg1
p4925
V:time
p4926
tp4927
Vtry-01
p4928
tp4929
I1
s((Vbut :arg0 , :arg0-of , had :polarity XXX-NN :arg1
p4930
g11
tp4931
V:root
p4932
(V:arg0
p4933
V:arg1
p4934
V:polarity
p4935
V:polarity
p4936
tp4937
Vwish-01
p4938
tp4939
I1
s((V:op1 XXX-CC :op2
p4940
g11
tp4941
V:root
p4942
(V:op1
p4943
V:op2
p4944
tp4945
Vand
p4946
tp4947
I6
s((VXXX-IN :arg0 :arg1
p4948
g11
tp4949
V:root
p4950
(V:arg1
p4951
tp4952
Vcause-01
p4953
tp4954
I2
s((Vand :condition :op2 who will :condition XXX-IN :arg1 :arg0
p4955
Vactive
p4956
tp4957
V:root
p4958
(V:arg0
p4959
V:arg1
p4960
V:condition
p4961
V:condition
p4962
tp4963
Vcall-on-05
p4964
tp4965
I1
s((V:arg1 was :mod XXX-DT :polarity :arg2 :arg2-of
p4966
g11
tp4967
V:root
p4968
(V:arg1
p4969
V:arg2
p4970
V:mod
p4971
V:polarity
p4972
tp4973
Vresemble-01
p4974
tp4975
I1
s((Vand :arg0 XXX-VB again :arg1
p4976
Vactive
p4977
tp4978
V:root
p4979
(V:arg0
p4980
V:arg1
p4981
V:mod
p4982
tp4983
Vbegin-01
p4984
tp4985
I1
s((Vthe XXX-NN
p4986
g11
tp4987
V:root
p4988
g265
Vstar
p4989
tp4990
I1
s((V:arg2-of , :arg1 :time XXX-VB :path
p4991
Vactive
p4992
tp4993
V:root
p4994
(V:arg1
p4995
V:arg2-of
p4996
V:path
p4997
V:time
p4998
V:time
p4999
tp5000
Vpass-03
p5001
tp5002
I1
s((V:degree is :degree XXX-JJ :location
p5003
Vactive
p5004
tp5005
V:root
p5006
(V:degree
p5007
V:degree
p5008
V:location
p5009
tp5010
Vcold-01
p5011
tp5012
I1
s((VXXX-VB :arg2 :quant
p5013
Vactive
p5014
tp5015
V:root
p5016
(V:arg1
p5017
V:arg2
p5018
V:purpose
p5019
tp5020
Vgive-01
p5021
tp5022
I1
s((V:arg2 :arg1 :arg0 XXX-JJ
p5023
g11
tp5024
V:root
p5025
(V:arg0
p5026
V:arg2
p5027
tp5028
Vinterrupt-01
p5029
tp5030
I1
s((V:time :arg0 :polarity :polarity XXX-VB :arg1
p5031
Vactive
p5032
tp5033
V:root
p5034
(V:arg0
p5035
V:arg1
p5036
V:polarity
p5037
V:polarity
p5038
V:time
p5039
V:time
p5040
tp5041
Vsee-01
p5042
tp5043
I1
s((V:degree XXX-JJ :arg1 are
p5044
g11
tp5045
V:root
p5046
(V:arg1
p5047
V:degree
p5048
tp5049
Vbeautiful-02
p5050
tp5051
I1
s((V:location :quant :arg0 shall be XXX-VB
p5052
Vactive
p5053
tp5054
V:root
p5055
(V:arg0
p5056
V:location
p5057
V:location
p5058
tp5059
Vlaugh-01
p5060
tp5061
I1
s((V:polarity XXX-VB :arg0 , who :arg0-of
p5062
Vactive
p5063
tp5064
V:root
p5065
(V:arg0
p5066
V:arg1
p5067
tp5068
Vsay-01
p5069
tp5070
I1
s((Vit is :mod XXX-IN :arg2
p5071
Vactive
p5072
tp5073
V:root
p5074
(V:arg1
p5075
V:arg2
p5076
V:mod
p5077
tp5078
Vresemble-01
p5079
tp5080
I1
s((V:arg0 :manner XXX-VB out :arg1
p5081
Vactive
p5082
tp5083
V:root
p5084
(V:arg0
p5085
V:arg1
p5086
V:manner
p5087
tp5088
Vclean-out-03
p5089
tp5090
I1
s((V:arg1 would be XXX-VB :arg1-of :arg2
p5091
Vactive
p5092
tp5093
V:root
p5094
(V:arg1
p5095
tp5096
Vregulate-01
p5097
tp5098
I1
s((V:condition , :arg0 would XXX-VB :arg1
p5099
Vactive
p5100
tp5101
V:root
p5102
(V:arg0
p5103
V:arg1
p5104
V:condition
p5105
V:condition
p5106
tp5107
Vmake-01
p5108
tp5109
I1
s((V:arg1 , :arg0 XXX-VB
p5110
Vactive
p5111
tp5112
V:root
p5113
(V:arg0
p5114
V:arg1
p5115
tp5116
Vadd-01
p5117
tp5118
I1
s((V:arg0 XXX-VB :manner
p5119
Vactive
p5120
tp5121
V:root
p5122
(V:arg0
p5123
V:manner
p5124
tp5125
Vobey-01
p5126
tp5127
I1
s((V:time , he was :degree XXX-JJ :arg0
p5128
Vactive
p5129
tp5130
V:root
p5131
(V:arg0
p5132
V:arg1
p5133
V:degree
p5134
V:time
p5135
tp5136
Vsurprise-01
p5137
tp5138
I1
s((V:domain :op1 , XXX-CC :op2 , :domain :mod
p5139
g11
tp5140
V:root
p5141
(V:op1
p5142
V:op2
p5143
tp5144
Vand
p5145
tp5146
I1
s((V:arg1-of :arg2 , :arg0 XXX-VB :manner , :concession :time :time he :concession
p5147
Vactive
p5148
tp5149
V:root
p5150
(V:arg0
p5151
V:arg2
p5152
V:concession
p5153
V:concession
p5154
V:manner
p5155
tp5156
Vrespond-01
p5157
tp5158
I1
s((VXXX-CC :compared-to
p5159
g11
tp5160
V:root
p5161
(V:arg2
p5162
tp5163
Vcontrast-01
p5164
tp5165
I1
s((V:arg0 XXX-VB :degree :degree :polarity
p5166
Vactive
p5167
tp5168
V:root
p5169
(V:arg0
p5170
V:arg1
p5171
V:degree
p5172
V:degree
p5173
tp5174
Vknow-01
p5175
tp5176
I1
s((V:location :arg0 XXX-VB :mod
p5177
Vactive
p5178
tp5179
V:root
p5180
(V:arg0
p5181
V:arg1
p5182
V:location
p5183
tp5184
Vsee-01
p5185
tp5186
I1
s((V:polarity , they :arg2 XXX-RP
p5187
g11
tp5188
V:root
p5189
(V:arg1
p5190
V:arg2
p5191
tp5192
Vcontrast-01
p5193
tp5194
I1
s((V:arg0 XXX-VB :arg0 :arg1
p5195
Vactive
p5196
tp5197
V:root
p5198
(V:arg0
p5199
V:arg1
p5200
tp5201
Vthink-01
p5202
tp5203
I1
s((V:ord was :quant , XXX-WRB :time-of :arg3
p5204
Vactive
p5205
tp5206
V:root
p5207
(V:arg1
p5208
V:arg2
p5209
tp5210
Vbe-temporally-at-91
p5211
tp5212
I1
s((V:arg0 XXX-VB
p5213
Vactive
p5214
tp5215
V:root
p5216
(V:arg0
p5217
tp5218
Vyawn-01
p5219
tp5220
I1
s((V:arg0 XXX-VB :purpose
p5221
Vactive
p5222
tp5223
V:root
p5224
(V:arg0
p5225
V:purpose
p5226
tp5227
Vgo-02
p5228
tp5229
I1
s((V:arg0 :snt1 XXX-RB :quant :arg1 :consist-of :snt2 :snt3
p5230
g11
tp5231
V:root
p5232
(V:snt1
p5233
V:snt2
p5234
V:snt3
p5235
tp5236
Vmulti-sentence
p5237
tp5238
I1
s((V:arg0 XXX-VB
p5239
Vactive
p5240
tp5241
V:root
p5242
(V:arg0
p5243
tp5244
Vreply-01
p5245
tp5246
I1
s((V:arg0 XXX-VB :arg2 , :arg1-of :arg1 :arg1
p5247
Vactive
p5248
tp5249
V:root
p5250
(V:arg0
p5251
V:arg1
p5252
V:arg1-of
p5253
V:arg2
p5254
tp5255
Vsay-01
p5256
tp5257
I1
s((VXXX-IN :arg0 :condition-of
p5258
g11
tp5259
V:root
p5260
(V:arg1
p5261
tp5262
Vcause-01
p5263
tp5264
I1
s((V:domain is XXX-JJ ,
p5265
Vactive
p5266
tp5267
V:root
p5268
(V:domain
p5269
tp5270
Vstrange
p5271
tp5272
I1
s((V:arg0 am XXX-JJ :arg1
p5273
g11
tp5274
V:root
p5275
(V:arg0
p5276
V:arg1
p5277
tp5278
Vresponsible-03
p5279
tp5280
I1
s((V:arg1-of XXX-NN
p5281
g11
tp5282
V:root
p5283
(V:arg1-of
p5284
tp5285
Vmorning
p5286
tp5287
I5
s((V:arg0 XXX-MD :arg2 , yes
p5288
Vactive
p5289
tp5290
V:root
p5291
(V:arg0
p5292
V:arg0-of
p5293
V:arg2
p5294
tp5295
Vobligate-01
p5296
tp5297
I1
s((V:arg1 was XXX-VB :arg2 :location-of
p5298
Vactive
p5299
tp5300
V:root
p5301
(V:arg1
p5302
V:arg2
p5303
tp5304
Vstand-01
p5305
tp5306
I1
s((V:time will be :poss XXX-NN
p5307
g11
tp5308
V:root
p5309
(V:poss
p5310
V:time
p5311
tp5312
Vanniversary
p5313
tp5314
I1
s((V:arg1 is :op1 , XXX-CC :op2 , and :op1 :op3 :op2
p5315
Vactive
p5316
tp5317
V:root
p5318
(V:op1
p5319
V:op2
p5320
V:op3
p5321
tp5322
Vand
p5323
tp5324
I1
s((VXXX-WP :mod :arg1-of
p5325
g11
tp5326
V:root
p5327
(V:arg1
p5328
V:arg1-of
p5329
tp5330
Vsee-01
p5331
tp5332
I1
s((V:domain was the XXX-JJS :compared-to
p5333
g11
tp5334
V:root
p5335
(V:compared-to
p5336
V:degree
p5337
V:domain
p5338
tp5339
Vsmall
p5340
tp5341
I1
s((Vyou are :polarity XXX-JJ , :arg0 ,
p5342
Vactive
p5343
tp5344
V:root
p5345
(V:arg0
p5346
V:polarity
p5347
tp5348
Vfair-01
p5349
tp5350
I1
s((VXXX-CC :op2 i am :arg2 , :mod
p5351
g11
tp5352
V:root
p5353
(V:arg2
p5354
tp5355
Vcontrast-01
p5356
tp5357
I1
s((V:arg0 XXX-VB :arg1 :arg2 , :op1 :op1 :op2 :concession-of :op3
p5358
Vactive
p5359
tp5360
V:root
p5361
(V:arg0
p5362
V:arg1
p5363
V:arg2
p5364
tp5365
Vsay-01
p5366
tp5367
I1
s((V:arg0 :op1 :arg1 , XXX-CC :arg0
p5368
g11
tp5369
V:root
p5370
(V:op1
p5371
V:op1
p5372
tp5373
Vand
p5374
tp5375
I1
s((Vso :time :arg0 :instrument a :instrument XXX-NN :arg1
p5376
g11
tp5377
V:root
p5378
(V:arg0
p5379
V:arg1
p5380
V:instrument
p5381
V:instrument
p5382
V:time
p5383
tp5384
Vsketch-01
p5385
tp5386
I1
s((V:op1 XXX-CC :mod i :arg2
p5387
g11
tp5388
V:root
p5389
(V:arg1
p5390
V:arg2
p5391
tp5392
Vcontrast-01
p5393
tp5394
I1
s((V:arg0 XXX-VB :arg1
p5395
Vactive
p5396
tp5397
V:root
p5398
(V:arg0
p5399
V:arg1
p5400
tp5401
Vfollow-02
p5402
tp5403
I1
s((V:arg2-of XXX-VB :arg2-of
p5404
Vactive
p5405
tp5406
V:root
p5407
(V:arg2-of
p5408
V:arg2-of
p5409
tp5410
Vthing
p5411
tp5412
I1
s((V:concession throbs , XXX-CC :op2
p5413
g11
tp5414
V:root
p5415
(V:concession
p5416
V:concession
p5417
V:op1
p5418
V:op2
p5419
tp5420
Vand
p5421
tp5422
I1
s((V:arg1 :arg2 :arg1 XXX-VB :arg0 , :time he :op1
p5423
Vactive
p5424
tp5425
V:root
p5426
(V:arg0
p5427
V:arg1
p5428
tp5429
Vrepeat-01
p5430
tp5431
I1
s((VXXX-CC :arg1 :arg2 it is :arg1 :arg1
p5432
g11
tp5433
V:root
p5434
(V:arg2
p5435
tp5436
Vcontrast-01
p5437
tp5438
I1
s((V:domain , :arg0 XXX-VB :domain , :time
p5439
Vactive
p5440
tp5441
V:root
p5442
(V:arg0
p5443
V:arg1
p5444
V:time
p5445
tp5446
Vsay-01
p5447
tp5448
I2
s((Vwhen he XXX-NN :arg1 , it is :arg1-of if :arg2
p5449
g11
tp5450
V:root
p5451
(V:arg1
p5452
V:arg1-of
p5453
tp5454
Vlight-04
p5455
tp5456
I1
s((V:arg0 XXX-JJ :mod :arg1
p5457
g11
tp5458
V:root
p5459
(V:arg0
p5460
V:arg1
p5461
tp5462
Vperfume-01
p5463
tp5464
I1
s((V:time , :arg0 XXX-VB :op2 :arg2
p5465
Vactive
p5466
tp5467
V:root
p5468
(V:arg0
p5469
V:arg1
p5470
V:arg2
p5471
V:time
p5472
tp5473
Vsend-02
p5474
tp5475
I1
s((Vit XXX-VB :arg2 , :mod , that there was :arg1 :location
p5476
Vactive
p5477
tp5478
V:root
p5479
(V:arg1
p5480
V:arg2
p5481
V:mod
p5482
tp5483
Vseem-01
p5484
tp5485
I1
s((Vno , XXX-DT no :quant
p5486
g11
tp5487
V:root
p5488
(V:quant
p5489
tp5490
Vno
p5491
tp5492
I1
s((Vwhat are :arg0 XXX-VB :arg1 :arg1
p5493
Vactive
p5494
tp5495
V:root
p5496
(V:arg0
p5497
V:arg1
p5498
tp5499
Vtry-01
p5500
tp5501
I2
s((V:arg0 XXX-VB :arg1
p5502
Vactive
p5503
tp5504
V:root
p5505
(V:arg0
p5506
V:arg1
p5507
tp5508
Vraise-01
p5509
tp5510
I1
s((V:arg0 :op1 XXX-CC :op1 :op1 , :op2 was , :arg1-of :arg1-of
p5511
g11
tp5512
V:root
p5513
(V:op1
p5514
V:op1
p5515
tp5516
Vand
p5517
tp5518
I1
s((Vfor what :arg0 :mod XXX-VB upon was :arg1
p5519
Vactive
p5520
tp5521
V:root
p5522
(V:arg0
p5523
V:arg1
p5524
V:mod
p5525
tp5526
Vinsist-01
p5527
tp5528
I1
s((VXXX-TO :op1 , no one :arg1 :arg1
p5529
g11
tp5530
V:root
p5531
(V:op1
p5532
V:op2
p5533
tp5534
Vand
p5535
tp5536
I1
s((Vit is the XXX-NN :arg1-of
p5537
g11
tp5538
V:root
p5539
(V:arg0-of
p5540
V:arg1-of
p5541
tp5542
Vtime
p5543
tp5544
I1
s((VXXX-CC :time :arg1 :op2
p5545
g11
tp5546
V:root
p5547
(V:op2
p5548
V:time
p5549
tp5550
Vand
p5551
tp5552
I2
s((VXXX-TO :arg0 , :domain :mod
p5553
g11
tp5554
V:root
p5555
(V:arg0
p5556
V:arg1
p5557
tp5558
Vopine-01
p5559
tp5560
I1
s((V:arg1-of , :arg0 XXX-VB :arg2
p5561
Vactive
p5562
tp5563
V:root
p5564
(V:arg0
p5565
V:arg1
p5566
V:arg2
p5567
tp5568
Vsay-01
p5569
tp5570
I1
s((Vit was :arg1-of to XXX-VB
p5571
Vactive
p5572
tp5573
V:root
p5574
(V:arg1
p5575
V:arg1-of
p5576
tp5577
Vcome-01
p5578
tp5579
I1
s((V:arg1 had XXX-VB :time-of
p5580
Vactive
p5581
tp5582
V:root
p5583
(V:arg1
p5584
V:time-of
p5585
tp5586
Vcome-01
p5587
tp5588
I1
s((VXXX-VB :duration , :manner :location :op1
p5589
Vactive
p5590
tp5591
V:root
p5592
(V:duration
p5593
V:location
p5594
tp5595
Vwait-01
p5596
tp5597
I1
s((V:domain is :domain :arg1-of XXX-NN
p5598
g11
tp5599
V:root
p5600
(V:arg1-of
p5601
V:domain
p5602
V:domain
p5603
tp5604
Vmatter
p5605
tp5606
I1
s((V:polite XXX-NN :arg0
p5607
g11
tp5608
V:root
p5609
(V:arg0
p5610
V:arg1
p5611
V:polite
p5612
tp5613
Vexcuse-01
p5614
tp5615
I1
s((V:arg1 , :arg0 XXX-VB :mod
p5616
Vactive
p5617
tp5618
V:root
p5619
(V:arg0
p5620
V:arg1
p5621
V:mod
p5622
tp5623
Vsay-01
p5624
tp5625
I1
s((V:arg0 XXX-MD :time :arg2
p5626
Vactive
p5627
tp5628
V:root
p5629
(V:arg0
p5630
V:arg1
p5631
V:arg2
p5632
V:time
p5633
tp5634
Vhave-rel-role-91
p5635
tp5636
I1
s((V:arg0 :snt1 the XXX-NN :mod :location :snt1 :time :arg1-of
p5637
g11
tp5638
V:root
p5639
(V:snt1
p5640
V:snt1
p5641
V:snt2
p5642
tp5643
Vmulti-sentence
p5644
tp5645
I1
s((V:arg0 XXX-MD :polarity :arg1
p5646
Vactive
p5647
tp5648
V:root
p5649
(V:arg1
p5650
V:polarity
p5651
tp5652
Vpossible-01
p5653
tp5654
I4
s((V:arg1 XXX-VB :degree :manner :compared-to
p5655
Vactive
p5656
tp5657
V:root
p5658
(V:arg1
p5659
V:manner
p5660
tp5661
Vfall-01
p5662
tp5663
I1
s((Vis :domain XXX-DT that :arg1-of
p5664
g11
tp5665
V:root
p5666
(V:arg1-of
p5667
V:domain
p5668
tp5669
Vall
p5670
tp5671
I1
s((V:arg0 made a XXX-NN :arg1
p5672
g11
tp5673
V:root
p5674
(V:arg0
p5675
V:arg1
p5676
tp5677
Vgesture-01
p5678
tp5679
I1
s((V:arg1 was :mod XXX-VB :purpose
p5680
Vactive
p5681
tp5682
V:root
p5683
(V:arg1
p5684
V:mod
p5685
V:purpose
p5686
tp5687
Vcome-01
p5688
tp5689
I1
s((V:arg0 XXX-VB :polarity :arg1
p5690
Vactive
p5691
tp5692
V:root
p5693
(V:arg0
p5694
V:arg1
p5695
V:polarity
p5696
tp5697
Vhave-03
p5698
tp5699
I1
s((V:arg1 was XXX-VB :arg0
p5700
Vactive
p5701
tp5702
V:root
p5703
(V:arg0
p5704
V:arg1
p5705
tp5706
Vinhabit-01
p5707
tp5708
I1
s((V:arg0 XXX-VB
p5709
Vactive
p5710
tp5711
V:root
p5712
(V:arg0
p5713
tp5714
Vsay-01
p5715
tp5716
I5
s((Vthere are :polarity XXX-NN :location
p5717
g11
tp5718
V:root
p5719
(V:location
p5720
V:polarity
p5721
tp5722
Vperson
p5723
tp5724
I1
s((V:time , :arg0 :op1 XXX-CC :op2
p5725
g11
tp5726
V:root
p5727
(V:op1
p5728
V:op2
p5729
V:time
p5730
tp5731
Vand
p5732
tp5733
I1
s((V:arg0 have been XXX-VB :arg1 :duration
p5734
Vactive
p5735
tp5736
V:root
p5737
(V:arg0
p5738
V:arg1
p5739
V:duration
p5740
tp5741
Vgrow-03
p5742
tp5743
I1
s((V:arg0 :mod XXX-VB :arg1
p5744
Vactive
p5745
tp5746
V:root
p5747
(V:arg0
p5748
V:arg1
p5749
tp5750
Vlook-02
p5751
tp5752
I1
s((V:mod :mod XXX-NN ,
p5753
g11
tp5754
V:root
p5755
(V:mod
p5756
V:mod
p5757
tp5758
Vman
p5759
tp5760
I1
s((V:frequency :mod :arg0 XXX-VB :arg1
p5761
Vactive
p5762
tp5763
V:root
p5764
(V:arg0
p5765
V:arg1
p5766
V:mod
p5767
tp5768
Vfeel-01
p5769
tp5770
I1
s((VXXX-CC :condition :arg0 , it :arg2
p5771
g11
tp5772
V:root
p5773
(V:arg2
p5774
tp5775
Vcontrast-01
p5776
tp5777
I1
s((V:mod XXX-NN ,
p5778
g11
tp5779
V:root
p5780
(V:mod
p5781
tp5782
Vman
p5783
tp5784
I2
s((V:time , :arg0-of , :time :time , :arg0 XXX-VB :arg2 :arg1
p5785
Vactive
p5786
tp5787
V:root
p5788
(V:arg0
p5789
V:arg0-of
p5790
V:arg1
p5791
V:arg2
p5792
V:time
p5793
V:time
p5794
V:time
p5795
tp5796
Vsay-01
p5797
tp5798
I1
s((V:arg1 , :arg0 XXX-VB
p5799
Vactive
p5800
tp5801
V:root
p5802
(V:arg0
p5803
V:arg1
p5804
tp5805
Vreply-01
p5806
tp5807
I1
s((V:arg0 :op1 :arg1 over , XXX-CC :op2 :arg0 they :arg1
p5808
g11
tp5809
V:root
p5810
(V:op1
p5811
V:op2
p5812
tp5813
Vand
p5814
tp5815
I1
s((V:arg1 , :arg0 XXX-VB :manner , :manner
p5816
Vactive
p5817
tp5818
V:root
p5819
(V:arg0
p5820
V:arg1
p5821
V:manner
p5822
V:manner
p5823
tp5824
Vcall-07
p5825
tp5826
I1
s((V:arg0 XXX-VB :arg1
p5827
Vactive
p5828
tp5829
V:root
p5830
(V:arg0
p5831
V:arg1
p5832
tp5833
Vremember-01
p5834
tp5835
I1
s((V:arg1 , :arg0 XXX-VB :mod
p5836
Vactive
p5837
tp5838
V:root
p5839
(V:arg0
p5840
V:arg1
p5841
V:mod
p5842
tp5843
Vspeak-01
p5844
tp5845
I1
s((V:arg0 :time :op1 , XXX-CC :op2
p5846
g11
tp5847
V:root
p5848
(V:op1
p5849
V:op2
p5850
tp5851
Vand
p5852
tp5853
I1
s((V:op1 , :op2 XXX-.
p5854
g11
tp5855
V:root
p5856
(V:op1
p5857
V:op2
p5858
tp5859
Vand
p5860
tp5861
I1
s((V:arg1 , XXX-CC :arg2 :arg1
p5862
g11
tp5863
V:root
p5864
(V:arg1
p5865
V:arg2
p5866
tp5867
Vcontrast-01
p5868
tp5869
I1
s((Vi am :degree :arg1 , :arg0 XXX-VB
p5870
Vactive
p5871
tp5872
V:root
p5873
(V:arg0
p5874
V:arg1
p5875
tp5876
Vsay-01
p5877
tp5878
I1
s((V:arg1 is :degree , XXX-IN :arg2
p5879
Vactive
p5880
tp5881
V:root
p5882
(V:arg1
p5883
V:arg2
p5884
tp5885
Vresemble-01
p5886
tp5887
I1
s((V:arg0 :time XXX-MD :arg1
p5888
Vactive
p5889
tp5890
V:root
p5891
(V:arg1
p5892
tp5893
Vrecommend-01
p5894
tp5895
I1
s((VXXX-CC :time :op2
p5896
g11
tp5897
V:root
p5898
(V:op2
p5899
V:op3
p5900
tp5901
Vand
p5902
tp5903
I1
s((V:arg0 will XXX-VB :direction :arg1
p5904
Vactive
p5905
tp5906
V:root
p5907
(V:arg0
p5908
V:arg1
p5909
V:direction
p5910
V:purpose
p5911
tp5912
Vpour-01
p5913
tp5914
I1
s((VXXX-CC :op2 :arg0 , it :arg1
p5915
g11
tp5916
V:root
p5917
(V:op2
p5918
tp5919
Vand
p5920
tp5921
I1
s((VXXX-RB :domain is
p5922
g11
tp5923
V:root
p5924
(V:domain
p5925
tp5926
Vcertain
p5927
tp5928
I1
s((V:time , :time :op1 , :arg0 XXX-VB :arg4 :arg1
p5929
Vactive
p5930
tp5931
V:root
p5932
(V:arg0
p5933
V:arg1
p5934
V:time
p5935
V:time
p5936
tp5937
Vgo-23
p5938
tp5939
I1
s((V:arg0 :time :time been XXX-CC :op2
p5940
Vactive
p5941
tp5942
V:root
p5943
(V:op1
p5944
V:op2
p5945
V:time
p5946
V:time
p5947
tp5948
Vand
p5949
tp5950
I1
s((V:op1 XXX-TO be :arg1 :domain
p5951
g11
tp5952
V:root
p5953
(V:op1
p5954
V:op2
p5955
tp5956
Vand
p5957
tp5958
I1
s((VXXX-RB ,
p5959
g11
tp5960
V:root
p5961
g265
Vah
p5962
tp5963
I2
s((V:arg1 is XXX-JJ :example :arg2 :op3
p5964
Vactive
p5965
tp5966
V:root
p5967
(V:arg1
p5968
V:arg2
p5969
tp5970
Vready-02
p5971
tp5972
I1
s((V:arg2-of XXX-NN :arg2-of
p5973
g11
tp5974
V:root
p5975
(V:arg0
p5976
V:arg1-of
p5977
V:arg2-of
p5978
V:arg2-of
p5979
tp5980
Vlook-01
p5981
tp5982
I1
s((V:condition , then you are XXX-RB :arg1-of
p5983
Vactive
p5984
tp5985
V:root
p5986
(V:arg1-of
p5987
V:condition
p5988
V:domain
p5989
tp5990
Vwise
p5991
tp5992
I1
s((V:location :arg1-of :consist-of an :mod :consist-of XXX-NN
p5993
g11
tp5994
V:root
p5995
(V:arg1-of
p5996
V:consist-of
p5997
V:consist-of
p5998
V:location
p5999
V:location
p6000
V:mod
p6001
tp6002
Vwall
p6003
tp6004
I1
s((VXXX-CC :time :arg0 :op1 :op2
p6005
g11
tp6006
V:root
p6007
(V:op1
p6008
tp6009
Vand
p6010
tp6011
I1
s((VXXX-NN
p6012
g11
tp6013
V:root
p6014
g265
Vbee
p6015
tp6016
I1
s((Vto whom :arg2 :arg1 :arg0 XXX-VB , :manner
p6017
Vactive
p6018
tp6019
V:root
p6020
(V:arg0
p6021
V:arg2
p6022
V:manner
p6023
tp6024
Vretort-01
p6025
tp6026
I1
s((V:arg1 was XXX-JJ :arg2 , :arg1-of :arg2
p6027
Vactive
p6028
tp6029
V:root
p6030
(V:arg1
p6031
V:arg2
p6032
tp6033
Vgood-04
p6034
tp6035
I1
s((VXXX-CC :arg0 :op1 :arg1-of
p6036
g11
tp6037
V:root
p6038
(V:op1
p6039
tp6040
Vand
p6041
tp6042
I1
s((V:arg0 XXX-VB :op1
p6043
Vactive
p6044
tp6045
V:root
p6046
(V:arg0
p6047
V:arg1
p6048
tp6049
Vhave-03
p6050
tp6051
I1
s((VXXX-RB the :arg0 :arg1
p6052
g11
tp6053
V:root
p6054
(V:arg1
p6055
tp6056
Vpossible-01
p6057
tp6058
I1
s((Vwhat are the XXX-NN :arg2
p6059
g11
tp6060
V:root
p6061
(V:arg2
p6062
tp6063
Vorder-01
p6064
tp6065
I1
s((VXXX-WDT :arg1-of :domain
p6066
g11
tp6067
V:root
p6068
(V:arg1-of
p6069
V:domain
p6070
tp6071
Vthing
p6072
tp6073
I1
s((V:arg0 :mod will XXX-VB :arg1 :arg1-of :arg2
p6074
Vactive
p6075
tp6076
V:root
p6077
(V:arg0
p6078
V:arg1
p6079
V:arg1-of
p6080
tp6081
Vhave-03
p6082
tp6083
I1
s((VXXX-CC :arg0 :arg2 , and :arg1
p6084
g11
tp6085
V:root
p6086
(V:arg2
p6087
tp6088
Vcontrast-01
p6089
tp6090
I1
s((V:arg1 is :mod XXX-IN :arg2
p6091
Vactive
p6092
tp6093
V:root
p6094
(V:arg1
p6095
V:arg2
p6096
V:mod
p6097
tp6098
Vresemble-01
p6099
tp6100
I1
s((VXXX-VB :arg1
p6101
Vactive
p6102
tp6103
V:root
p6104
(V:arg1
p6105
V:arg2
p6106
tp6107
Vleave-02
p6108
tp6109
I1
s((V:time i was :time , :op1 of :arg0 , :op2 of :poss , :op3 , :poss to XXX-VB :arg0 , :manner , :arg1 :arg1-of
p6110
Vactive
p6111
tp6112
V:root
p6113
(V:arg0
p6114
V:arg1
p6115
V:manner
p6116
V:time
p6117
V:time
p6118
tp6119
Vmake-up-07
p6120
tp6121
I1
s((V:arg0 shall XXX-VB as :arg1 :arg2
p6122
Vactive
p6123
tp6124
V:root
p6125
(V:arg0
p6126
V:arg1
p6127
tp6128
Vlook-02
p6129
tp6130
I1
s((V:arg0 :polarity :polarity :degree :degree XXX-NN
p6131
g11
tp6132
V:root
p6133
(V:arg0
p6134
V:degree
p6135
V:degree
p6136
tp6137
Vexercise-02
p6138
tp6139
I1
s((V:op2 was :ord XXX-JJR :ord
p6140
Vactive
p6141
tp6142
V:root
p6143
(V:domain
p6144
V:quant
p6145
tp6146
Vlarge
p6147
tp6148
I1
s((V:arg0 :polarity :polarity XXX-VB :arg1
p6149
Vactive
p6150
tp6151
V:root
p6152
(V:arg0
p6153
V:arg1
p6154
V:polarity
p6155
V:polarity
p6156
tp6157
Vleave-11
p6158
tp6159
I1
s((V:op1 , XXX-CC :op2
p6160
g11
tp6161
V:root
p6162
(V:op1
p6163
V:op2
p6164
V:time
p6165
V:time
p6166
tp6167
Vor
p6168
tp6169
I1
s((V:arg1-of , XXX-VB :arg0 :manner
p6170
Vactive
p6171
tp6172
V:root
p6173
(V:arg0
p6174
V:arg1
p6175
V:manner
p6176
tp6177
Vsay-01
p6178
tp6179
I1
s((V:arg0 XXX-VB :arg1
p6180
Vactive
p6181
tp6182
V:root
p6183
(V:arg0
p6184
V:arg1
p6185
tp6186
Vsuppose-01
p6187
tp6188
I1
s((V:arg0 XXX-VB to myself
p6189
Vactive
p6190
tp6191
V:root
p6192
(V:arg0
p6193
tp6194
Vsay-01
p6195
tp6196
I1
s((V:arg1 XXX-CC you :arg2
p6197
g11
tp6198
V:root
p6199
(V:arg1
p6200
V:arg2
p6201
tp6202
Vcontrast-01
p6203
tp6204
I1
s((V:domain is :polarity :domain who :arg0-of XXX-RP :purpose
p6205
g11
tp6206
V:root
p6207
(V:arg0-of
p6208
V:domain
p6209
V:domain
p6210
tp6211
Vperson
p6212
tp6213
I1
s((Vlet :arg0 XXX-VB :arg1
p6214
Vactive
p6215
tp6216
V:root
p6217
(V:arg0
p6218
V:arg1
p6219
tp6220
Vlook-01
p6221
tp6222
I1
s((VXXX-CC :arg2 at :mod , :arg1 :mod
p6223
g11
tp6224
V:root
p6225
(V:arg2
p6226
tp6227
Vcontrast-01
p6228
tp6229
I1
s((V:arg0 XXX-VB :conj-as-if
p6230
Vactive
p6231
tp6232
V:root
p6233
(V:arg0
p6234
V:arg1
p6235
tp6236
Vfeel-01
p6237
tp6238
I1
s((V:arg0 XXX-VB :arg1-of
p6239
Vactive
p6240
tp6241
V:root
p6242
(V:arg0
p6243
V:arg1-of
p6244
tp6245
Vbreathe-01
p6246
tp6247
I1
s((Vit was :time that :arg1 XXX-VB
p6248
Vactive
p6249
tp6250
V:root
p6251
(V:arg1
p6252
V:time
p6253
tp6254
Vappear-01
p6255
tp6256
I1
s((V:time :mod :time :arg0 was XXX-VB to myself :arg1
p6257
Vactive
p6258
tp6259
V:root
p6260
(V:arg0
p6261
V:arg1
p6262
V:time
p6263
V:time
p6264
tp6265
Vsay-01
p6266
tp6267
I1
s((V:arg1-of XXX-CC :op2
p6268
g11
tp6269
V:root
p6270
(V:op1
p6271
V:op2
p6272
tp6273
Vand
p6274
tp6275
I1
s((V:domain would be XXX-JJ
p6276
Vactive
p6277
tp6278
V:root
p6279
(V:domain
p6280
tp6281
Vmagnificent
p6282
tp6283
I1
s((V:arg1 XXX-VB :arg0 , is that :location :arg0
p6284
Vactive
p6285
tp6286
V:root
p6287
(V:arg0
p6288
V:arg1
p6289
tp6290
Vsay-01
p6291
tp6292
I1
s((VXXX-CC :time :arg1 :time :arg1-of :arg1
p6293
g11
tp6294
V:root
p6295
(V:op2
p6296
tp6297
Vand
p6298
tp6299
I1
s((V:quant that :polarity :polarity XXX-VB :domain :arg1
p6300
Vactive
p6301
tp6302
V:root
p6303
(V:arg0
p6304
V:arg1
p6305
V:polarity
p6306
V:polarity
p6307
tp6308
Vmake-02
p6309
tp6310
I1
s((VXXX-CC :arg0 :arg2 :duration :arg1
p6311
g11
tp6312
V:root
p6313
(V:arg2
p6314
tp6315
Vcontrast-01
p6316
tp6317
I1
s((VXXX-CC :op1 :arg1
p6318
g11
tp6319
V:root
p6320
(V:op1
p6321
tp6322
Vand
p6323
tp6324
I1
s((V:domain are :mod XXX-NN :arg1-of
p6325
g11
tp6326
V:root
p6327
(V:arg1-of
p6328
V:domain
p6329
V:mod
p6330
tp6331
Vhole
p6332
tp6333
I1
s((V:arg1 , :arg0 XXX-VB :arg3 :arg3
p6334
Vactive
p6335
tp6336
V:root
p6337
(V:arg0
p6338
V:arg1
p6339
V:arg2
p6340
V:arg3
p6341
V:arg3
p6342
tp6343
Vcontinue-02
p6344
tp6345
I1
s((V:condition , it is :arg1-of to XXX-VB :time :arg1
p6346
Vactive
p6347
tp6348
V:root
p6349
(V:arg1
p6350
V:arg1-of
p6351
V:condition
p6352
tp6353
Vlook-01
p6354
tp6355
I1
s((V:arg0 :polarity :polarity XXX-VB :arg1
p6356
Vactive
p6357
tp6358
V:root
p6359
(V:arg0
p6360
V:arg1
p6361
V:polarity
p6362
V:polarity
p6363
tp6364
Vunderstand-01
p6365
tp6366
I1
s((V:arg0 XXX-NN :arg1
p6367
g11
tp6368
V:root
p6369
(V:arg0
p6370
V:arg1
p6371
V:direction
p6372
tp6373
Vblow-01
p6374
tp6375
I1
s((V:arg0 XXX-VB :arg1
p6376
Vactive
p6377
tp6378
V:root
p6379
(V:arg0
p6380
V:arg1
p6381
V:mod
p6382
tp6383
Vhave-03
p6384
tp6385
I1
s((V:arg0 XXX-VB :arg5 :arg1
p6386
Vactive
p6387
tp6388
V:root
p6389
(V:arg0
p6390
V:arg1
p6391
V:arg5
p6392
V:arg5
p6393
tp6394
Vsend-03
p6395
tp6396
I1
s((VXXX-CC :time-of :time :time-of :op2
p6397
g11
tp6398
V:root
p6399
(V:op1
p6400
tp6401
Vand
p6402
tp6403
I1
s((V:domain is , XXX-TO :arg0 , :arg1
p6404
Vactive
p6405
tp6406
V:root
p6407
(V:arg0
p6408
V:arg1
p6409
tp6410
Vopine-01
p6411
tp6412
I1
s((V:arg0 XXX-VB :arg2
p6413
Vactive
p6414
tp6415
V:root
p6416
(V:arg0
p6417
V:arg2
p6418
tp6419
Vconfuse-01
p6420
tp6421
I1
s((Vwhat has XXX-VB :arg1 :arg2 :arg0
p6422
Vactive
p6423
tp6424
V:root
p6425
(V:arg0
p6426
V:arg1
p6427
V:arg2
p6428
tp6429
Vbring-01
p6430
tp6431
I1
s((V:arg0 do n't XXX-VB :arg1
p6432
Vactive
p6433
tp6434
V:root
p6435
(V:arg0
p6436
V:arg1
p6437
tp6438
Vknow-01
p6439
tp6440
I1
s((V:arg0 :source-of XXX-VB :arg1 :beneficiary
p6441
Vactive
p6442
tp6443
V:root
p6444
(V:arg0
p6445
V:arg1
p6446
V:beneficiary
p6447
tp6448
Vdescribe-01
p6449
tp6450
I1
s((Vi :arg1 , :arg0 XXX-VB , :arg1 :location :purpose :arg0 :purpose
p6451
Vactive
p6452
tp6453
V:root
p6454
(V:arg0
p6455
V:arg1
p6456
tp6457
Vsay-01
p6458
tp6459
I1
s((Vyes , XXX-DT 's it
p6460
g11
tp6461
V:root
p6462
g265
Vthat-is-it-00
p6463
tp6464
I1
s((V:location :quant of :arg0 XXX-MD :arg1-of
p6465
Vactive
p6466
tp6467
V:root
p6468
(V:arg0
p6469
V:location
p6470
tp6471
Vlive-01
p6472
tp6473
I1
s((V:arg0 XXX-VB :arg1 :location
p6474
Vactive
p6475
tp6476
V:root
p6477
(V:arg0
p6478
V:arg1
p6479
V:location
p6480
tp6481
Vtoss-01
p6482
tp6483
I1
s((VXXX-CC , :time :op1 , :arg2 :arg1 :arg2
p6484
g11
tp6485
V:root
p6486
(V:arg2
p6487
tp6488
Vcontrast-01
p6489
tp6490
I1
s((V:op1 :domain was XXX-RB :op2
p6491
Vactive
p6492
tp6493
V:root
p6494
(V:op1
p6495
V:op2
p6496
tp6497
Vand
p6498
tp6499
I1
s((V:arg0 :op1 , XXX-CC :arg1
p6500
g11
tp6501
V:root
p6502
(V:op1
p6503
V:op2
p6504
tp6505
Vand
p6506
tp6507
I1
s((V:arg0 XXX-VB , :arg1 :arg1
p6508
Vactive
p6509
tp6510
V:root
p6511
(V:arg0
p6512
V:arg1
p6513
tp6514
Vanswer-01
p6515
tp6516
I1
s((VXXX-UH
p6517
g11
tp6518
V:root
p6519
g265
Voh
p6520
tp6521
I3
s((Vso , :mod , :arg0 XXX-VB :degree :arg1-of :arg1
p6522
Vactive
p6523
tp6524
V:root
p6525
(V:arg0
p6526
V:arg1
p6527
V:arg1-of
p6528
V:mod
p6529
tp6530
Vbegin-01
p6531
tp6532
I1
s((VXXX-TO :arg0 , :domain :arg1
p6533
g11
tp6534
V:root
p6535
(V:arg0
p6536
V:arg1
p6537
tp6538
Vopine-01
p6539
tp6540
I2
s((V:arg0 XXX-VB :arg1 , :arg1-of
p6541
Vactive
p6542
tp6543
V:root
p6544
(V:arg0
p6545
V:arg1
p6546
V:arg1-of
p6547
tp6548
Vgaze-01
p6549
tp6550
I1
s((V:arg0 have :time XXX-VB :arg1
p6551
Vactive
p6552
tp6553
V:root
p6554
(V:arg0
p6555
V:arg1
p6556
V:time
p6557
tp6558
Vlove-01
p6559
tp6560
I1
s((V:arg1-of are XXX-VB :direction :time :instrument
p6561
Vactive
p6562
tp6563
V:root
p6564
(V:arg1
p6565
V:direction
p6566
V:instrument
p6567
V:time
p6568
tp6569
Vput-01
p6570
tp6571
I1
s((V:manner , :conj-as-if , :arg0 XXX-VB :polarity
p6572
Vactive
p6573
tp6574
V:root
p6575
(V:arg0
p6576
V:arg1
p6577
V:arg2-of
p6578
V:conj-as-if
p6579
V:manner
p6580
V:manner
p6581
tp6582
Vdemand-01
p6583
tp6584
I1
s((V:arg0 was just going to XXX-VB :arg1 :time
p6585
Vactive
p6586
tp6587
V:root
p6588
(V:arg0
p6589
V:arg1
p6590
V:time
p6591
tp6592
Vlook-01
p6593
tp6594
I1
s((VXXX-CC :arg0
p6595
g11
tp6596
V:root
p6597
(V:arg2
p6598
tp6599
Vcontrast-01
p6600
tp6601
I1
s((V:time , :arg0 will XXX-VB and :arg1
p6602
Vactive
p6603
tp6604
V:root
p6605
(V:arg0
p6606
V:arg0-of
p6607
V:time
p6608
tp6609
Vwalk-01
p6610
tp6611
I1
s((VXXX-IN :mod :domain are :mod :arg1
p6612
g11
tp6613
V:root
p6614
(V:arg0
p6615
V:arg1
p6616
tp6617
Vopine-01
p6618
tp6619
I1
s((V:arg2 , XXX-CC :op2
p6620
g11
tp6621
V:root
p6622
(V:op1
p6623
V:op2
p6624
tp6625
Vor
p6626
tp6627
I1
s((V:polite , XXX-VB :arg0
p6628
Vactive
p6629
tp6630
V:root
p6631
(V:arg0
p6632
V:arg1
p6633
tp6634
Vsay-01
p6635
tp6636
I1
s((V:arg0-of :arg0 , XXX-CC :op2
p6637
g11
tp6638
V:root
p6639
(V:op1
p6640
V:op2
p6641
tp6642
Vand
p6643
tp6644
I1
s((V:duration :arg1-of been XXX-VB :arg1-of
p6645
Vactive
p6646
tp6647
V:root
p6648
(V:arg1
p6649
V:arg1-of
p6650
V:arg1-of
p6651
V:time
p6652
tp6653
Vdisturb-01
p6654
tp6655
I1
s((V:domain is :degree a :mod XXX-NN , :domain
p6656
g11
tp6657
V:root
p6658
(V:domain
p6659
V:domain
p6660
V:mod
p6661
tp6662
Vplace
p6663
tp6664
I1
s((VXXX-VB :arg2 :arg1 :arg1
p6665
Vactive
p6666
tp6667
V:root
p6668
(V:arg1
p6669
V:arg2
p6670
tp6671
Vsend-01
p6672
tp6673
I1
s((VXXX-CC :arg1 :arg0 :arg1
p6674
g11
tp6675
V:root
p6676
(V:op2
p6677
tp6678
Vand
p6679
tp6680
I2
s((V:arg1 :op1 , XXX-CC :op2
p6681
g11
tp6682
V:root
p6683
(V:op1
p6684
V:op2
p6685
tp6686
Vand
p6687
tp6688
I1
s((V:condition , :arg0 would :arg1-of been XXX-JJ :arg1
p6689
Vactive
p6690
tp6691
V:root
p6692
(V:arg1
p6693
V:condition
p6694
tp6695
Vpossible-01
p6696
tp6697
I1
s((Vthat is to XXX-VB :polarity
p6698
Vactive
p6699
tp6700
V:root
p6701
(V:arg1
p6702
tp6703
Vsay-01
p6704
tp6705
I1
s((Vwhat is it that :arg0 are XXX-VB for :arg1
p6706
Vactive
p6707
tp6708
V:root
p6709
(V:arg0
p6710
V:arg1
p6711
tp6712
Vlook-01
p6713
tp6714
I1
s((Va what XXX-.
p6715
g11
tp6716
V:root
p6717
g265
Vamr-unknown
p6718
tp6719
I1
s((VXXX-NN
p6720
g11
tp6721
V:root
p6722
g265
Vfly
p6723
tp6724
I1
s((VXXX-CC , :arg0 , :arg1 :arg2
p6725
g11
tp6726
V:root
p6727
(V:arg2
p6728
tp6729
Vcontrast-01
p6730
tp6731
I1
s((V:time :arg0 XXX-VB to myself :arg1-of :arg2 :arg1
p6732
Vactive
p6733
tp6734
V:root
p6735
(V:arg0
p6736
V:arg1
p6737
V:time
p6738
tp6739
Vsay-01
p6740
tp6741
I1
s((VXXX-CC :arg1 are :arg2 :arg0
p6742
g11
tp6743
V:root
p6744
(V:arg2
p6745
tp6746
Vcontrast-01
p6747
tp6748
I1
s((V:arg2 , XXX-VB :arg0 , :manner , :time :frequency :mod
p6749
Vactive
p6750
tp6751
V:root
p6752
(V:arg0
p6753
V:arg1
p6754
V:manner
p6755
V:time
p6756
tp6757
Vsay-01
p6758
tp6759
I1
s((V:arg0-of :arg1 , :arg0 are XXX-NN
p6760
g11
tp6761
V:root
p6762
(V:arg0
p6763
V:arg1
p6764
tp6765
Vguide-01
p6766
tp6767
I1
s((V:arg0 XXX-VB there are :op1 :quant :op2 :arg1 :arg1
p6768
Vactive
p6769
tp6770
V:root
p6771
(V:arg0
p6772
V:arg1
p6773
tp6774
Vthink-01
p6775
tp6776
I1
s((VXXX-IN :arg0 , :domain :arg1
p6777
g11
tp6778
V:root
p6779
(V:arg0
p6780
V:arg1
p6781
tp6782
Vopine-01
p6783
tp6784
I1
s((V:arg0 :mod :arg2 :domain that has :arg1 to XXX-VB :arg1
p6785
Vactive
p6786
tp6787
V:root
p6788
(V:arg0
p6789
V:arg1
p6790
V:arg2
p6791
tp6792
Vsay-01
p6793
tp6794
I1
s((V:arg1 will be XXX-IN :arg2
p6795
Vactive
p6796
tp6797
V:root
p6798
(V:arg1
p6799
V:arg2
p6800
tp6801
Vresemble-01
p6802
tp6803
I1
s((V:arg1 :arg1 :arg2 :arg0-of XXX-VB :arg0
p6804
Vactive
p6805
tp6806
V:root
p6807
(V:arg0
p6808
V:arg1
p6809
tp6810
Vsay-01
p6811
tp6812
I1
s((V:arg1 will be XXX-VB :arg2 :location
p6813
Vactive
p6814
tp6815
V:root
p6816
(V:arg1
p6817
V:arg2
p6818
V:location
p6819
tp6820
Vwait-01
p6821
tp6822
I1
s((V:condition , :arg1 take XXX-RP :op1 it is yours
p6823
Vactive
p6824
tp6825
V:root
p6826
(V:condition
p6827
V:op1
p6828
V:op2
p6829
tp6830
Vand
p6831
tp6832
I1
s((V:domain , XXX-VB :arg0
p6833
Vactive
p6834
tp6835
V:root
p6836
(V:arg0
p6837
V:arg1
p6838
tp6839
Vsay-01
p6840
tp6841
I1
s((V:arg0 XXX-WDT :consist-of :manner
p6842
g11
tp6843
V:root
p6844
(V:arg0
p6845
V:arg1
p6846
tp6847
Vcause-01
p6848
tp6849
I1
s((Vso :arg1 :arg1-of :time XXX-VB :arg2
p6850
Vactive
p6851
tp6852
V:root
p6853
(V:arg1
p6854
V:arg1-of
p6855
V:arg2
p6856
V:concession
p6857
V:concession
p6858
V:time
p6859
V:time
p6860
tp6861
Vcome-04
p6862
tp6863
I1
s((V:arg1 , XXX-CC :arg2
p6864
g11
tp6865
V:root
p6866
(V:arg1
p6867
V:arg2
p6868
tp6869
Vcontrast-01
p6870
tp6871
I2
s((V:manner :part-of , :arg0 :time XXX-VB :arg1
p6872
Vactive
p6873
tp6874
V:root
p6875
(V:arg0
p6876
V:arg1
p6877
V:arg2
p6878
V:time
p6879
tp6880
Vdirect-01
p6881
tp6882
I1
s((V:arg0 will XXX-VB :direction
p6883
Vactive
p6884
tp6885
V:root
p6886
(V:arg0
p6887
V:arg1
p6888
V:arg2
p6889
V:direction
p6890
tp6891
Vbring-01
p6892
tp6893
I1
s((V:arg0 XXX-VB :arg1
p6894
Vactive
p6895
tp6896
V:root
p6897
(V:arg0
p6898
V:arg1
p6899
tp6900
Vwant-01
p6901
tp6902
I1
s((V:domain was XXX-JJ
p6903
Vactive
p6904
tp6905
V:root
p6906
(V:domain
p6907
tp6908
Vtiny
p6909
tp6910
I1
s((V:arg0 XXX-VB :arg1
p6911
Vactive
p6912
tp6913
V:root
p6914
(V:arg0
p6915
V:arg1
p6916
tp6917
Vsay-01
p6918
tp6919
I4
s((V:domain am :domain XXX-NN
p6920
g11
tp6921
V:root
p6922
(V:domain
p6923
V:domain
p6924
tp6925
Vflower
p6926
tp6927
I1
s((V:arg1 was :degree XXX-VB
p6928
Vactive
p6929
tp6930
V:root
p6931
(V:arg1
p6932
V:degree
p6933
tp6934
Vdiscourage-01
p6935
tp6936
I1
s((VXXX-CC :arg1 you :arg2 :extent
p6937
g11
tp6938
V:root
p6939
(V:arg2
p6940
tp6941
Vcontrast-01
p6942
tp6943
I1
s((V:polarity XXX-CC :time :time :arg0
p6944
g11
tp6945
V:root
p6946
(V:op1
p6947
V:op2
p6948
tp6949
Vand
p6950
tp6951
I1
s((VXXX-CC :time :op2
p6952
g11
tp6953
V:root
p6954
(V:op2
p6955
V:time
p6956
tp6957
Vand
p6958
tp6959
I1
s((V:arg0 XXX-MD :extent
p6960
Vactive
p6961
tp6962
V:root
p6963
(V:arg1
p6964
tp6965
Vpossible-01
p6966
tp6967
I1
s((V:condition , :polite XXX-NN :arg1
p6968
g11
tp6969
V:root
p6970
(V:arg1
p6971
V:condition
p6972
V:polite
p6973
tp6974
Vcomfort-01
p6975
tp6976
I1
s((VXXX-RB , :arg0 :arg1
p6977
g11
tp6978
V:root
p6979
(V:arg1
p6980
tp6981
Vah-01
p6982
tp6983
I1
s((V:arg0 XXX-VB :arg1 :time
p6984
Vactive
p6985
tp6986
V:root
p6987
(V:arg0
p6988
V:arg1
p6989
V:time
p6990
tp6991
Vhear-01
p6992
tp6993
I1
s((V:condition , they would XXX-VB up :arg0-of
p6994
Vactive
p6995
tp6996
V:root
p6997
(V:arg0
p6998
V:condition
p6999
tp7000
Vrise-up-03
p7001
tp7002
I1
s((Vare there XXX-NN
p7003
g11
tp7004
V:root
p7005
g265
Vchicken
p7006
tp7007
I1
s((V:arg0 XXX-VB :mod
p7008
Vactive
p7009
tp7010
V:root
p7011
(V:arg0
p7012
V:mod
p7013
tp7014
Vlaugh-01
p7015
tp7016
I1
s((V:arg1 was :mod :polarity XXX-JJ
p7017
Vactive
p7018
tp7019
V:root
p7020
(V:arg1
p7021
V:mod
p7022
V:polarity
p7023
tp7024
Vsatisfy-01
p7025
tp7026
I1
s((V:domain XXX-MD , you :mod
p7027
Vactive
p7028
tp7029
V:root
p7030
(V:arg1
p7031
tp7032
Vpossible-01
p7033
tp7034
I1
s((V:domain is the :mod XXX-CD :arg1-of
p7035
g11
tp7036
V:root
p7037
(V:arg1-of
p7038
V:domain
p7039
V:mod
p7040
tp7041
Vone
p7042
tp7043
I1
s((V:arg0 , XXX-VB :arg0 :manner , :arg1 :polarity :polarity :arg1-of
p7044
Vactive
p7045
tp7046
V:root
p7047
(V:arg0
p7048
V:arg1
p7049
tp7050
Vsay-01
p7051
tp7052
I1
s((V:arg1-of , :arg0 XXX-VB
p7053
Vactive
p7054
tp7055
V:root
p7056
(V:arg0
p7057
V:arg1
p7058
tp7059
Vsay-01
p7060
tp7061
I1
s((VXXX-CC , :time :time , :arg0 :op2
p7062
g11
tp7063
V:root
p7064
(V:op2
p7065
tp7066
Vand
p7067
tp7068
I1
s((Vthere was :polarity :mod :mod XXX-NN , :arg1-of :arg0
p7069
g11
tp7070
V:root
p7071
(V:arg1-of
p7072
V:mod
p7073
V:polarity
p7074
tp7075
Vsound-02
p7076
tp7077
I1
s((V:time :arg1 is XXX-VB :degree
p7078
Vactive
p7079
tp7080
V:root
p7081
(V:arg1
p7082
V:degree
p7083
V:time
p7084
tp7085
Vcomfort-01
p7086
tp7087
I1
s((V:arg0 :polarity :polarity XXX-VB myself :arg2
p7088
Vactive
p7089
tp7090
V:root
p7091
(V:arg0
p7092
V:arg2
p7093
V:polarity
p7094
V:polarity
p7095
tp7096
Vamuse-01
p7097
tp7098
I1
s((VXXX-CC :arg1-of :time :arg2
p7099
g11
tp7100
V:root
p7101
(V:arg2
p7102
tp7103
Vcontrast-01
p7104
tp7105
I1
s((V:arg1 :location , :arg0 XXX-VB , :location :op1
p7106
Vactive
p7107
tp7108
V:root
p7109
(V:arg0
p7110
V:arg1
p7111
tp7112
Vsay-01
p7113
tp7114
I1
s((V:arg0 :op1 , :op2 , XXX-CC :op3
p7115
g11
tp7116
V:root
p7117
(V:op1
p7118
V:op2
p7119
V:op3
p7120
tp7121
Vand
p7122
tp7123
I1
s((V:arg1 :arg0 XXX-VB :arg2
p7124
Vactive
p7125
tp7126
V:root
p7127
(V:arg0
p7128
V:arg1
p7129
V:arg2
p7130
tp7131
Vsay-01
p7132
tp7133
I1
s((V:location :domain are :arg1-of :degree :degree XXX-JJ :compared-to
p7134
Vactive
p7135
tp7136
V:root
p7137
(V:arg1-of
p7138
V:compared-to
p7139
V:degree
p7140
V:domain
p7141
V:location
p7142
tp7143
Vsmall
p7144
tp7145
I1
s((V:arg0 XXX-VB :arg1
p7146
Vactive
p7147
tp7148
V:root
p7149
(V:arg0
p7150
V:arg1
p7151
tp7152
Vgaze-01
p7153
tp7154
I1
s((VXXX-CC :arg1 :arg2
p7155
g11
tp7156
V:root
p7157
(V:arg2
p7158
tp7159
Vcontrast-01
p7160
tp7161
I4
s((V:arg0 XXX-VB :arg2
p7162
Vactive
p7163
tp7164
V:root
p7165
(V:arg0
p7166
V:arg1
p7167
V:arg2
p7168
tp7169
Vbeg-01
p7170
tp7171
I1
s((V:time :op1 :arg0 XXX-VB :mod :arg1
p7172
Vactive
p7173
tp7174
V:root
p7175
(V:arg0
p7176
V:arg1
p7177
V:mod
p7178
V:time
p7179
tp7180
Vspeak-01
p7181
tp7182
I1
s((V:arg1 was XXX-VB :arg0
p7183
Vactive
p7184
tp7185
V:root
p7186
(V:arg0
p7187
V:arg1
p7188
tp7189
Vsurprise-01
p7190
tp7191
I1
s((V:arg1-of , :arg1 was XXX-VB :arg2
p7192
Vactive
p7193
tp7194
V:root
p7195
(V:arg1
p7196
V:arg2
p7197
tp7198
Vseat-01
p7199
tp7200
I1
s((VXXX-CC :direction :arg2 :direction :domain is :degree
p7201
g11
tp7202
V:root
p7203
(V:arg2
p7204
tp7205
Vcontrast-01
p7206
tp7207
I1
s((Vi am :arg1 , :arg0 XXX-VB , :arg1-of
p7208
Vactive
p7209
tp7210
V:root
p7211
(V:arg0
p7212
V:arg1
p7213
V:purpose
p7214
V:purpose
p7215
tp7216
Vrepeat-01
p7217
tp7218
I1
s((V' to XXX-VB :arg1
p7219
Vactive
p7220
tp7221
V:root
p7222
(V:arg1
p7223
tp7224
Vestablish-01
p7225
tp7226
I1
s((V:arg0 XXX-MD :op1
p7227
Vactive
p7228
tp7229
V:root
p7230
(V:arg1
p7231
tp7232
Vrecommend-01
p7233
tp7234
I1
s((Vyes , :mod XXX-NN that :arg0-of
p7235
g11
tp7236
V:root
p7237
(V:arg0-of
p7238
V:mod
p7239
tp7240
Vflower
p7241
tp7242
I1
s((V:arg1 was :manner XXX-VB :arg3
p7243
Vactive
p7244
tp7245
V:root
p7246
(V:arg1
p7247
V:arg3
p7248
V:manner
p7249
tp7250
Vstir-02
p7251
tp7252
I1
s((VXXX-VB :arg0 :arg1
p7253
Vactive
p7254
tp7255
V:root
p7256
(V:arg0
p7257
V:arg1
p7258
tp7259
Vhave-03
p7260
tp7261
I2
s((Vthere is a XXX-NN
p7262
g11
tp7263
V:root
p7264
g265
Vflower
p7265
tp7266
I1
s((V:location :arg0 XXX-VB :arg1 :time
p7267
Vactive
p7268
tp7269
V:root
p7270
(V:arg0
p7271
V:arg1
p7272
V:location
p7273
tp7274
Vhave-03
p7275
tp7276
I1
s((V:arg1 :arg1 :arg2 :arg0 XXX-VB , :manner
p7277
Vactive
p7278
tp7279
V:root
p7280
(V:arg0
p7281
V:arg1
p7282
V:manner
p7283
tp7284
Vask-01
p7285
tp7286
I1
s((V:arg1 :arg1 be :arg2 XXX-VB :arg0
p7287
Vactive
p7288
tp7289
V:root
p7290
(V:arg0
p7291
V:arg1
p7292
tp7293
Vinquire-01
p7294
tp7295
I1
s((V:arg1 was XXX-VB
p7296
Vactive
p7297
tp7298
V:root
p7299
(V:arg1
p7300
tp7301
Vdisappoint-01
p7302
tp7303
I1
s((Vthe :arg1 :arg2 XXX-NN are they
p7304
g11
tp7305
V:root
p7306
(V:arg1
p7307
V:arg2
p7308
tp7309
Vuse-01
p7310
tp7311
I1
s((V:arg0 shall XXX-VB :arg2 :degree
p7312
Vactive
p7313
tp7314
V:root
p7315
(V:arg0
p7316
V:arg1
p7317
V:arg2
p7318
tp7319
Vshow-01
p7320
tp7321
I1
s((V:arg0 shall XXX-VB :arg1
p7322
Vactive
p7323
tp7324
V:root
p7325
(V:arg0
p7326
V:arg1
p7327
tp7328
Vknow-04
p7329
tp7330
I1
s((V:arg1 XXX-VB :manner :duration
p7331
Vactive
p7332
tp7333
V:root
p7334
(V:arg1
p7335
V:duration
p7336
V:manner
p7337
tp7338
Vremain-01
p7339
tp7340
I1
s((V:degree is :degree :arg1-of :arg1-of :arg0 XXX-VB :arg2-of
p7341
Vactive
p7342
tp7343
V:root
p7344
(V:arg0
p7345
V:arg1
p7346
V:arg1-of
p7347
V:arg1-of
p7348
tp7349
Vchange-01
p7350
tp7351
I1
s((V:condition , :arg0 XXX-VB , i :op2
p7352
Vactive
p7353
tp7354
V:root
p7355
(V:arg0
p7356
V:arg1
p7357
tp7358
Vsay-01
p7359
tp7360
I1
s((V:domain was :arg0-of who XXX-VB :arg1
p7361
Vactive
p7362
tp7363
V:root
p7364
(V:arg0
p7365
V:arg1
p7366
tp7367
Vsell-01
p7368
tp7369
I1
s((V:arg0 XXX-VB
p7370
Vactive
p7371
tp7372
V:root
p7373
(V:arg0
p7374
tp7375
Vdemand-01
p7376
tp7377
I2
s((V:arg1 XXX-MD :polarity :arg1
p7378
Vactive
p7379
tp7380
V:root
p7381
(V:arg1
p7382
V:polarity
p7383
tp7384
Vpossible-01
p7385
tp7386
I2
s((VXXX-CC :condition :arg1-of :condition
p7387
g11
tp7388
V:root
p7389
(V:op2
p7390
tp7391
Vand
p7392
tp7393
I1
s((Vi , XXX-VB :arg0
p7394
Vactive
p7395
tp7396
V:root
p7397
(V:arg0
p7398
V:arg1
p7399
tp7400
Vreply-01
p7401
tp7402
I1
s((VXXX-CC :mod :op2
p7403
g11
tp7404
V:root
p7405
(V:op2
p7406
tp7407
Vand
p7408
tp7409
I1
s((V:arg1 :degree XXX-VB :arg1-of , :arg1-of
p7410
Vactive
p7411
tp7412
V:root
p7413
(V:arg1
p7414
V:arg1-of
p7415
V:arg1-of
p7416
tp7417
Vsit-down-02
p7418
tp7419
I1
s((V:mod :arg0-of XXX-NN
p7420
g11
tp7421
V:root
p7422
(V:arg0-of
p7423
V:mod
p7424
tp7425
Vobject
p7426
tp7427
I1
s((VXXX-DT XXX-NN
p7428
g11
tp7429
V:root
p7430
g265
Vtemporal-quantity
p7431
tp7432
I1
s((VXXX-IN it :arg0
p7433
g11
tp7434
V:root
p7435
(V:arg0
p7436
tp7437
Vcause-01
p7438
tp7439
I1
s((V:domain am :degree XXX-JJ
p7440
Vactive
p7441
tp7442
V:root
p7443
(V:degree
p7444
V:domain
p7445
tp7446
Vold
p7447
tp7448
I1
s((V:arg0 XXX-VB :arg1 :arg1-of
p7449
Vactive
p7450
tp7451
V:root
p7452
(V:arg0
p7453
V:arg1
p7454
V:arg1-of
p7455
tp7456
Vgaze-01
p7457
tp7458
I1
s((V:mod XXX-DT
p7459
g11
tp7460
V:root
p7461
(V:mod
p7462
tp7463
Vthat
p7464
tp7465
I1
s((Vwhat do :arg0 XXX-VB :arg3 :arg1
p7466
Vactive
p7467
tp7468
V:root
p7469
(V:arg0
p7470
V:arg1
p7471
V:arg3
p7472
tp7473
Vdo-02
p7474
tp7475
I1
s((V:arg0 XXX-VB :arg1 :arg1-of
p7476
Vactive
p7477
tp7478
V:root
p7479
(V:arg0
p7480
V:arg1
p7481
tp7482
Vrepeat-01
p7483
tp7484
I1
s((V:arg0 XXX-VB :arg1 , :op1 :time
p7485
Vactive
p7486
tp7487
V:root
p7488
(V:arg0
p7489
V:arg1
p7490
V:time
p7491
tp7492
Vsee-01
p7493
tp7494
I1
s((V:arg0 will XXX-VB :arg0 :arg2
p7495
Vactive
p7496
tp7497
V:root
p7498
(V:arg0
p7499
V:arg1
p7500
tp7501
Vmake-02
p7502
tp7503
I1
s((V:arg0 XXX-MD :mod :arg1
p7504
Vactive
p7505
tp7506
V:root
p7507
(V:arg1
p7508
tp7509
Vrecommend-01
p7510
tp7511
I1
s((V:arg0 XXX-MD :arg1
p7512
Vactive
p7513
tp7514
V:root
p7515
(V:arg1
p7516
V:condition
p7517
tp7518
Vpossible-01
p7519
tp7520
I1
s((V:arg1-of is XXX-IN :arg0
p7521
g11
tp7522
V:root
p7523
(V:arg1-of
p7524
tp7525
Vthat
p7526
tp7527
I2
s((V:arg1 XXX-MD :arg2
p7528
Vactive
p7529
tp7530
V:root
p7531
(V:arg1
p7532
V:arg2
p7533
tp7534
Vobligate-01
p7535
tp7536
I2
s((V:arg0 XXX-MD :polarity :arg1
p7537
Vactive
p7538
tp7539
V:root
p7540
(V:arg1
p7541
V:mod
p7542
V:polarity
p7543
tp7544
Vpossible-01
p7545
tp7546
I1
s((V:time are XXX-NN
p7547
g11
tp7548
V:root
p7549
(V:domain
p7550
V:time
p7551
V:time
p7552
tp7553
Vnothing
p7554
tp7555
I1
s((Vthe XXX-NN :arg4-of :arg1-of
p7556
g11
tp7557
V:root
p7558
(V:arg1-of
p7559
V:arg4-of
p7560
tp7561
Vwell
p7562
tp7563
I1
s((V:arg1 am :mod XXX-JJ
p7564
Vactive
p7565
tp7566
V:root
p7567
(V:arg1
p7568
V:mod
p7569
tp7570
Vhappy-01
p7571
tp7572
I1
s((V:arg1 was XXX-VB :arg0 :arg0-of
p7573
Vactive
p7574
tp7575
V:root
p7576
(V:arg0
p7577
V:arg1
p7578
tp7579
Vinhabit-01
p7580
tp7581
I1
s((V:domain is :polarity the :mod XXX-NN
p7582
g11
tp7583
V:root
p7584
(V:domain
p7585
V:mod
p7586
tp7587
Vspot
p7588
tp7589
I1
s((V:arg0 XXX-VB :arg1
p7590
Vactive
p7591
tp7592
V:root
p7593
(V:arg0
p7594
V:arg1
p7595
V:polarity
p7596
tp7597
Vtolerate-01
p7598
tp7599
I1
s((Vam :polarity :arg1 :arg0 XXX-VB , :manner
p7600
Vactive
p7601
tp7602
V:root
p7603
(V:arg0
p7604
V:arg1
p7605
V:manner
p7606
tp7607
Vrespond-01
p7608
tp7609
I1
s((VXXX-CC :arg0 :poss
p7610
g11
tp7611
V:root
p7612
(V:op2
p7613
tp7614
Vand
p7615
tp7616
I1
s((V:arg1 were XXX-VB :poss :arg0
p7617
Vactive
p7618
tp7619
V:root
p7620
(V:arg0
p7621
V:arg1
p7622
tp7623
Vchoke-up-04
p7624
tp7625
I1
s((V:arg2 , :arg0 XXX-VB to him , i :arg1
p7626
Vactive
p7627
tp7628
V:root
p7629
(V:arg0
p7630
V:arg1
p7631
V:arg2
p7632
tp7633
Vsay-01
p7634
tp7635
I1
s((V:domain is a XXX-NN :arg0-of
p7636
g11
tp7637
V:root
p7638
(V:arg0-of
p7639
V:domain
p7640
tp7641
Vscholar
p7642
tp7643
I1
s((V:arg1 , :arg0 XXX-VB , :arg0
p7644
Vactive
p7645
tp7646
V:root
p7647
(V:arg0
p7648
V:arg1
p7649
tp7650
Vsay-01
p7651
tp7652
I1
s((V:time :arg0 XXX-VB , :mod :arg1
p7653
Vactive
p7654
tp7655
V:root
p7656
(V:arg0
p7657
V:arg1
p7658
V:mod
p7659
V:time
p7660
tp7661
Vsay-01
p7662
tp7663
I1
s((V:time :arg0 XXX-VB :arg1 :arg2
p7664
Vactive
p7665
tp7666
V:root
p7667
(V:arg0
p7668
V:arg1
p7669
V:arg2
p7670
V:time
p7671
tp7672
Vmop-01
p7673
tp7674
I1
s((Vand XXX-RB :arg1 :arg1
p7675
g11
tp7676
V:root
p7677
(V:arg2
p7678
tp7679
Vcontrast-01
p7680
tp7681
I1
s((V:domain is :degree XXX-JJ :domain
p7682
Vactive
p7683
tp7684
V:root
p7685
(V:degree
p7686
V:domain
p7687
V:domain
p7688
tp7689
Vnaive
p7690
tp7691
I1
s((V:arg0 has :polarity XXX-VB :arg1
p7692
Vactive
p7693
tp7694
V:root
p7695
(V:arg0
p7696
V:arg1
p7697
V:polarity
p7698
V:time
p7699
tp7700
Vlook-01
p7701
tp7702
I1
s((V:time , he XXX-VB :arg1-of :arg1
p7703
Vactive
p7704
tp7705
V:root
p7706
(V:arg0
p7707
V:arg1
p7708
V:time
p7709
tp7710
Vfeel-01
p7711
tp7712
I1
s((Vwhat XXX-VB :arg1 :arg0
p7713
Vactive
p7714
tp7715
V:root
p7716
(V:arg0
p7717
V:arg1
p7718
V:arg2
p7719
V:time
p7720
tp7721
Vbring-01
p7722
tp7723
I1
s((V:manner do :arg0 XXX-VB :arg1 :manner
p7724
Vactive
p7725
tp7726
V:root
p7727
(V:arg0
p7728
V:arg1
p7729
V:manner
p7730
V:manner
p7731
tp7732
Vknow-01
p7733
tp7734
I1
s((V:arg1 XXX-VB :direction
p7735
Vactive
p7736
tp7737
V:root
p7738
(V:arg1
p7739
V:direction
p7740
V:time
p7741
tp7742
Vcome-01
p7743
tp7744
I1
s((V:degree was :mod :manner that :arg0 XXX-VB :arg1
p7745
Vactive
p7746
tp7747
V:root
p7748
(V:arg0
p7749
V:arg1
p7750
tp7751
Vwish-01
p7752
tp7753
I1
s((V:arg1 was XXX-DT :mod :arg2
p7754
g11
tp7755
V:root
p7756
(V:arg1
p7757
V:arg2
p7758
tp7759
Vresemble-01
p7760
tp7761
I1
s((V:arg0 XXX-MD :manner :op2
p7762
Vactive
p7763
tp7764
V:root
p7765
(V:arg1
p7766
tp7767
Vrecommend-01
p7768
tp7769
I1
s((V:arg0 , XXX-VB :domain , are :arg1 , :arg1-of :arg2 , are :degree :arg0-of :arg0-of :arg1
p7770
Vactive
p7771
tp7772
V:root
p7773
(V:arg0
p7774
V:arg1
p7775
tp7776
Vsay-01
p7777
tp7778
I1
s((V:arg1 , XXX-VB :arg0 :arg1-of of :arg0
p7779
Vactive
p7780
tp7781
V:root
p7782
(V:arg0
p7783
V:arg1
p7784
tp7785
Vsay-01
p7786
tp7787
I1
s((V:arg1 , XXX-VB :arg0 , :concession :arg1
p7788
Vactive
p7789
tp7790
V:root
p7791
(V:arg0
p7792
V:arg1
p7793
tp7794
Vsay-01
p7795
tp7796
I1
s((VXXX-IN :arg1-of was :arg1 :arg2
p7797
g11
tp7798
V:root
p7799
(V:arg0
p7800
V:arg1
p7801
tp7802
Vcause-01
p7803
tp7804
I1
s((VXXX-VB :arg1 :manner that :purpose :arg0 :condition
p7805
Vactive
p7806
tp7807
V:root
p7808
(V:arg0
p7809
V:arg1
p7810
V:manner
p7811
V:purpose
p7812
tp7813
Vlook-01
p7814
tp7815
I1
s((V:arg1 are :polarity :degree XXX-JJ
p7816
Vactive
p7817
tp7818
V:root
p7819
(V:arg1
p7820
V:degree
p7821
tp7822
Vpowerful-02
p7823
tp7824
I1
s((V:ord , :quant :time , :arg1 was XXX-VB :ord :arg0
p7825
Vactive
p7826
tp7827
V:root
p7828
(V:arg0
p7829
V:arg1
p7830
V:domain
p7831
V:time
p7832
tp7833
Vdisturb-01
p7834
tp7835
I1
s((V:arg2 , :arg0 XXX-VB :arg1
p7836
Vactive
p7837
tp7838
V:root
p7839
(V:arg0
p7840
V:arg1
p7841
tp7842
Vhasten-01
p7843
tp7844
I1
s((V:purpose , XXX-VB :arg0 a king :arg2 :arg1
p7845
Vactive
p7846
tp7847
V:root
p7848
(V:arg0
p7849
V:arg1
p7850
tp7851
Vsay-01
p7852
tp7853
I1
s((V:op1 , XXX-CC :op2
p7854
g11
tp7855
V:root
p7856
(V:op1
p7857
V:op2
p7858
V:time
p7859
tp7860
Vand
p7861
tp7862
I1
s((V:arg0 XXX-VB :arg1
p7863
Vactive
p7864
tp7865
V:root
p7866
(V:arg0
p7867
V:arg1
p7868
tp7869
Voccupy-01
p7870
tp7871
I1
s((V:arg1 :arg0 XXX-VB
p7872
Vactive
p7873
tp7874
V:root
p7875
(V:arg0
p7876
V:arg1
p7877
tp7878
Vdo-02
p7879
tp7880
I1
s((V:arg0 will XXX-VB to :arg1 :accompanier
p7881
Vactive
p7882
tp7883
V:root
p7884
(V:arg0
p7885
V:arg1
p7886
tp7887
Vwant-01
p7888
tp7889
I1
s((V:arg0 XXX-VB :manner
p7890
Vactive
p7891
tp7892
V:root
p7893
(V:arg0
p7894
V:arg1
p7895
V:arg4
p7896
V:arg5
p7897
V:manner
p7898
tp7899
Vsend-03
p7900
tp7901
I1
s((Vwhat :arg0 :polarity :polarity XXX-VB :arg2 was :frequency :arg3
p7902
Vactive
p7903
tp7904
V:root
p7905
(V:arg0
p7906
V:arg2
p7907
V:polarity
p7908
V:polarity
p7909
tp7910
Vdare-01
p7911
tp7912
I1
s((V:arg0-of :time is a XXX-NN :arg0-of
p7913
g11
tp7914
V:root
p7915
(V:arg0-of
p7916
V:arg0-of
p7917
V:time
p7918
tp7919
Vman
p7920
tp7921
I1
s((V:time :arg1 was XXX-JJ
p7922
Vactive
p7923
tp7924
V:root
p7925
(V:arg1
p7926
V:time
p7927
tp7928
Vreasonable-02
p7929
tp7930
I1
s((VXXX-CC :arg0 :arg1
p7931
g11
tp7932
V:root
p7933
(V:arg1
p7934
tp7935
Vhave-concession-91
p7936
tp7937
I1
s((V:arg0 XXX-VB :arg0 :arg1-of :arg2
p7938
Vactive
p7939
tp7940
V:root
p7941
(V:arg0
p7942
V:arg1
p7943
V:time
p7944
tp7945
Vfeel-01
p7946
tp7947
I1
s((Vwhat does :arg1 XXX-VB :arg2
p7948
Vactive
p7949
tp7950
V:root
p7951
(V:arg1
p7952
V:arg2
p7953
tp7954
Vmean-01
p7955
tp7956
I1
s((V:arg1 :op1 XXX-CC :op2
p7957
g11
tp7958
V:root
p7959
(V:op1
p7960
V:op2
p7961
tp7962
Vand
p7963
tp7964
I1
s((V:domain is :mod :degree XXX-JJ
p7965
Vactive
p7966
tp7967
V:root
p7968
(V:degree
p7969
V:domain
p7970
tp7971
Vsmall
p7972
tp7973
I1
s((VXXX-VB :direction :direction :arg1
p7974
Vactive
p7975
tp7976
V:root
p7977
(V:arg1
p7978
V:direction
p7979
V:direction
p7980
tp7981
Vlook-01
p7982
tp7983
I1
s((V:arg1-of :arg1 :arg0 XXX-VB :arg0
p7984
Vactive
p7985
tp7986
V:root
p7987
(V:arg0
p7988
V:arg1
p7989
tp7990
Vask-01
p7991
tp7992
I2
s((VXXX-CC :condition , :arg1 , and :arg2
p7993
g11
tp7994
V:root
p7995
(V:arg2
p7996
tp7997
Vcontrast-01
p7998
tp7999
I1
s((V:arg1 , XXX-VB :arg1
p8000
Vactive
p8001
tp8002
V:root
p8003
(V:arg0
p8004
V:arg1
p8005
tp8006
Vsay-01
p8007
tp8008
I1
s((V:arg1 , :arg1 :arg2 , :arg0 XXX-VB on
p8009
Vactive
p8010
tp8011
V:root
p8012
(V:arg0
p8013
V:arg1
p8014
tp8015
Vgo-on-25
p8016
tp8017
I1
s((V:arg0 :polarity :polarity XXX-VB :arg1 :time
p8018
Vactive
p8019
tp8020
V:root
p8021
(V:arg0
p8022
V:arg1
p8023
V:polarity
p8024
V:polarity
p8025
V:time
p8026
tp8027
Vwant-01
p8028
tp8029
I1
s((VXXX-CC :arg0 :op1
p8030
g11
tp8031
V:root
p8032
(V:op2
p8033
tp8034
Vand
p8035
tp8036
I1
s((V:arg0 XXX-VB :arg1
p8037
Vactive
p8038
tp8039
V:root
p8040
(V:arg0
p8041
V:arg1
p8042
tp8043
Vcause-01
p8044
tp8045
I1
s((VXXX-CC :condition
p8046
g11
tp8047
V:root
p8048
(V:op1
p8049
tp8050
Vand
p8051
tp8052
I1
s((V:arg2 are the XXX-NN :arg1
p8053
g11
tp8054
V:root
p8055
(V:arg1
p8056
V:arg2
p8057
tp8058
Vsource-01
p8059
tp8060
I1
s((VXXX-CC :arg0 :op1 :arg1
p8061
g11
tp8062
V:root
p8063
(V:op1
p8064
tp8065
Vand
p8066
tp8067
I1
s((V:poss XXX-NN :mod
p8068
g11
tp8069
V:root
p8070
(V:arg1-of
p8071
V:beneficiary
p8072
V:poss
p8073
V:quant
p8074
tp8075
Vstar
p8076
tp8077
I1
s((Vyes , XXX-DT XXX-NN
p8078
g11
tp8079
V:root
p8080
g265
Vtemporal-quantity
p8081
tp8082
I1
s((VXXX-CC :domain is :polarity :arg2
p8083
g11
tp8084
V:root
p8085
(V:arg2
p8086
tp8087
Vcontrast-01
p8088
tp8089
I1
s((V:time :arg0 XXX-VB :arg1
p8090
Vactive
p8091
tp8092
V:root
p8093
(V:arg0
p8094
V:arg1
p8095
V:time
p8096
tp8097
Vadd-01
p8098
tp8099
I1
s((V:arg0 have :polarity been :degree XXX-JJ in :arg1 :arg1-of
p8100
Vactive
p8101
tp8102
V:root
p8103
(V:arg0
p8104
V:arg1
p8105
V:degree
p8106
tp8107
Vhonest-01
p8108
tp8109
I1
s((VXXX-RB
p8110
g11
tp8111
V:root
p8112
g265
Vah
p8113
tp8114
I7
s((Vi am :polarity :arg2 , :arg0 XXX-VB , :manner
p8115
Vactive
p8116
tp8117
V:root
p8118
(V:arg0
p8119
V:arg2
p8120
V:manner
p8121
tp8122
Vreply-01
p8123
tp8124
I1
s((V:arg0 :time be :mod :degree XXX-JJ :time
p8125
Vactive
p8126
tp8127
V:root
p8128
(V:arg0
p8129
V:degree
p8130
V:time
p8131
V:time
p8132
tp8133
Vfear-01
p8134
tp8135
I1
s((V:condition , i XXX-MD :op2
p8136
Vactive
p8137
tp8138
V:root
p8139
(V:arg1
p8140
V:condition
p8141
tp8142
Vpossible-01
p8143
tp8144
I1
s((V:arg1 , XXX-VB :arg0
p8145
Vactive
p8146
tp8147
V:root
p8148
(V:arg0
p8149
V:arg1
p8150
tp8151
Vthink-01
p8152
tp8153
I1
s((Vthen XXX-EX :polarity
p8154
g11
tp8155
V:root
p8156
(V:location
p8157
V:polarity
p8158
tp8159
Vperson
p8160
tp8161
I1
s((V:arg0 was XXX-JJ , there :mod
p8162
Vactive
p8163
tp8164
V:root
p8165
(V:arg0
p8166
V:mod
p8167
tp8168
Vfear-01
p8169
tp8170
I1
s((V:arg1 , :arg0 XXX-VB :time
p8171
Vactive
p8172
tp8173
V:root
p8174
(V:arg0
p8175
V:arg1
p8176
V:time
p8177
tp8178
Vsay-01
p8179
tp8180
I1
s((V:arg0 :arg1 :arg1 to :arg1 , XXX-CC :arg2 :arg0
p8181
g11
tp8182
V:root
p8183
(V:arg1
p8184
V:arg2
p8185
tp8186
Vcontrast-01
p8187
tp8188
I1
s((VXXX-RB :arg0 will depend :poss :arg1
p8189
g11
tp8190
V:root
p8191
(V:arg0
p8192
V:arg1
p8193
tp8194
Vdepend-01
p8195
tp8196
I1
s((V:arg1 , XXX-VB :arg0
p8197
Vactive
p8198
tp8199
V:root
p8200
(V:arg0
p8201
V:arg1
p8202
tp8203
Vsay-01
p8204
tp8205
I41
s((VXXX-RB
p8206
g11
tp8207
V:root
p8208
g265
Vcertain
p8209
tp8210
I1
s((V:arg0 XXX-VB :arg1 :direction :op1
p8211
Vactive
p8212
tp8213
V:root
p8214
(V:arg0
p8215
V:arg1
p8216
tp8217
Vcontinue-01
p8218
tp8219
I1
s.